 TSReader

 Timestamp is 47a0f522 (Wed Jan 30 17:07:30 2008)

 Preferred load address is 00400000

 Start         Length     Name                   Class
 0001:00000000 000d927eH .text                   CODE
 0002:00000000 00027dd1H .rdata                  DATA
 0002:00027dd1 00000000H .edata                  DATA
 0003:00000000 00000004H .CRT$XCA                DATA
 0003:00000004 00000004H .CRT$XCZ                DATA
 0003:00000008 00000004H .CRT$XIA                DATA
 0003:0000000c 00000008H .CRT$XIC                DATA
 0003:00000014 00000004H .CRT$XIZ                DATA
 0003:00000018 00000004H .CRT$XPA                DATA
 0003:0000001c 00000004H .CRT$XPX                DATA
 0003:00000020 00000004H .CRT$XPZ                DATA
 0003:00000024 00000004H .CRT$XTA                DATA
 0003:00000028 00000004H .CRT$XTZ                DATA
 0003:00000030 00030150H .data                   DATA
 0003:00030180 003c7034H .bss                    DATA
 0004:00000000 00000118H .idata$2                DATA
 0004:00000118 00000028H .idata$3                DATA
 0004:00000140 00000534H .idata$4                DATA
 0004:00000674 00000534H .idata$5                DATA
 0004:00000ba8 0000131cH .idata$6                DATA
 0005:00000000 00002b48H .rsrc$01                DATA
 0005:00002b50 0001a850H .rsrc$02                DATA

  Address         Publics by Value              Rva+Base     Lib:Object

 0001:00000000       _AACAudioDecoderThread@4   00401000 f   AACAudioDecoder.obj
 0001:000008c0       _AC3Init                   004018c0 f   AC3AudioDecoder.obj
 0001:000009e0       _AC3DeInit                 004019e0 f   AC3AudioDecoder.obj
 0001:00000a40       _a52_decode_data           00401a40 f   AC3AudioDecoder.obj
 0001:00000e80       _AC3AudioDecoderThread@4   00401e80 f   AC3AudioDecoder.obj
 0001:00001320       _ATSCHuffmanDecode         00402320 f   ATSC_huffman.obj
 0001:00001540       _WriteFileAndUpdateCounters 00402540 f   bcdmux.obj
 0001:000015f0       _set_buf                   004025f0 f   bcdmux.obj
 0001:000016b0       _buf_size                  004026b0 f   bcdmux.obj
 0001:000016e0       _set_bits                  004026e0 f   bcdmux.obj
 0001:00001820       _get_bits                  00402820 f   bcdmux.obj
 0001:000019a0       _get_bit_pos               004029a0 f   bcdmux.obj
 0001:000019d0       _get_byte_pos              004029d0 f   bcdmux.obj
 0001:00001a00       _set_bit_pos               00402a00 f   bcdmux.obj
 0001:00001aa0       _set_pts                   00402aa0 f   bcdmux.obj
 0001:00001b60       _write_pack                00402b60 f   bcdmux.obj
 0001:00001d00       _write_system              00402d00 f   bcdmux.obj
 0001:00001ef0       _pad_buffer                00402ef0 f   bcdmux.obj
 0001:00001fc0       _make_pes_header           00402fc0 f   bcdmux.obj
 0001:000022f0       _write_file_header         004032f0 f   bcdmux.obj
 0001:00002410       _PS__StartWriting          00403410 f   bcdmux.obj
 0001:00002600       _PS__StopWriting           00403600 f   bcdmux.obj
 0001:00002690       _PS__TranslateToProgramStream 00403690 f   bcdmux.obj
 0001:000034e0       _bs_init                   004044e0 f   CCDecoder.obj
 0001:00003530       _bs_byte_aligned           00404530 f   CCDecoder.obj
 0001:00003570       _bs_eof                    00404570 f   CCDecoder.obj
 0001:000035a0       _bs_read_u1                004045a0 f   CCDecoder.obj
 0001:00003630       _bs_read_u                 00404630 f   CCDecoder.obj
 0001:000036a0       _bs_read_f                 004046a0 f   CCDecoder.obj
 0001:000036e0       _bs_read_u8                004046e0 f   CCDecoder.obj
 0001:00003720       _bs_read_ue                00404720 f   CCDecoder.obj
 0001:000037c0       _bs_read_se                004047c0 f   CCDecoder.obj
 0001:00003830       _read_scaling_list         00404830 f   CCDecoder.obj
 0001:00003910       _read_hrd_parameters       00404910 f   CCDecoder.obj
 0001:00003a50       _read_vui_parameters       00404a50 f   CCDecoder.obj
 0001:00003de0       _CheckCommonGraphMessages  00404de0 f   charting.obj
 0001:00004170       _Charting__UpdateQuickStyle 00405170 f   charting.obj
 0001:000041f0       _SetupPIEGraphData         004051f0 f   charting.obj
 0001:000043f0       _SetupChartSubtitle        004053f0 f   charting.obj
 0001:000044c0       _PIDPieChartWindowProc@16  004054c0 f   charting.obj
 0001:00004960       _AddVideoRateData          00405960 f   charting.obj
 0001:00004d60       _VideoBitrateChartWindowProc@16 00405d60 f   charting.obj
 0001:00005720       _AddMuxRateData            00406720 f   charting.obj
 0001:00005b80       _MuxrateChartWindowProc@16 00406b80 f   charting.obj
 0001:000062e0       _SetupActivePIDData        004072e0 f   charting.obj
 0001:000066e0       _ActivePIDsChartWindowProc@16 004076e0 f   charting.obj
 0001:00006be0       _ProgramUsageCheckMaxRate  00407be0 f   charting.obj
 0001:00006cf0       _SetupProgramUsageData     00407cf0 f   charting.obj
 0001:00007690       _ProgramUsageChartWindowProc@16 00408690 f   charting.obj
 0001:00007f50       _AddSignalChartData        00408f50 f   charting.obj
 0001:000081e0       _SignalChartWindowProc@16  004091e0 f   charting.obj
 0001:00008970       _VideoCompositionChartWindowProc@16 00409970 f   charting.obj
 0001:00008f80       _UpdateVideoCompositionChart 00409f80 f   charting.obj
 0001:00009610       _InputMPEG2VideoCompositionESData 0040a610 f   charting.obj
 0001:00009970       _GenerateCAPMT             0040a970 f   CI-CAM.obj
 0001:00009ea0       _GetCIInfo                 0040aea0 f   CI-CAM.obj
 0001:00009ed0       _DeEscapeCIString          0040aed0 f   CI-CAM.obj
 0001:00009f70       _UpdateCIMenu              0040af70 f   CI-CAM.obj
 0001:0000a180       _GetMMIAnswer              0040b180 f   CI-CAM.obj
 0001:0000a2a0       _CIInit                    0040b2a0 f   CI-CAM.obj
 0001:0000a530       _EntryNextCI               0040b530 f   CI-CAM.obj
 0001:0000a690       _ReturnPrevCI              0040b690 f   CI-CAM.obj
 0001:0000a780       _ListViewSubclassProc@16   0040b780 f   CI-CAM.obj
 0001:0000a850       _CAMMenuDlgProc@16         0040b850 f   CI-CAM.obj
 0001:0000ac90       _SendControlResponse       0040bc90 f   ControlServer.obj
 0001:0000ace0       _CS__SendHelp              0040bce0 f   ControlServer.obj
 0001:0000b030       _CS__Program               0040c030 f   ControlServer.obj
 0001:0000b3f0       _CS__TerminateTSReader     0040c3f0 f   ControlServer.obj
 0001:0000b4e0       _CS__PIDs                  0040c4e0 f   ControlServer.obj
 0001:0000b790       _CS__Play                  0040c790 f   ControlServer.obj
 0001:0000baa0       _CS__Stop                  0040caa0 f   ControlServer.obj
 0001:0000bca0       _CS__Reset                 0040cca0 f   ControlServer.obj
 0001:0000be30       _CS__Record                0040ce30 f   ControlServer.obj
 0001:0000c450       _CS__Export                0040d450 f   ControlServer.obj
 0001:0000c7b0       _SendControlserverStatistics 0040d7b0 f   ControlServer.obj
 0001:0000c860       _CS__ManualChannel         0040d860 f   ControlServer.obj
 0001:0000cda0       _CS__GetInfo               0040dda0 f   ControlServer.obj
 0001:0000d310       _CS__Window                0040e310 f   ControlServer.obj
 0001:0000d510       _CS__WriteThumbnail        0040e510 f   ControlServer.obj
 0001:0000dc60       _CS__Graph                 0040ec60 f   ControlServer.obj
 0001:0000dfa0       _CS__Tune                  0040efa0 f   ControlServer.obj
 0001:0000e150       _SendVLCConfigurationInfo  0040f150 f   ControlServer.obj
 0001:0000e200       _SetMenuOption             0040f200 f   ControlServer.obj
 0001:0000e2a0       _CS__Setting               0040f2a0 f   ControlServer.obj
 0001:0000e930       _CS__SetVLC                0040f930 f   ControlServer.obj
 0001:0000ea60       _CS__Source                0040fa60 f   ControlServer.obj
 0001:0000ef80       _CS__Audio                 0040ff80 f   ControlServer.obj
 0001:0000f410       _CS__DiSEqC                00410410 f   ControlServer.obj
 0001:0000f640       _CS__Stall                 00410640 f   ControlServer.obj
 0001:0000f840       _RemoveCommandBackspaces   00410840 f   ControlServer.obj
 0001:0000f920       _ControlServerThread@4     00410920 f   ControlServer.obj
 0001:00010120       _StartControlServer        00411120 f   ControlServer.obj
 0001:000101f0       _TerminateControlServer    004111f0 f   ControlServer.obj
 0001:00010260       _GetHufByte                00411260 f   dn_huffman.obj
 0001:000103b0       _GetRLEByte                004113b0 f   dn_huffman.obj
 0001:000104f0       _HufDecmpKernel            004114f0 f   dn_huffman.obj
 0001:000105f0       _DcpString                 004115f0 f   dn_huffman.obj
 0001:00010770       _GetEITOffset              00411770 f   EPGGrid.obj
 0001:00010830       _GetMaxEITChannels         00411830 f   EPGGrid.obj
 0001:000108e0       _SetupVerticalScrollMax    004118e0 f   EPGGrid.obj
 0001:00010970       _IsRecordingScheduled      00411970 f   EPGGrid.obj
 0001:00010b30       _CheckForDuplicateRecording 00411b30 f   EPGGrid.obj
 0001:00010ca0       _DrawEPGScheduledIcon      00411ca0 f   EPGGrid.obj
 0001:00010e40       _EPGPaint                  00411e40 f   EPGGrid.obj
 0001:00014070       _UpdateHorizontalScroll    00415070 f   EPGGrid.obj
 0001:00014130       _UpdateVerticalScroll      00415130 f   EPGGrid.obj
 0001:000141a0       _SetupGridFonts            004151a0 f   EPGGrid.obj
 0001:000143e0       _SetupHorizontalScrollRange 004153e0 f   EPGGrid.obj
 0001:00014460       _SetEPGOffsetNearChannel   00415460 f   EPGGrid.obj
 0001:000145c0       _SearchNextEPGEntry        004155c0 f   EPGGrid.obj
 0001:00014b10       _EPGGotoDateDlgProc@16     00415b10 f   EPGGrid.obj
 0001:00014d10       _EPGFindStringDlgProc@16   00415d10 f   EPGGrid.obj
 0001:00015050       _GetEPGScheduleDisplayInfo 00416050 f   EPGGrid.obj
 0001:000153c0       _UpdateManualRecordingEndDateTime 004163c0 f   EPGGrid.obj
 0001:00015610       _ManualEPGNoSourceParametersDlgProc@16 00416610 f   EPGGrid.obj
 0001:00015700       _CheckForBadFilenameChars  00416700 f   EPGGrid.obj
 0001:000157e0       _SpecificLocalTimeToSystemTime 004167e0 f   EPGGrid.obj
 0001:00015870       _ScheduleManualRecording   00416870 f   EPGGrid.obj
 0001:00015f70       _EPGManualScheduleDlgProc@16 00416f70 f   EPGGrid.obj
 0001:000167b0       _EPGShowScheduleDlgProc@16 004177b0 f   EPGGrid.obj
 0001:00016b70       _EPGGotoChannelDlgProc@16  00417b70 f   EPGGrid.obj
 0001:00016e70       _EPGSchedulerWarningDlgProc@16 00417e70 f   EPGGrid.obj
 0001:00016f60       _SchedulerStartup          00417f60 f   EPGGrid.obj
 0001:000171a0       _EventCurrentlyRunning     004181a0 f   EPGGrid.obj
 0001:000172a0       _GetRecordTaskName         004182a0 f   EPGGrid.obj
 0001:00017450       _CheckEPGRecordSettings    00418450 f   EPGGrid.obj
 0001:00017530       _ScheduleRecording         00418530 f   EPGGrid.obj
 0001:00018400       _DeletedSelectedScheduledRecording 00419400 f   EPGGrid.obj
 0001:00018500       _EPGScheduleSettingsDlgProc@16 00419500 f   EPGGrid.obj
 0001:00018740       _LoadEPGMaps               00419740 f   EPGGrid.obj
 0001:000188f0       _EPGridWndProc@16          004198f0 f   EPGGrid.obj
 0001:0001a660       _DecodeDVBLeakRate         0041b660 f   formatter.obj
 0001:0001a950       _FormatDVBSCodeRate        0041b950 f   formatter.obj
 0001:0001ab10       _FormatDVBTCodeRate        0041bb10 f   formatter.obj
 0001:0001ac10       _FormatDVBTGuardInterval   0041bc10 f   formatter.obj
 0001:0001acd0       _FormatDVBTTransmissionMode 0041bcd0 f   formatter.obj
 0001:0001ad80       _FormatPolarity            0041bd80 f   formatter.obj
 0001:0001aec0       _FormatDVBSModulation      0041bec0 f   formatter.obj
 0001:0001b070       _DecodeStreamType          0041c070 f   formatter.obj
 0001:0001b780       _DecodeServiceType         0041c780 f   formatter.obj
 0001:0001bb40       _DecodePrivateDataSpecifierDescriptor 0041cb40 f   formatter.obj
 0001:0001c0c0       _FormatDVBCModulation      0041d0c0 f   formatter.obj
 0001:0001c1e0       _FormatDVBCOuterFEC        0041d1e0 f   formatter.obj
 0001:0001c290       _FormatDVBCInnerFEC        0041d290 f   formatter.obj
 0001:0001c3f0       _FormatDVBTBandwidth       0041d3f0 f   formatter.obj
 0001:0001c4b0       _FormatDVBTConstellation   0041d4b0 f   formatter.obj
 0001:0001c560       _FormatDVBTHierarchyInformation 0041d560 f   formatter.obj
 0001:0001c6c0       _DecodeDescriptorNames     0041d6c0 f   formatter.obj
 0001:0001d850       _FormatCASystemName        0041e850 f   formatter.obj
 0001:0001e240       _DecodeDTSAudioDescriptor  0041f240 f   formatter.obj
 0001:0001e710       _DecodeVBIDataServiceDescription 0041f710 f   formatter.obj
 0001:0001e860       _QuickFormatNIT            0041f860 f   formatter.obj
 0001:0001ebc0       _DecodeCADescriptor        0041fbc0 f   formatter.obj
 0001:0001ecd0       _DecodeComponentAndStreamContent 0041fcd0 f   formatter.obj
 0001:0001f290       _DecodeComponentDescriptor 00420290 f   formatter.obj
 0001:0001f410       _DecodeContentNibbles      00420410 f   formatter.obj
 0001:0001fbb0       _DecodeContentDescriptor   00420bb0 f   formatter.obj
 0001:0001fcf0       _DecodeParentalRatingDescriptor 00420cf0 f   formatter.obj
 0001:0001fe90       _DecodeMultilingualComponentDescriptor 00420e90 f   formatter.obj
 0001:0001fff0       _DecodeATSCAC3Descriptor   00420ff0 f   formatter.obj
 0001:00020040       _DecodeATSCContentAdvisoryDescriptor 00421040 f   formatter.obj
 0001:00020380       _DecodeATSCCaptionServceDescriptor 00421380 f   formatter.obj
 0001:000205d0       _FormatDefaultEITDescriptor 004215d0 f   formatter.obj
 0001:00020760       _DecodeAncilliaryDataDescriptor 00421760 f   formatter.obj
 0001:000208a0       _DecodeAnnouncementSupportDescriptor 004218a0 f   formatter.obj
 0001:00020db0       _DecodeMosaicCellCount     00421db0 f   formatter.obj
 0001:00020e50       _DecodeFrameRate           00421e50 f   formatter.obj
 0001:00020fd0       _DecodeMPEG2Descriptor     00421fd0 f   formatter.obj
 0001:00026fc0       _FormatATSCModulationMode  00427fc0 f   formatter.obj
 0001:000271b0       _DecodeFEC                 004281b0 f   formatter.obj
 0001:00027360       _GetTableDescription       00428360 f   formatter.obj
 0001:00027880       _FormatNITEntry            00428880 f   formatter.obj
 0001:00028160       _SortEITCompare            00429160 f   formatter.obj
 0001:00028200       _GetEITSource              00429200 f   formatter.obj
 0001:00028340       _FormatEITEntry            00429340 f   formatter.obj
 0001:00029a90       _FormatCAT                 0042aa90 f   formatter.obj
 0001:00029c10       _FormatCVCT                0042ac10 f   formatter.obj
 0001:0002a2f0       _FormatBAT                 0042b2f0 f   formatter.obj
 0001:0002a730       _FormatMGT                 0042b730 f   formatter.obj
 0001:0002ad70       _FormatSITEntry            0042bd70 f   formatter.obj
 0001:0002afb0       _FormatRRTEntry            0042bfb0 f   formatter.obj
 0001:0002b1f0       _FormatCDTEntry            0042c1f0 f   formatter.obj
 0001:0002b380       _FormatDVBTOT              0042c380 f   formatter.obj
 0001:0002b4d0       _FormatTDTEntry            0042c4d0 f   formatter.obj
 0001:0002bb90       _FormatMMTEntry            0042cb90 f   formatter.obj
 0001:0002c150       _FormatPMTEntry            0042d150 f   formatter.obj
 0001:0002c650       _FormatAACAudioParse       0042d650 f   formatter.obj
 0001:0002c820       _FormatH264VideoParse      0042d820 f   formatter.obj
 0001:0002c8a0       _FormatMPEG4VideoParse     0042d8a0 f   formatter.obj
 0001:0002c920       _GetMPEG2VideoAspectRation 0042d920 f   formatter.obj
 0001:0002ca20       _GetMPEG2FrameRate         0042da20 f   formatter.obj
 0001:0002cba0       _GetMPEG2ChromaFormat      0042dba0 f   formatter.obj
 0001:0002cc60       _GetAFDFormat              0042dc60 f   formatter.obj
 0001:0002ce10       _FormatMPEGVideoParse      0042de10 f   formatter.obj
 0001:0002d0b0       _GetMPEGAudioMode          0042e0b0 f   formatter.obj
 0001:0002d170       _GetMPEGAudioSamplingFrequency 0042e170 f   formatter.obj
 0001:0002d220       _FormatMPEGAudioParse      0042e220 f   formatter.obj
 0001:0002d360       _GetAC3fscod               0042e360 f   formatter.obj
 0001:0002d410       _GetAC3bsmod               0042e410 f   formatter.obj
 0001:0002d5a0       _GetAC3acmod               0042e5a0 f   formatter.obj
 0001:0002d6e0       _GetAC3cmixlev             0042e6e0 f   formatter.obj
 0001:0002d7b0       _GetAC3surmixlev           0042e7b0 f   formatter.obj
 0001:0002d880       _GetAC3dsurmod             0042e880 f   formatter.obj
 0001:0002d950       _FormatAC3Parse            0042e950 f   formatter.obj
 0001:0002dd50       _FormatESEntry             0042ed50 f   formatter.obj
 0001:0002e2f0       _GetTSIDName               0042f2f0 f   formatter.obj
 0001:0002e3b0       _FormatSDTEntry            0042f3b0 f   formatter.obj
 0001:0002eb60       _FormatPAT                 0042fb60 f   formatter.obj
 0001:0002f0d0       _H264DecoderThread@4       004300d0 f   H264Decoder.obj
 0001:0002f690       _ReadFromH264ESPipe        00430690 f   H264Decoder.obj
 0001:0002f720       _H264DecoderThread_DEBUG@4 00430720 f   H264Decoder.obj
 0001:0002f920       _Write_Log                 00430920 f   MDInterface.obj
 0001:0002f9c0       _MD__Shutdown              004309c0 f   MDInterface.obj
 0001:0002fa50       _MD__Unload_External_Dll   00430a50 f   MDInterface.obj
 0001:0002fd20       _MD__Send_External_DLL_Menu_Cmd 00430d20 f   MDInterface.obj
 0001:0002fda0       _MD__Load_External_Dll     00430da0 f   MDInterface.obj
 0001:000305d0       _MD__StartPluginsRunning   004315d0 f   MDInterface.obj
 0001:00030880       _MD__StartFilter           00431880 f   MDInterface.obj
 0001:00030a00       _MD__StopFilter            00431a00 f   MDInterface.obj
 0001:00030ae0       _MD__ExternCommandDispatch 00431ae0 f   MDInterface.obj
 0001:00031860       _MD__ChannelChange         00432860 f   MDInterface.obj
 0001:00031a70       _PotentiallyDecrypt        00432a70 f   MDInterface.obj
 0001:00031b90       _FFDecrypt                 00432b90 f   MDInterface.obj
 0001:00031cb0       _NullKey                   00432cb0 f   MDInterface.obj
 0001:00031d10       _MD__DataToFilters         00432d10 f   MDInterface.obj
 0001:000323c0       _MD__IPDataToFilters       004333c0 f   MDInterface.obj
 0001:00032440       _save_ppm                  00433440 f   MPEG2Decoder.obj
 0001:00032520       _MPEG2DecoderThread@4      00433520 f   MPEG2Decoder.obj
 0001:00032d70       _MPEG4DecoderThread@4      00433d70 f   MPEG4Decoder.obj
 0001:00033230       _MPEGAInit                 00434230 f   MPEGAudio.obj
 0001:000332c0       _MPEGADeInit               004342c0 f   MPEGAudio.obj
 0001:00033320       _MPEGAudioDecoderThread@4  00434320 f   MPEGAudio.obj
 0001:00033980       _ParseATSCCETT             00434980 f   parser.obj
 0001:00033bf0       _ParseATSCEITPacket        00434bf0 f   parser.obj
 0001:00034700       _ParseATSCETTPacket        00435700 f   parser.obj
 0001:00034b50       _ParseDVBEITPacket         00435b50 f   parser.obj
 0001:00035e70       _ParseDVBBAT               00436e70 f   parser.obj
 0001:00036500       _ParseDVBSDTPacket         00437500 f   parser.obj
 0001:00036d20       _ParseDCIIPMTTypeThing     00437d20 f   parser.obj
 0001:00037340       _ParseDCIIProgramNameMessage 00438340 f   parser.obj
 0001:00037510       _ParsePMTPacket            00438510 f   parser.obj
 0001:00037fe0       _ParseIPPacket             00438fe0 f   parser.obj
 0001:00038d30       _ParsePATPacket            00439d30 f   parser.obj
 0001:00039150       _ParsePSIPPacket           0043a150 f   parser.obj
 0001:0003ad60       _ParseCATPacket            0043bd60 f   parser.obj
 0001:0003afa0       _ParseDCIINetworkPacket    0043bfa0 f   parser.obj
 0001:0003c210       _ParseDVBRSTPacket         0043d210 f   parser.obj
 0001:0003c360       _ParseISDBBITPacket        0043d360 f   parser.obj
 0001:0003c7b0       _ParseDVBTDTPacket         0043d7b0 f   parser.obj
 0001:0003cc10       _ParseDVBNITPacket         0043dc10 f   parser.obj
 0001:0003dad0       _ParseDCIIECMPacket        0043ead0 f   parser.obj
 0001:0003de00       _QuickParseUserData        0043ee00 f   parser.obj
 0001:0003e260       _ParseDVBINTPacket         0043f260 f   parser.obj
 0001:0003e3d0       _SendIACEmulatorName       0043f3d0 f   RokuTelnetInterface.obj
 0001:0003e4f0       _AnswerIAC                 0043f4f0 f   RokuTelnetInterface.obj
 0001:0003ea80       _ReadTelnetByte            0043fa80 f   RokuTelnetInterface.obj
 0001:0003ec00       _SendTelnetString          0043fc00 f   RokuTelnetInterface.obj
 0001:0003ecc0       _RokuTraceDlgProc@16       0043fcc0 f   RokuTelnetInterface.obj
 0001:0003ee10       _RokuTraceWindowThread@4   0043fe10 f   RokuTelnetInterface.obj
 0001:0003ef00       _AddTrace                  0043ff00 f   RokuTelnetInterface.obj
 0001:0003f020       _RokuTelnetControlThread@4 00440020 f   RokuTelnetInterface.obj
 0001:0003f6e0       _extract_seq               004406e0 f   sky_epg.obj
 0001:0003f720       _getGenre                  00440720 f   sky_epg.obj
 0001:0003f750       _getRating                 00440750 f   sky_epg.obj
 0001:0003f780       _getSubGenre               00440780 f   sky_epg.obj
 0001:0003f840       _getDay                    00440840 f   sky_epg.obj
 0001:0003f8c0       _getStartTime              004408c0 f   sky_epg.obj
 0001:0003f8f0       _getEndTime                004408f0 f   sky_epg.obj
 0001:0003f920       _dump_raw_bytes            00440920 f   sky_epg.obj
 0001:0003f950       _dump_table_b5             00440950 f   sky_epg.obj
 0001:0003fdf0       _dump_table_b9             00440df0 f   sky_epg.obj
 0001:0003ffb0       _dump_table_b0             00440fb0 f   sky_epg.obj
 0001:00040070       _dump_table_f0             00441070 f   sky_epg.obj
 0001:00040130       _dump_table_05             00441130 f   sky_epg.obj
 0001:00040160       _dump_table_06             00441160 f   sky_epg.obj
 0001:00040190       _dump_table_bc             00441190 f   sky_epg.obj
 0001:00040240       _dump_table_30             00441240 f   sky_epg.obj
 0001:000402c0       _dump_table_31             004412c0 f   sky_epg.obj
 0001:00040340       _decode_frame              00441340 f   sky_epg.obj
 0001:00040610       _ParseSkyEPG               00441610 f   sky_epg.obj
 0001:00040820       _UpdateSkyEPGMap           00441820 f   sky_epg.obj
 0001:00040c00       _sky_decode                00441c00 f   sky_huffman.obj
 0001:00040e20       _StartIncomingTSDataThread 00441e20 f   TSReader.obj
 0001:00040ef0       _SaveSettings_New          00441ef0 f   TSReader.obj
 0001:00041010       _SaveSettings              00442010 f   TSReader.obj
 0001:000418c0       _myRegQueryDWORDValue      004428c0 f   TSReader.obj
 0001:00041930       _LoadSettings_New          00442930 f   TSReader.obj
 0001:00041a60       _LoadSettings              00442a60 f   TSReader.obj
 0001:00042e00       _GetTSRVersion             00443e00 f   TSReader.obj
 0001:00042e90       _FormatTooltipPID          00443e90 f   TSReader.obj
 0001:00042ef0       _ContainsRC                00443ef0 f   TSReader.obj
 0001:00042fb0       _GetNextESPID              00443fb0 f   TSReader.obj
 0001:00043e70       _DecodeH264Video           00444e70 f   TSReader.obj
 0001:000441e0       _DecodeMPEG4Video          004451e0 f   TSReader.obj
 0001:00044540       _DecodeMPEG2Video          00445540 f   TSReader.obj
 0001:00044cc0       _DecodeAC3AudioHeader      00445cc0 f   TSReader.obj
 0001:00045230       _DecodeTeletextVBIHeader   00446230 f   TSReader.obj
 0001:00045a70       _DecodeMPEGAACAudio        00446a70 f   TSReader.obj
 0001:00045db0       _DecodeMPEGAudioHeader     00446db0 f   TSReader.obj
 0001:00046280       _AutoRecordPIDs            00447280 f   TSReader.obj
 0001:000462d0       _AutoRecord                004472d0 f   TSReader.obj
 0001:00046490       _SortPMTCompareFunction    00447490 f   TSReader.obj
 0001:000464f0       _AddNumberFormat           004474f0 f   TSReader.obj
 0001:00046590       _GetCurrentEITEvent        00447590 f   TSReader.obj
 0001:00046830       _GenerateSplitFilename     00447830 f   TSReader.obj
 0001:00046ff0       _UpdateSDTContinuity       00447ff0 f   TSReader.obj
 0001:00047070       _UpdatePATContinuity       00448070 f   TSReader.obj
 0001:000470f0       _UpdatePMTContinuity       004480f0 f   TSReader.obj
 0001:000471d0       _WritePATandPMTandSDT      004481d0 f   TSReader.obj
 0001:00047470       _PSWarningDlgProc@16       00448470 f   TSReader.obj
 0001:00047590       _UpdateFilenameFormatPreview 00448590 f   TSReader.obj
 0001:00047630       _FileNameFormatDlgProc@16  00448630 f   TSReader.obj
 0001:00047860       _LoadPIDList               00448860 f   TSReader.obj
 0001:00047a30       _LoadPIDListDialog         00448a30 f   TSReader.obj
 0001:00047b20       _SavePIDList               00448b20 f   TSReader.obj
 0001:00047cf0       _SavePIDListDialog         00448cf0 f   TSReader.obj
 0001:00047df0       _RecordDlgProc@16          00448df0 f   TSReader.obj
 0001:00049f10       _VerifySelectedProgram     0044af10 f   TSReader.obj
 0001:00049f90       _BuildTSSection            0044af90 f   TSReader.obj
 0001:0004a140       _GetECMPID                 0044b140 f   TSReader.obj
 0001:0004a4e0       _SetupCAESInfo             0044b4e0 f   TSReader.obj
 0001:0004a840       _SetupPriorToProgramRecording 0044b840 f   TSReader.obj
 0001:0004c3e0       _EnableDisableVLCMenuItems 0044d3e0 f   TSReader.obj
 0001:0004c450       _EnableOrDisableStreamMenuItems 0044d450 f   TSReader.obj
 0001:0004c5f0       _VLCConnectionDlgProc@16   0044d5f0 f   TSReader.obj
 0001:0004c750       _LaunchVLCThread@4         0044d750 f   TSReader.obj
 0001:0004c7c0       _EITLanguageSettingsDlgProc@16 0044d7c0 f   TSReader.obj
 0001:0004ca60       _StradisSettingsDlgProc@16 0044da60 f   TSReader.obj
 0001:0004cc70       _StreamDecoder             0044dc70 f   TSReader.obj
 0001:0004d9a0       _GetRecordStartTime        0044e9a0 f   TSReader.obj
 0001:0004da10       _RecordStream              0044ea10 f   TSReader.obj
 0001:0004de50       _CheckForFileSplit         0044ee50 f   TSReader.obj
 0001:0004e280       _RecordAllTS               0044f280 f   TSReader.obj
 0001:0004e450       _UpdateInputActivityPosition 0044f450 f   TSReader.obj
 0001:0004e570       _ForcePID                  0044f570 f   TSReader.obj
 0001:0004e5d0       _WaitForNextTSBuffer       0044f5d0 f   TSReader.obj
 0001:0004e740       _RecordOutstandingTSBuffers 0044f740 f   TSReader.obj
 0001:0004eb30       _CheckPIDTEI               0044fb30 f   TSReader.obj
 0001:0004ec10       _CheckPIDContinuity        0044fc10 f   TSReader.obj
 0001:0004ef00       _TimestampRecordPID        0044ff00 f   TSReader.obj
 0001:0004f1b0       _DecodeDSSRTC              004501b0 f   TSReader.obj
 0001:0004f240       _DSSMuxrateProcessing      00450240 f   TSReader.obj
 0001:0004f770       _MPEG2MuxrateProcessing    00450770 f   TSReader.obj
 0001:00050080       _BufferRecordChannelData   00451080 f   TSReader.obj
 0001:00050750       _CheckForGeneralESParsing  00451750 f   TSReader.obj
 0001:00050990       _LogTableMonitorData       00451990 f   TSReader.obj
 0001:00050bf0       _CheckForTableMonitor      00451bf0 f   TSReader.obj
 0001:00050ed0       _CheckForESParsing         00451ed0 f   TSReader.obj
 0001:00051b10       _GetNextECMPID             00452b10 f   TSReader.obj
 0001:00051e40       _PMTParsingComplete        00452e40 f   TSReader.obj
 0001:00052160       _SetupForNextPMTEntry      00453160 f   TSReader.obj
 0001:00052490       _PostPATProcessing         00453490 f   TSReader.obj
 0001:00052a10       _CheckPATVersionNumber     00453a10 f   TSReader.obj
 0001:00052bd0       _DispatchSIPacket          00453bd0 f   TSReader.obj
 0001:000535f0       _PMTListenPMTParser        004545f0 f   TSReader.obj
 0001:00053890       _PMTListenParser           00454890 f   TSReader.obj
 0001:00053bb0       _BufferSections            00454bb0 f   TSReader.obj
 0001:00054030       _ParseIncomingTSDataThread@4 00455030 f   TSReader.obj
 0001:00056c40       _CleanupIPParsingThread    00457c40 f   TSReader.obj
 0001:00056d60       _ReadPersistantEPG         00457d60 f   TSReader.obj
 0001:00057090       _WritePersistantEPG        00458090 f   TSReader.obj
 0001:000573e0       _CleanupMPEGParsingThread  004583e0 f   TSReader.obj
 0001:00057f20       _AddSITreeIcon             00458f20 f   TSReader.obj
 0001:00057fd0       _InitSITreeViewImageLists  00458fd0 f   TSReader.obj
 0001:00058170       _AddItemToSITree           00459170 f   TSReader.obj
 0001:000582a0       _GetLogicalChannelNumber   004592a0 f   TSReader.obj
 0001:000582f0       _SortPIDsByPackets         004592f0 f   TSReader.obj
 0001:00058380       _SortPIDsByPID             00459380 f   TSReader.obj
 0001:000583e0       _GetPMTOffsetFromThumbnailScrollOffset 004593e0 f   TSReader.obj
 0001:000584e0       _LocateCurrentProgram      004594e0 f   TSReader.obj
 0001:000588e0       _GetNextThumbnailHeight    004598e0 f   TSReader.obj
 0001:000589e0       _DrawThumbnail             004599e0 f   TSReader.obj
 0001:000599a0       _UpdateVideoPix            0045a9a0 f   TSReader.obj
 0001:0005a1c0       _CreateBrushes             0045b1c0 f   TSReader.obj
 0001:0005a320       _GetSourceInfoLine         0045b320 f   TSReader.obj
 0001:0005a800       _UpdateSourceInfo          0045b800 f   TSReader.obj
 0001:0005aad0       _UpdatePIDChart            0045bad0 f   TSReader.obj
 0001:0005b8c0       _ForcePIDChartRepaint      0045c8c0 f   TSReader.obj
 0001:0005b9c0       _SortMACsByDataCompareFunction 0045c9c0 f   TSReader.obj
 0001:0005ba50       _SortMACsByPacketsCompareFunction 0045ca50 f   TSReader.obj
 0001:0005bab0       _DecodeIPParserPID         0045cab0 f   TSReader.obj
 0001:0005bfc0       _HandleTreeClickIPDVB      0045cfc0 f   TSReader.obj
 0001:0005c300       _HandleTreeClickMPEG2      0045d300 f   TSReader.obj
 0001:0005dd80       _SIParserMsgNotify         0045ed80 f   TSReader.obj
 0001:0005edf0       _UpdatePIDChartingData     0045fdf0 f   TSReader.obj
 0001:0005f3d0       _ShowStatistics            004603d0 f   TSReader.obj
 0001:0005f730       _UpdateStatistics          00460730 f   TSReader.obj
 0001:00060540       _ExportSIHookProc@16       00461540 f   TSReader.obj
 0001:00060bc0       _XMLTVExport               00461bc0 f   TSReader.obj
 0001:00060cc0       _GetPIDTooltipInfo         00461cc0 f   TSReader.obj
 0001:00061fd0       _GetBouquetName            00462fd0 f   TSReader.obj
 0001:000620b0       _WriteAudioSampleXMLData   004630b0 f   TSReader.obj
 0001:00062300       _XMLExport__WriteESParserData 00463300 f   TSReader.obj
 0001:00063190       _XMLExport                 00464190 f   TSReader.obj
 0001:000694d0       _StartXMLExport            0046a4d0 f   TSReader.obj
 0001:00069650       _WriteHTMLStatistics       0046a650 f   TSReader.obj
 0001:00069950       _HTMLExport                0046a950 f   TSReader.obj
 0001:0006b4e0       _SIParserExport            0046c4e0 f   TSReader.obj
 0001:0006b660       _ResetTreeViewHandles      0046c660 f   TSReader.obj
 0001:0006b7e0       _ResetParserPackets        0046c7e0 f   TSReader.obj
 0001:0006b8d0       _ResetParserCRCs           0046c8d0 f   TSReader.obj
 0001:0006b9c0       _ResetPIDChart             0046c9c0 f   TSReader.obj
 0001:0006bba0       _ThumbnailThreadsRunning   0046cba0 f   TSReader.obj
 0001:0006bc50       _WaitForThumbnailThread    0046cc50 f   TSReader.obj
 0001:0006bd30       _SetupForNewStream         0046cd30 f   TSReader.obj
 0001:0006c680       _RetuneForSIParser         0046d680 f   TSReader.obj
 0001:0006c730       _GetPercentageOfTransportStream 0046d730 f   TSReader.obj
 0001:0006c7c0       _SIParserExportNIT         0046d7c0 f   TSReader.obj
 0001:0006d8d0       _HandleThumbnailScroll     0046e8d0 f   TSReader.obj
 0001:0006dbd0       _HandlePIDScroll           0046ebd0 f   TSReader.obj
 0001:0006ded0       _FormatIPv6Address         0046eed0 f   TSReader.obj
 0001:0006df90       _HandleWMUSER2IPMode       0046ef90 f   TSReader.obj
 0001:0006e3d0       _HandleWMUSER2MPEG2Mode    0046f3d0 f   TSReader.obj
 0001:000713a0       _UpdateRecordPIDsOneFileOptions 004723a0 f   TSReader.obj
 0001:00071490       _IPDVBPIDSelectDlgProc@16  00472490 f   TSReader.obj
 0001:00071fd0       _AboutDlgProc@16           00472fd0 f   TSReader.obj
 0001:00072650       _crc16                     00473650 f   TSReader.obj
 0001:000726d0       _LicenseDlgProc@16         004736d0 f   TSReader.obj
 0001:000728b0       _RestartTSReader_Stop      004738b0 f   TSReader.obj
 0001:00072c70       _SaveManualChannels        00473c70 f   TSReader.obj
 0001:00073020       _RestartTSReader_Start     00474020 f   TSReader.obj
 0001:000730c0       _RestartTSReader           004740c0 f   TSReader.obj
 0001:00073140       _UpdateThreadDialogPriorities 00474140 f   TSReader.obj
 0001:00073630       _SetupMenu                 00474630 f   TSReader.obj
 0001:00073990       _SetupVLCMenuNames         00474990 f   TSReader.obj
 0001:00073b90       _IPDVBModeOn               00474b90 f   TSReader.obj
 0001:00073d40       _IPDVBModeOff              00474d40 f   TSReader.obj
 0001:00073f90       _ToggleIPDVBMode           00474f90 f   TSReader.obj
 0001:00074030       _SaveThumbnails            00475030 f   TSReader.obj
 0001:00074530       _ThumbnailRefreshRateDlgProc@16 00475530 f   TSReader.obj
 0001:00074780       _AutoRestartDlgProc@16     00475780 f   TSReader.obj
 0001:00074a60       _ConfirmATSCRCDlgProc@16   00475a60 f   TSReader.obj
 0001:00074d10       _GetSourceDispInfo         00475d10 f   TSReader.obj
 0001:00074dd0       _BrowseIPSaveFolder        00475dd0 f   TSReader.obj
 0001:00074ed0       _IPSettingsDlgProc@16      00475ed0 f   TSReader.obj
 0001:00075040       _PIDListDlgProc@16         00476040 f   TSReader.obj
 0001:000752b0       _ControlServerDlgProc@16   004762b0 f   TSReader.obj
 0001:000754c0       _BufferSizesDlgProc@16     004764c0 f   TSReader.obj
 0001:00075670       _DeleteObsoleteSourceModules 00476670 f   TSReader.obj
 0001:00075740       _PopulateSourceList        00476740 f   TSReader.obj
 0001:00075a60       _SourceDlgProc@16          00476a60 f   TSReader.obj
 0001:00076070       _PopulateManualChannelList 00477070 f   TSReader.obj
 0001:00076170       _GetManualChannelDisplayInfo 00477170 f   TSReader.obj
 0001:00076510       _ManualChannelEditDialogProc@16 00477510 f   TSReader.obj
 0001:00077350       _GetManualChannelListSelected 00478350 f   TSReader.obj
 0001:00077410       _ManualChannelsDialogProc@16 00478410 f   TSReader.obj
 0001:00077a20       _DefineManualChannels      00478a20 f   TSReader.obj
 0001:00077a80       _LoadManualChannels        00478a80 f   TSReader.obj
 0001:00077e50       _LoadManualChannelsMenu    00478e50 f   TSReader.obj
 0001:00077f50       _ToggleMenuOption          00478f50 f   TSReader.obj
 0001:00077ff0       _EnableDisablePIDChartButtons 00478ff0 f   TSReader.obj
 0001:000780d0       _UpdateVLCConfigDisplay    004790d0 f   TSReader.obj
 0001:00078180       _GetVLCConfig              00479180 f   TSReader.obj
 0001:00078210       _LoadSerialPortCombo       00479210 f   TSReader.obj
 0001:00078380       _InitSerialControlDialog   00479380 f   TSReader.obj
 0001:000784b0       _SerialControlDlgProc@16   004794b0 f   TSReader.obj
 0001:00078700       _VLCSettings_WM_COMMAND    00479700 f   TSReader.obj
 0001:00078b40       _VLCSettingsDlgProc@16     00479b40 f   TSReader.obj
 0001:00078ce0       _XNSServerDlgProc@16       00479ce0 f   TSReader.obj
 0001:00078e40       _VLCWarningDlgProc@16      00479e40 f   TSReader.obj
 0001:00078f60       _PIDWarningDlgProc@16      00479f60 f   TSReader.obj
 0001:00079040       _LoadPlugins               0047a040 f   TSReader.obj
 0001:00079130       _CreateTooltip             0047a130 f   TSReader.obj
 0001:000791e0       _ResizeStatusbar           0047a1e0 f   TSReader.obj
 0001:000792b0       _CreateStatusBar           0047a2b0 f   TSReader.obj
 0001:00079650       _DeleteStatusBar           0047a650 f   TSReader.obj
 0001:000796f0       _RokuHD1000Settings@16     0047a6f0 f   TSReader.obj
 0001:00079980       _GetDescriptorListDispInfo 0047a980 f   TSReader.obj
 0001:00079c60       _DescriptorUsageDlgProc@16 0047ac60 f   TSReader.obj
 0001:0007a150       _GetBitmapPtr              0047b150 f   TSReader.obj
 0001:0007a1d0       _SetupServiceBitmaps       0047b1d0 f   TSReader.obj
 0001:0007a860       _SetupChannelFont          0047b860 f   TSReader.obj
 0001:0007aa60       _SetupFonts                0047ba60 f   TSReader.obj
 0001:0007ab90       _MouseMoveTooltips         0047bb90 f   TSReader.obj
 0001:0007af70       _AddTaskbarIcon            0047bf70 f   TSReader.obj
 0001:0007b060       _ResizeDialogWindow        0047c060 f   TSReader.obj
 0001:0007b620       _SetupProcessorAffinity    0047c620 f   TSReader.obj
 0001:0007b6d0       _LoadSource                0047c6d0 f   TSReader.obj
 0001:0007bce0       _EnableDisableSourceMenuItems 0047cce0 f   TSReader.obj
 0001:0007be60       _IPDeviceDlgProc@16        0047ce60 f   TSReader.obj
 0001:0007c2c0       _SetTreeViewIcon           0047d2c0 f   TSReader.obj
 0001:0007c350       _CheckWinPcap              0047d350 f   TSReader.obj
 0001:0007c3e0       _ReTransmitSelectedIPStream 0047d3e0 f   TSReader.obj
 0001:0007c530       _ReTransmitSelectedIPMACStream 0047d530 f   TSReader.obj
 0001:0007c5d0       _ReTransmitSelectedIPPIDStream 0047d5d0 f   TSReader.obj
 0001:0007c680       _RecordSelectedIPStream    0047d680 f   TSReader.obj
 0001:0007c950       _RecordSelectedIPMACStream 0047d950 f   TSReader.obj
 0001:0007c9e0       _RecordSelectedIPPIDStream 0047d9e0 f   TSReader.obj
 0001:0007ca80       _ToggleAlwaysOnTop         0047da80 f   TSReader.obj
 0001:0007cb10       _CheckThumbnailDisplayOrderMenu 0047db10 f   TSReader.obj
 0001:0007cba0       _CheckThumbnailSizeMenu    0047dba0 f   TSReader.obj
 0001:0007cc60       _SetInitialMenuStates      0047dc60 f   TSReader.obj
 0001:0007d1a0       _SetupChartClassName       0047e1a0 f   TSReader.obj
 0001:0007d1f0       _CloseExistingChart        0047e1f0 f   TSReader.obj
 0001:0007d2e0       _GetRetuneCommandLineParameters 0047e2e0 f   TSReader.obj
 0001:0007da60       _RetuneToThisChannel       0047ea60 f   TSReader.obj
 0001:0007daf0       _RetuneToThisMux           0047eaf0 f   TSReader.obj
 0001:0007dc00       _myChooseColor             0047ec00 f   TSReader.obj
 0001:0007dcb0       _ProcessPIDColorButtonClicks 0047ecb0 f   TSReader.obj
 0001:0007de90       _PaintPIDChartColorBoxes   0047ee90 f   TSReader.obj
 0001:0007dfe0       _PIDChartColorsDlgProc@16  0047efe0 f   TSReader.obj
 0001:0007e180       _GraphRefreshRateDlgProc@16 0047f180 f   TSReader.obj
 0001:0007e340       _SetupEPGGridScrollbars    0047f340 f   TSReader.obj
 0001:0007e440       _ProcessEPGScrollbarMessages 0047f440 f   TSReader.obj
 0001:0007e870       _EPGGridSettingsDlgProc@16 0047f870 f   TSReader.obj
 0001:0007f5b0       _ValidateWindowXY          004805b0 f   TSReader.obj
 0001:0007f620       _ShowEPGGrid               00480620 f   TSReader.obj
 0001:0007f880       _CreateChartWindow         00480880 f   TSReader.obj
 0001:0007fb70       _UpdateTableMonitorStats   00480b70 f   TSReader.obj
 0001:0007fe50       _GetTableMonitorDispInfo   00480e50 f   TSReader.obj
 0001:00080200       _PluginSettingsDlgProc@16  00481200 f   TSReader.obj
 0001:00080470       _EmailSetupDlgProc@16      00481470 f   TSReader.obj
 0001:00080820       _EITServerSettingsDlgProc@16 00481820 f   TSReader.obj
 0001:00080be0       _TableViewerDlgProc@16     00481be0 f   TSReader.obj
 0001:000813f0       _IsFileSource              004823f0 f   TSReader.obj
 0001:00081440       _SetPCTimeToStreamTime     00482440 f   TSReader.obj
 0001:00081590       _MainDlgSubclassProc@16    00482590 f   TSReader.obj
 0001:00081660       _AddNetworkToINI           00482660 f   TSReader.obj
 0001:00081ae0       _ExportNITAsINIFiles       00482ae0 f   TSReader.obj
 0001:000820c0       _ExportNITAsINIDlgProc@16  004830c0 f   TSReader.obj
 0001:00082280       _ToggleNetworkIgnore       00483280 f   TSReader.obj
 0001:00082980       _SIParserDlgProc@16        00483980 f   TSReader.obj
 0001:00085750       _SetProcessPriority        00486750 f   TSReader.obj
 0001:000857b0       _DecodeSkyLCN              004867b0 f   TSReader.obj
 0001:00085fe0       _LoadPIDListFile           00486fe0 f   TSReader.obj
 0001:00086120       _LoadManualPIDList         00487120 f   TSReader.obj
 0001:00086210       _GetVideoCompositionPID    00487210 f   TSReader.obj
 0001:000863f0       _CheckNewVersionThread@4   004873f0 f   TSReader.obj
 0001:000867a0       _CheckNewVersionDlgProc@16 004877a0 f   TSReader.obj
 0001:00086d40       _ProcessMain_WM_COMMAND    00487d40 f   TSReader.obj
 0001:00089060       _AutoRecordNoProgramDlgProc@16 0048a060 f   TSReader.obj
 0001:00089180       _MainWndProc@16            0048a180 f   TSReader.obj
 0001:0008a180       _InitVariables             0048b180 f   TSReader.obj
 0001:0008ac60       _DeInitVariables           0048bc60 f   TSReader.obj
 0001:0008af10       _GetCommandLineFilename    0048bf10 f   TSReader.obj
 0001:0008b030       _SkipCommandLineSwitch     0048c030 f   TSReader.obj
 0001:0008b090       _ParseTSReaderCommandLine  0048c090 f   TSReader.obj
 0001:0008cdd0       _LoadOutputModules         0048ddd0 f   TSReader.obj
 0001:0008cf00       _LoadOtherModules          0048df00 f   TSReader.obj
 0001:0008d320       _UnloadOtherModules        0048e320 f   TSReader.obj
 0001:0008d400       _InitApplication           0048e400 f   TSReader.obj
 0001:0008d4c0       _InitInstance              0048e4c0 f   TSReader.obj
 0001:0008d7b0       _BombWarningDlgProc@16     0048e7b0 f   TSReader.obj
 0001:0008d8d0       _DoNormalTSReaderWindow    0048e8d0 f   TSReader.obj
 0001:0008db10       _LoadSerialReceiverDLLs    0048eb10 f   TSReader.obj
 0001:0008dc90       _UnloadSerialReceiverDLLs  0048ec90 f   TSReader.obj
 0001:0008dd00       _WinMain@16                0048ed00 f   TSReader.obj
 0001:0008dfe0       _GetExtensionPtr           0048efe0 f   util.obj
 0001:0008e050       _CopyListControlToClipboard 0048f050 f   util.obj
 0001:0008e1d0       _UpdateMainStatusText      0048f1d0 f   util.obj
 0001:0008e280       _UpdateSecondaryStatusText 0048f280 f   util.obj
 0001:0008e310       _ATSCPIDs                  0048f310 f   util.obj
 0001:0008e380       _DecodeMPEG2PCR            0048f380 f   util.obj
 0001:0008e470       _GetTotalPMTChannels       0048f470 f   util.obj
 0001:0008e4e0       _IsDuplicateDescriptor     0048f4e0 f   util.obj
 0001:0008e570       _FillAddr                  0048f570 f   util.obj
 0001:0008e640       _IsMPEGAudioStream         0048f640 f   util.obj
 0001:0008e6c0       _IsAC3AudioStream          0048f6c0 f   util.obj
 0001:0008e840       _IsPCMAudioStream          0048f840 f   util.obj
 0001:0008e9d0       _IsDTSAudioStream          0048f9d0 f   util.obj
 0001:0008ebb0       _GetDTSAudioDescriptor     0048fbb0 f   util.obj
 0001:0008ed50       _GetDTSFrameSize           0048fd50 f   util.obj
 0001:0008ef30       _IsDataBroadcastStream     0048ff30 f   util.obj
 0001:0008f030       _IsTeleTextOrVBIStream     00490030 f   util.obj
 0001:0008f1a0       _IsSubtitleStream          004901a0 f   util.obj
 0001:0008f2a0       _GetATSCMultipleString     004902a0 f   util.obj
 0001:0008f480       _GetExtendedChannelName    00490480 f   util.obj
 0001:0008f660       _CursorNormal              00490660 f   util.obj
 0001:0008f6c0       _CursorWait                004906c0 f   util.obj
 0001:0008f730       _ConvertDVBBCDTimeOffsets  00490730 f   util.obj
 0001:0008f7e0       _ConvertBCD                004907e0 f   util.obj
 0001:0008f840       _ConvertDVBDate            00490840 f   util.obj
 0001:0008f990       _ConvertDVBTime            00490990 f   util.obj
 0001:0008fa00       _ConvertATSCDateTime       00490a00 f   util.obj
 0001:0008fac0       _EventInPast               00490ac0 f   util.obj
 0001:0008fbe0       _LogDescriptor             00490be0 f   util.obj
 0001:0008fc00       _ExpireOldEIT_debug        00490c00 f   util.obj
 0001:0008fc20       _ExpireOldEITData          00490c20 f   util.obj
 0001:0008fe70       _SaveEPGData               00490e70 f   util.obj
 0001:00090400       _SaveExistingEPGData       00491400 f   util.obj
 0001:00090490       _myGetSaveFileName         00491490 f   util.obj
 0001:00090530       _GetLanguageFromDescriptor 00491530 f   util.obj
 0001:00090640       _StripTrailingSpaces       00491640 f   util.obj
 0001:000906b0       _TrueFalseString           004916b0 f   util.obj
 0001:000906f0       _EscapeReplaceXML          004916f0 f   util.obj
 0001:000908e0       _WriteHTMLLine             004918e0 f   util.obj
 0001:00090990       _WriteHTMLASCII            00491990 f   util.obj
 0001:00090ad0       _GetVideoStreamCount       00491ad0 f   util.obj
 0001:00090c80       _GetProgramCount           00491c80 f   util.obj
 0001:00090d10       _LoadVideoDecoderCrashThumbnail 00491d10 f   util.obj
 0001:00090ff0       _YUVtoRGB                  00491ff0 f   util.obj
 0001:000911d0       _GetNewThumbnailSize       004921d0 f   util.obj
 0001:000912d0       _GenerateSizedThumbnail    004922d0 f   util.obj
 0001:000914f0       _GenerateAudioThumbnail    004924f0 f   util.obj
 0001:000919c0       _SetupScrambledChannelThumbnail 004929c0 f   util.obj
 0001:00091ca0       _GetVideoArea              00492ca0 f   util.obj
 0001:00091dc0       _InvalidateThumbnails      00492dc0 f   util.obj
 0001:00091e50       _ReadFromMPEG2ESPipe       00492e50 f   util.obj
 0001:00091ef0       _DecoderThread_SaveThumbnail 00492ef0 f   util.obj
 0001:00092210       _NeAACDecClose             00493210 f   libfaad2:libfaad2.dll
 0001:00092216       _NeAACDecGetErrorMessage   00493216 f   libfaad2:libfaad2.dll
 0001:0009221c       _NeAACDecDecode            0049321c f   libfaad2:libfaad2.dll
 0001:00092222       _NeAACDecInit              00493222 f   libfaad2:libfaad2.dll
 0001:00092228       _NeAACDecSetConfiguration  00493228 f   libfaad2:libfaad2.dll
 0001:0009222e       _NeAACDecGetCurrentConfiguration 0049322e f   libfaad2:libfaad2.dll
 0001:00092234       _NeAACDecOpen              00493234 f   libfaad2:libfaad2.dll
 0001:00092240       _a52_init                  00493240 f   liba52:parse.obj
 0001:00092310       _a52_samples               00493310 f   liba52:parse.obj
 0001:00092340       _a52_syncinfo              00493340 f   liba52:parse.obj
 0001:000924c0       _a52_frame                 004934c0 f   liba52:parse.obj
 0001:00092860       _a52_dynrng                00493860 f   liba52:parse.obj
 0001:000928b0       _a52_block                 004938b0 f   liba52:parse.obj
 0001:000948c0       _a52_free                  004958c0 f   liba52:parse.obj
 0001:00094910       _a52_imdct_512             00495910 f   liba52:imdct.obj
 0001:00094bd0       _a52_imdct_256             00495bd0 f   liba52:imdct.obj
 0001:000950d0       _a52_imdct_init            004960d0 f   liba52:imdct.obj
 0001:00095dd0       _a52_downmix_init          00496dd0 f   liba52:downmix.obj
 0001:000960b0       _a52_downmix_coeff         004970b0 f   liba52:downmix.obj
 0001:00096690       _a52_downmix               00497690 f   liba52:downmix.obj
 0001:000972e0       _a52_upmix                 004982e0 f   liba52:downmix.obj
 0001:000975a0       _a52_bitstream_set_ptr     004985a0 f   liba52:bitstream.obj
 0001:000976a0       _a52_bitstream_get_bh      004986a0 f   liba52:bitstream.obj
 0001:000977c0       _a52_bitstream_get_bh_2    004987c0 f   liba52:bitstream.obj
 0001:00097870       _a52_bit_allocate          00498870 f   liba52:bit_allocate.obj
 0001:00098230       _ao_drivers                00499230 f   libao:audio_out.obj
 0001:00098260       _float2s16_2               00499260 f   libao:float2s16.obj
 0001:00098340       _float2s16_4               00499340 f   libao:float2s16.obj
 0001:00098420       _float2s16_5               00499420 f   libao:float2s16.obj
 0001:00098530       _channels_multi            00499530 f   libao:float2s16.obj
 0001:00098590       _float2s16_multi           00499590 f   libao:float2s16.obj
 0001:00098bc0       _s16_swap                  00499bc0 f   libao:float2s16.obj
 0001:00098ce0       _ao_float_open             00499ce0 f   libao:audio_out_float.obj
 0001:00098db0       _ao_null_open              00499db0 f   libao:audio_out_null.obj
 0001:00098de0       _ao_null4_open             00499de0 f   libao:audio_out_null.obj
 0001:00098e10       _ao_null6_open             00499e10 f   libao:audio_out_null.obj
 0001:00098e40       _ao_peak_open              00499e40 f   libao:audio_out_peak.obj
 0001:00099070       _ao_peakdolby_open         0049a070 f   libao:audio_out_peak.obj
 0001:000990b0       _ao_aif_open               0049a0b0 f   libao:audio_out_aif.obj
 0001:00099410       _ao_aifdolby_open          0049a410 f   libao:audio_out_aif.obj
 0001:00099450       _ao_wav_open               0049a450 f   libao:audio_out_wav.obj
 0001:00099750       _ao_wavdolby_open          0049a750 f   libao:audio_out_wav.obj
 0001:00099790       _ao_win_open               0049a790 f   libao:audio_out_win.obj
 0001:00099ca0       _ao_windolby_open          0049aca0 f   libao:audio_out_win.obj
 0001:00099ce0       _mad_timer_compare         0049ace0 f   libmad:timer.obj
 0001:00099d50       _mad_timer_negate          0049ad50 f   libmad:timer.obj
 0001:00099db0       _mad_timer_abs             0049adb0 f   libmad:timer.obj
 0001:00099e00       _mad_timer_set             0049ae00 f   libmad:timer.obj
 0001:0009a260       _mad_timer_add             0049b260 f   libmad:timer.obj
 0001:0009a2c0       _mad_timer_multiply        0049b2c0 f   libmad:timer.obj
 0001:0009a370       _mad_timer_count           0049b370 f   libmad:timer.obj
 0001:0009a580       _mad_timer_fraction        0049b580 f   libmad:timer.obj
 0001:0009a620       _mad_timer_string          0049b620 f   libmad:timer.obj
 0001:0009ab00       _mad_synth_init            0049bb00 f   libmad:synth.obj
 0001:0009ab70       _mad_synth_mute            0049bb70 f   libmad:synth.obj
 0001:0009ac80       _mad_synth_frame           0049bc80 f   libmad:synth.obj
 0001:0009d000       _mad_header_init           0049e000 f   libmad:frame.obj
 0001:0009d0a0       _mad_frame_init            0049e0a0 f   libmad:frame.obj
 0001:0009d100       _mad_frame_finish          0049e100 f   libmad:frame.obj
 0001:0009d160       _mad_header_decode         0049e160 f   libmad:frame.obj
 0001:0009da60       _mad_frame_decode          0049ea60 f   libmad:frame.obj
 0001:0009db70       _mad_frame_mute            0049eb70 f   libmad:frame.obj
 0001:0009dc70       _mad_stream_init           0049ec70 f   libmad:stream.obj
 0001:0009dd40       _mad_stream_finish         0049ed40 f   libmad:stream.obj
 0001:0009dd90       _mad_stream_buffer         0049ed90 f   libmad:stream.obj
 0001:0009de00       _mad_stream_skip           0049ee00 f   libmad:stream.obj
 0001:0009de30       _mad_stream_sync           0049ee30 f   libmad:stream.obj
 0001:0009dee0       _mad_stream_errorstr       0049eee0 f   libmad:stream.obj
 0001:0009e0f0       _mad_layer_III             0049f0f0 f   libmad:layer3.obj
 0001:000a2a50       _mad_layer_I               004a3a50 f   libmad:layer12.obj
 0001:000a2f90       _mad_layer_II              004a3f90 f   libmad:layer12.obj
 0001:000a3990       _mad_bit_init              004a4990 f   libmad:bit.obj
 0001:000a39d0       _mad_bit_length            004a49d0 f   libmad:bit.obj
 0001:000a3a20       _mad_bit_nextbyte          004a4a20 f   libmad:bit.obj
 0001:000a3a70       _mad_bit_skip              004a4a70 f   libmad:bit.obj
 0001:000a3b10       _mad_bit_read              004a4b10 f   libmad:bit.obj
 0001:000a3c80       _mad_bit_crc               004a4c80 f   libmad:bit.obj
 0001:000a3e8e       _PEdestroy@4               004a4e8e     PEGRPCS:PEGRPCS.dll
 0001:000a3e94       _PEnset@12                 004a4e94     PEGRPCS:PEGRPCS.dll
 0001:000a3e9a       _PEvsetcell@16             004a4e9a     PEGRPCS:PEGRPCS.dll
 0001:000a3ea0       _PEvsetcellEx@20           004a4ea0     PEGRPCS:PEGRPCS.dll
 0001:000a3ea6       _PEszset@12                004a4ea6     PEGRPCS:PEGRPCS.dll
 0001:000a3eac       _PEvset@16                 004a4eac     PEGRPCS:PEGRPCS.dll
 0001:000a3eb2       _PEcreate@20               004a4eb2     PEGRPCS:PEGRPCS.dll
 0001:000a3eb8       _PEresetimage@12           004a4eb8     PEGRPCS:PEGRPCS.dll
 0001:000a3ebe       _PEreinitialize@4          004a4ebe     PEGRPCS:PEGRPCS.dll
 0001:000a3ec4       _PEvsetEx@24               004a4ec4     PEGRPCS:PEGRPCS.dll
 0001:000a3eca       __ISCloseDest@4            004a4eca f   _isource:_ISource.dll
 0001:000a3ed0       __ISWriteRGBToJPG@24       004a4ed0 f   _isource:_ISource.dll
 0001:000a3ed6       __ISOpenFileDest@4         004a4ed6 f   _isource:_ISource.dll
 0001:000a3edc       __ISDrawRGB@36             004a4edc f   _isource:_ISource.dll
 0001:000a3ee2       __ISOverlayRGBTrans@44     004a4ee2 f   _isource:_ISource.dll
 0001:000a3ee8       __ISDrawTextOnRGB2@32      004a4ee8 f   _isource:_ISource.dll
 0001:000a3eee       __ISHBITMAPToRGB@20        004a4eee f   _isource:_ISource.dll
 0001:000a3ef4       __ISLoadResourceBitmap@12  004a4ef4 f   _isource:_ISource.dll
 0001:000a3efa       __ISResizeRGB@24           004a4efa f   _isource:_ISource.dll
 0001:000a3f00       __ISDecimateRGB@24         004a4f00 f   _isource:_ISource.dll
 0001:000a3f06       __ISCloseSource@4          004a4f06 f   _isource:_ISource.dll
 0001:000a3f0c       __ISReadBMPToRGB@12        004a4f0c f   _isource:_ISource.dll
 0001:000a3f12       __ISOpenFileSource@4       004a4f12 f   _isource:_ISource.dll
 0001:000a3f18       __ISInitialize@4           004a4f18 f   _isource:_ISource.dll
 0001:000a3f20       _mpeg2_info                004a4f20 f   libmpeg2:decode.obj
 0001:000a3f30       _mpeg2_buffer              004a4f30 f   libmpeg2:decode.obj
 0001:000a3f50       _mpeg2_getpos              004a4f50 f   libmpeg2:decode.obj
 0001:000a3f70       _mpeg2_seek_header         004a4f70 f   libmpeg2:decode.obj
 0001:000a4080       _mpeg2_parse               004a5080 f   libmpeg2:decode.obj
 0001:000a4510       _mpeg2_parse_header        004a5510 f   libmpeg2:decode.obj
 0001:000a47d0       _mpeg2_convert             004a57d0 f   libmpeg2:decode.obj
 0001:000a4830       _mpeg2_stride              004a5830 f   libmpeg2:decode.obj
 0001:000a48a0       _mpeg2_set_buf             004a58a0 f   libmpeg2:decode.obj
 0001:000a4930       _mpeg2_custom_fbuf         004a5930 f   libmpeg2:decode.obj
 0001:000a4940       _mpeg2_skip                004a5940 f   libmpeg2:decode.obj
 0001:000a4970       _mpeg2_slice_region        004a5970 f   libmpeg2:decode.obj
 0001:000a49d0       _mpeg2_tag_picture         004a59d0 f   libmpeg2:decode.obj
 0001:000a4a20       _mpeg2_accel               004a5a20 f   libmpeg2:decode.obj
 0001:000a4a70       _mpeg2_reset               004a5a70 f   libmpeg2:decode.obj
 0001:000a4b00       _mpeg2_init                004a5b00 f   libmpeg2:decode.obj
 0001:000a4b70       _mpeg2_close               004a5b70 f   libmpeg2:decode.obj
 0001:000a4ba0       _mpeg2_header_state_init   004a5ba0 f   libmpeg2:header.obj
 0001:000a4ce0       _mpeg2_reset_info          004a5ce0 f   libmpeg2:header.obj
 0001:000a4d00       _mpeg2_header_sequence     004a5d00 f   libmpeg2:header.obj
 0001:000a5100       _mpeg2_header_sequence_finalize 004a6100 f   libmpeg2:header.obj
 0001:000a5530       _mpeg2_header_gop          004a6530 f   libmpeg2:header.obj
 0001:000a55c0       _mpeg2_header_gop_finalize 004a65c0 f   libmpeg2:header.obj
 0001:000a5600       _mpeg2_set_fbuf            004a6600 f   libmpeg2:header.obj
 0001:000a5670       _mpeg2_header_picture_start 004a6670 f   libmpeg2:header.obj
 0001:000a5740       _mpeg2_header_picture      004a6740 f   libmpeg2:header.obj
 0001:000a5ae0       _mpeg2_header_picture_finalize 004a6ae0 f   libmpeg2:header.obj
 0001:000a5f80       _mpeg2_header_extension    004a6f80 f   libmpeg2:header.obj
 0001:000a5fc0       _mpeg2_header_user_data    004a6fc0 f   libmpeg2:header.obj
 0001:000a5ff0       _mpeg2_header_slice_start  004a6ff0 f   libmpeg2:header.obj
 0001:000a6220       _mpeg2_header_end          004a7220 f   libmpeg2:header.obj
 0001:000a6320       _mpeg2_init_fbuf           004a7320 f   libmpeg2:slice.obj
 0001:000ad560       _mpeg2_slice               004ae560 f   libmpeg2:slice.obj
 0001:000b0270       _mpeg2_mc_init             004b1270 f   libmpeg2:motion_comp.obj
 0001:000b1df0       _mpeg2_idct_init           004b2df0 f   libmpeg2:idct.obj
 0001:000b2820       _mpeg2_cpu_state_init      004b3820 f   libmpeg2:cpu_state.obj
 0001:000b2850       _mpeg2_detect_accel        004b3850 f   libmpeg2:cpu_accel.obj
 0001:000b2930       _mpeg2_malloc              004b3930 f   libmpeg2:alloc.obj
 0001:000b2980       _mpeg2_free                004b3980 f   libmpeg2:alloc.obj
 0001:000b29b0       _mpeg2_malloc_hooks        004b39b0 f   libmpeg2:alloc.obj
 0001:000b4050       _mpeg2_idct_copy_mmxext    004b5050 f   libmpeg2:idct_mmx.obj
 0001:000b40d0       _mpeg2_idct_add_mmxext     004b50d0 f   libmpeg2:idct_mmx.obj
 0001:000b42b0       _mpeg2_idct_copy_mmx       004b52b0 f   libmpeg2:idct_mmx.obj
 0001:000b4330       _mpeg2_idct_add_mmx        004b5330 f   libmpeg2:idct_mmx.obj
 0001:000b4400       _mpeg2_idct_mmx_init       004b5400 f   libmpeg2:idct_mmx.obj
 0001:000b8670       _mpeg2convert_rgb32        004b9670 f   libmpeg2convert:rgb.obj
 0001:000b8e80       _mpeg2convert_rgb24        004b9e80 f   libmpeg2convert:rgb.obj
 0001:000b8eb0       _mpeg2convert_rgb16        004b9eb0 f   libmpeg2convert:rgb.obj
 0001:000b8ee0       _mpeg2convert_rgb15        004b9ee0 f   libmpeg2convert:rgb.obj
 0001:000b8f10       _mpeg2convert_rgb8         004b9f10 f   libmpeg2convert:rgb.obj
 0001:000b8f40       _mpeg2convert_bgr32        004b9f40 f   libmpeg2convert:rgb.obj
 0001:000b8f70       _mpeg2convert_bgr24        004b9f70 f   libmpeg2convert:rgb.obj
 0001:000b8fa0       _mpeg2convert_bgr16        004b9fa0 f   libmpeg2convert:rgb.obj
 0001:000b8fd0       _mpeg2convert_bgr15        004b9fd0 f   libmpeg2convert:rgb.obj
 0001:000b9000       _mpeg2convert_bgr8         004ba000 f   libmpeg2convert:rgb.obj
 0001:000b9030       _mpeg2convert_rgb          004ba030 f   libmpeg2convert:rgb.obj
 0001:000b9080       _mpeg2convert_rgb_mmxext   004ba080 f   libmpeg2convert:rgb_mmx.obj
 0001:000b90c0       _mpeg2convert_rgb_mmx      004ba0c0 f   libmpeg2convert:rgb_mmx.obj
 0001:000b9510       _send@16                   004ba510 f   wsock32:WSOCK32.dll
 0001:000b9516       _recv@16                   004ba516 f   wsock32:WSOCK32.dll
 0001:000b951c       _setsockopt@20             004ba51c f   wsock32:WSOCK32.dll
 0001:000b9522       _accept@12                 004ba522 f   wsock32:WSOCK32.dll
 0001:000b9528       _closesocket@4             004ba528 f   wsock32:WSOCK32.dll
 0001:000b952e       _listen@8                  004ba52e f   wsock32:WSOCK32.dll
 0001:000b9534       _bind@12                   004ba534 f   wsock32:WSOCK32.dll
 0001:000b953a       _htons@4                   004ba53a f   wsock32:WSOCK32.dll
 0001:000b9540       _socket@12                 004ba540 f   wsock32:WSOCK32.dll
 0001:000b9546       _connect@12                004ba546 f   wsock32:WSOCK32.dll
 0001:000b954c       _WSAStartup@8              004ba54c f   wsock32:WSOCK32.dll
 0001:000b9552       _WSACleanup@0              004ba552 f   wsock32:WSOCK32.dll
 0001:000b9558       _gethostbyname@4           004ba558 f   wsock32:WSOCK32.dll
 0001:000b955e       _inet_addr@4               004ba55e f   wsock32:WSOCK32.dll
 0001:000b9564       _CloseHandle@4             004ba564 f   kernel32:KERNEL32.dll
 0001:000b956a       _LocalFree@4               004ba56a f   kernel32:KERNEL32.dll
 0001:000b9570       _OutputDebugStringA@4      004ba570 f   kernel32:KERNEL32.dll
 0001:000b9576       _Sleep@4                   004ba576 f   kernel32:KERNEL32.dll
 0001:000b957c       _LocalAlloc@8              004ba57c f   kernel32:KERNEL32.dll
 0001:000b9582       _LeaveCriticalSection@4    004ba582 f   kernel32:KERNEL32.dll
 0001:000b9588       _EnterCriticalSection@4    004ba588 f   kernel32:KERNEL32.dll
 0001:000b958e       _lstrcmpA@8                004ba58e f   kernel32:KERNEL32.dll
 0001:000b9594       _lstrcpyA@8                004ba594 f   kernel32:KERNEL32.dll
 0001:000b959a       _WriteFile@20              004ba59a f   kernel32:KERNEL32.dll
 0001:000b95a0       _GetLocalTime@4            004ba5a0 f   kernel32:KERNEL32.dll
 0001:000b95a6       _lstrcatA@8                004ba5a6 f   kernel32:KERNEL32.dll
 0001:000b95ac       _lstrlenA@4                004ba5ac f   kernel32:KERNEL32.dll
 0001:000b95b2       _GetProcAddress@8          004ba5b2 f   kernel32:KERNEL32.dll
 0001:000b95b8       _CreateFileA@28            004ba5b8 f   kernel32:KERNEL32.dll
 0001:000b95be       _FreeLibrary@4             004ba5be f   kernel32:KERNEL32.dll
 0001:000b95c4       _FindClose@4               004ba5c4 f   kernel32:KERNEL32.dll
 0001:000b95ca       _FindNextFileA@8           004ba5ca f   kernel32:KERNEL32.dll
 0001:000b95d0       _DeleteFileA@4             004ba5d0 f   kernel32:KERNEL32.dll
 0001:000b95d6       _FindFirstFileA@8          004ba5d6 f   kernel32:KERNEL32.dll
 0001:000b95dc       _LoadLibraryA@4            004ba5dc f   kernel32:KERNEL32.dll
 0001:000b95e2       _GetModuleFileNameA@12     004ba5e2 f   kernel32:KERNEL32.dll
 0001:000b95e8       _CreateThread@24           004ba5e8 f   kernel32:KERNEL32.dll
 0001:000b95ee       _SystemTimeToFileTime@8    004ba5ee f   kernel32:KERNEL32.dll
 0001:000b95f4       _GetTimeFormatA@24         004ba5f4 f   kernel32:KERNEL32.dll
 0001:000b95fa       _GetDateFormatA@24         004ba5fa f   kernel32:KERNEL32.dll
 0001:000b9600       _SystemTimeToTzSpecificLocalTime@12 004ba600 f   kernel32:KERNEL32.dll
 0001:000b9606       _FileTimeToSystemTime@8    004ba606 f   kernel32:KERNEL32.dll
 0001:000b960c       _MulDiv@12                 004ba60c f   kernel32:KERNEL32.dll
 0001:000b9612       _LocalFileTimeToFileTime@8 004ba612 f   kernel32:KERNEL32.dll
 0001:000b9618       _GetSystemTime@4           004ba618 f   kernel32:KERNEL32.dll
 0001:000b961e       _ReadFile@20               004ba61e f   kernel32:KERNEL32.dll
 0001:000b9624       _GetTickCount@0            004ba624 f   kernel32:KERNEL32.dll
 0001:000b962a       _DeleteCriticalSection@4   004ba62a f   kernel32:KERNEL32.dll
 0001:000b9630       _InitializeCriticalSection@4 004ba630 f   kernel32:KERNEL32.dll
 0001:000b9636       _GetCurrentProcess@0       004ba636 f   kernel32:KERNEL32.dll
 0001:000b963c       _ResumeThread@4            004ba63c f   kernel32:KERNEL32.dll
 0001:000b9642       _GetCurrentDirectoryA@8    004ba642 f   kernel32:KERNEL32.dll
 0001:000b9648       _SetThreadPriority@8       004ba648 f   kernel32:KERNEL32.dll
 0001:000b964e       _CreatePipe@16             004ba64e f   kernel32:KERNEL32.dll
 0001:000b9654       _WinExec@8                 004ba654 f   kernel32:KERNEL32.dll
 0001:000b965a       _GlobalFree@4              004ba65a f   kernel32:KERNEL32.dll
 0001:000b9660       _SetProcessAffinityMask@8  004ba660 f   kernel32:KERNEL32.dll
 0001:000b9666       _GetProcessAffinityMask@12 004ba666 f   kernel32:KERNEL32.dll
 0001:000b966c       _GetPrivateProfileStringA@24 004ba66c f   kernel32:KERNEL32.dll
 0001:000b9672       _GetLastError@0            004ba672 f   kernel32:KERNEL32.dll
 0001:000b9678       _SetSystemTime@4           004ba678 f   kernel32:KERNEL32.dll
 0001:000b967e       _WritePrivateProfileStringA@16 004ba67e f   kernel32:KERNEL32.dll
 0001:000b9684       _MoveFileA@8               004ba684 f   kernel32:KERNEL32.dll
 0001:000b968a       _SetPriorityClass@8        004ba68a f   kernel32:KERNEL32.dll
 0001:000b9690       _TerminateThread@8         004ba690 f   kernel32:KERNEL32.dll
 0001:000b9696       _SetFilePointer@16         004ba696 f   kernel32:KERNEL32.dll
 0001:000b969c       _GlobalAlloc@8             004ba69c f   kernel32:KERNEL32.dll
 0001:000b96a2       _QueryPerformanceFrequency@4 004ba6a2 f   kernel32:KERNEL32.dll
 0001:000b96a8       _GlobalUnlock@4            004ba6a8 f   kernel32:KERNEL32.dll
 0001:000b96ae       _wsprintfA                 004ba6ae f   user32:USER32.dll
 0001:000b96b4       _PostMessageA@16           004ba6b4 f   user32:USER32.dll
 0001:000b96ba       _SetForegroundWindow@4     004ba6ba f   user32:USER32.dll
 0001:000b96c0       _KillTimer@8               004ba6c0 f   user32:USER32.dll
 0001:000b96c6       _GetWindowRect@8           004ba6c6 f   user32:USER32.dll
 0001:000b96cc       _DestroyWindow@4           004ba6cc f   user32:USER32.dll
 0001:000b96d2       _MoveWindow@24             004ba6d2 f   user32:USER32.dll
 0001:000b96d8       _GetClientRect@8           004ba6d8 f   user32:USER32.dll
 0001:000b96de       _GetWindowLongA@8          004ba6de f   user32:USER32.dll
 0001:000b96e4       _DefWindowProcA@16         004ba6e4 f   user32:USER32.dll
 0001:000b96ea       _InvalidateRect@12         004ba6ea f   user32:USER32.dll
 0001:000b96f0       _SetTimer@16               004ba6f0 f   user32:USER32.dll
 0001:000b96f6       _SendMessageA@16           004ba6f6 f   user32:USER32.dll
 0001:000b96fc       _SendDlgItemMessageA@20    004ba6fc f   user32:USER32.dll
 0001:000b9702       _SetDlgItemTextA@12        004ba702 f   user32:USER32.dll
 0001:000b9708       _ShowWindow@8              004ba708 f   user32:USER32.dll
 0001:000b970e       _GetDlgItem@8              004ba70e f   user32:USER32.dll
 0001:000b9714       _DispatchMessageA@4        004ba714 f   user32:USER32.dll
 0001:000b971a       _TranslateMessage@4        004ba71a f   user32:USER32.dll
 0001:000b9720       _PeekMessageA@20           004ba720 f   user32:USER32.dll
 0001:000b9726       _CallWindowProcA@20        004ba726 f   user32:USER32.dll
 0001:000b972c       _GetParent@4               004ba72c f   user32:USER32.dll
 0001:000b9732       _SetFocus@4                004ba732 f   user32:USER32.dll
 0001:000b9738       _EndDialog@8               004ba738 f   user32:USER32.dll
 0001:000b973e       _MessageBoxA@16            004ba73e f   user32:USER32.dll
 0001:000b9744       _SetWindowLongA@12         004ba744 f   user32:USER32.dll
 0001:000b974a       _CheckMenuItem@12          004ba74a f   user32:USER32.dll
 0001:000b9750       _GetMenu@4                 004ba750 f   user32:USER32.dll
 0001:000b9756       _SetScrollInfo@16          004ba756 f   user32:USER32.dll
 0001:000b975c       _EndPaint@8                004ba75c f   user32:USER32.dll
 0001:000b9762       _FillRect@12               004ba762 f   user32:USER32.dll
 0001:000b9768       _DrawTextA@20              004ba768 f   user32:USER32.dll
 0001:000b976e       _DrawIcon@16               004ba76e f   user32:USER32.dll
 0001:000b9774       _BeginPaint@8              004ba774 f   user32:USER32.dll
 0001:000b977a       _SetScrollPos@16           004ba77a f   user32:USER32.dll
 0001:000b9780       _MessageBeep@4             004ba780 f   user32:USER32.dll
 0001:000b9786       _GetDlgItemTextA@16        004ba786 f   user32:USER32.dll
 0001:000b978c       _IsDlgButtonChecked@8      004ba78c f   user32:USER32.dll
 0001:000b9792       _CheckDlgButton@12         004ba792 f   user32:USER32.dll
 0001:000b9798       _DialogBoxParamA@20        004ba798 f   user32:USER32.dll
 0001:000b979e       _GetDlgItemInt@16          004ba79e f   user32:USER32.dll
 0001:000b97a4       _DestroyMenu@4             004ba7a4 f   user32:USER32.dll
 0001:000b97aa       _TrackPopupMenu@28         004ba7aa f   user32:USER32.dll
 0001:000b97b0       _GetSubMenu@8              004ba7b0 f   user32:USER32.dll
 0001:000b97b6       _LoadMenuA@8               004ba7b6 f   user32:USER32.dll
 0001:000b97bc       _SetDlgItemInt@16          004ba7bc f   user32:USER32.dll
 0001:000b97c2       _ClientToScreen@8          004ba7c2 f   user32:USER32.dll
 0001:000b97c8       _GetKeyState@4             004ba7c8 f   user32:USER32.dll
 0001:000b97ce       _DestroyIcon@4             004ba7ce f   user32:USER32.dll
 0001:000b97d4       _LoadIconA@8               004ba7d4 f   user32:USER32.dll
 0001:000b97da       _ReleaseDC@8               004ba7da f   user32:USER32.dll
 0001:000b97e0       _GetDC@4                   004ba7e0 f   user32:USER32.dll
 0001:000b97e6       _DeleteMenu@12             004ba7e6 f   user32:USER32.dll
 0001:000b97ec       _AppendMenuA@16            004ba7ec f   user32:USER32.dll
 0001:000b97f2       _WaitForInputIdle@8        004ba7f2 f   user32:USER32.dll
 0001:000b97f8       _GetMessageA@16            004ba7f8 f   user32:USER32.dll
 0001:000b97fe       _CreateDialogParamA@20     004ba7fe f   user32:USER32.dll
 0001:000b9804       _EnableWindow@8            004ba804 f   user32:USER32.dll
 0001:000b980a       _EnableMenuItem@12         004ba80a f   user32:USER32.dll
 0001:000b9810       _FindWindowA@8             004ba810 f   user32:USER32.dll
 0001:000b9816       _LoadImageA@24             004ba816 f   user32:USER32.dll
 0001:000b981c       _GetSystemMetrics@4        004ba81c f   user32:USER32.dll
 0001:000b9822       _SetScrollRange@20         004ba822 f   user32:USER32.dll
 0001:000b9828       _GetScrollRange@16         004ba828 f   user32:USER32.dll
 0001:000b982e       _GetSysColor@4             004ba82e f   user32:USER32.dll
 0001:000b9834       _UpdateWindow@4            004ba834 f   user32:USER32.dll
 0001:000b983a       _ModifyMenuA@20            004ba83a f   user32:USER32.dll
 0001:000b9840       _SetWindowPos@28           004ba840 f   user32:USER32.dll
 0001:000b9846       _CreateWindowExA@48        004ba846 f   user32:USER32.dll
 0001:000b984c       _CheckMenuRadioItem@20     004ba84c f   user32:USER32.dll
 0001:000b9852       _UnregisterClassA@8        004ba852 f   user32:USER32.dll
 0001:000b9858       _RegisterClassA@4          004ba858 f   user32:USER32.dll
 0001:000b985e       _LoadCursorA@8             004ba85e f   user32:USER32.dll
 0001:000b9864       _keybd_event@16            004ba864 f   user32:USER32.dll
 0001:000b986a       _PostQuitMessage@4         004ba86a f   user32:USER32.dll
 0001:000b9870       _RegisterWindowMessageA@4  004ba870 f   user32:USER32.dll
 0001:000b9876       _LoadAcceleratorsA@8       004ba876 f   user32:USER32.dll
 0001:000b987c       _IsDialogMessageA@8        004ba87c f   user32:USER32.dll
 0001:000b9882       _IsWindow@4                004ba882 f   user32:USER32.dll
 0001:000b9888       _TranslateAcceleratorA@12  004ba888 f   user32:USER32.dll
 0001:000b988e       _CloseClipboard@0          004ba88e f   user32:USER32.dll
 0001:000b9894       _SetClipboardData@8        004ba894 f   user32:USER32.dll
 0001:000b989a       _EmptyClipboard@0          004ba89a f   user32:USER32.dll
 0001:000b98a0       _OpenClipboard@4           004ba8a0 f   user32:USER32.dll
 0001:000b98a6       _SetCursor@4               004ba8a6 f   user32:USER32.dll
 0001:000b98ac       _ReleaseCapture@0          004ba8ac f   user32:USER32.dll
 0001:000b98b2       _SetCapture@4              004ba8b2 f   user32:USER32.dll
 0001:000b98b8       _LineTo@12                 004ba8b8 f   gdi32:GDI32.dll
 0001:000b98be       _MoveToEx@16               004ba8be f   gdi32:GDI32.dll
 0001:000b98c4       _Ellipse@20                004ba8c4 f   gdi32:GDI32.dll
 0001:000b98ca       _SelectObject@8            004ba8ca f   gdi32:GDI32.dll
 0001:000b98d0       _DeleteDC@4                004ba8d0 f   gdi32:GDI32.dll
 0001:000b98d6       _DeleteObject@4            004ba8d6 f   gdi32:GDI32.dll
 0001:000b98dc       _BitBlt@36                 004ba8dc f   gdi32:GDI32.dll
 0001:000b98e2       _RoundRect@28              004ba8e2 f   gdi32:GDI32.dll
 0001:000b98e8       _GetStockObject@4          004ba8e8 f   gdi32:GDI32.dll
 0001:000b98ee       _TextOutA@20               004ba8ee f   gdi32:GDI32.dll
 0001:000b98f4       _GetTextExtentPointA@16    004ba8f4 f   gdi32:GDI32.dll
 0001:000b98fa       _SetTextColor@8            004ba8fa f   gdi32:GDI32.dll
 0001:000b9900       _SetBkMode@8               004ba900 f   gdi32:GDI32.dll
 0001:000b9906       _CreateCompatibleBitmap@12 004ba906 f   gdi32:GDI32.dll
 0001:000b990c       _CreateCompatibleDC@4      004ba90c f   gdi32:GDI32.dll
 0001:000b9912       _CreateFontA@56            004ba912 f   gdi32:GDI32.dll
 0001:000b9918       _GetDeviceCaps@8           004ba918 f   gdi32:GDI32.dll
 0001:000b991e       _CreatePen@12              004ba91e f   gdi32:GDI32.dll
 0001:000b9924       _CreateSolidBrush@4        004ba924 f   gdi32:GDI32.dll
 0001:000b992a       _SetBkColor@8              004ba92a f   gdi32:GDI32.dll
 0001:000b9930       _GetTextExtentPoint32A@16  004ba930 f   gdi32:GDI32.dll
 0001:000b9936       _Polyline@12               004ba936 f   gdi32:GDI32.dll
 0001:000b993c       _CreateFontIndirectA@4     004ba93c f   gdi32:GDI32.dll
 0001:000b9942       _ChooseColorA@4            004ba942 f   comdlg32:comdlg32.dll
 0001:000b9948       _GetSaveFileNameA@4        004ba948 f   comdlg32:comdlg32.dll
 0001:000b994e       _RegSetValueExA@24         004ba94e f   advapi32:ADVAPI32.dll
 0001:000b9954       _RegCloseKey@4             004ba954 f   advapi32:ADVAPI32.dll
 0001:000b995a       _RegCreateKeyExA@36        004ba95a f   advapi32:ADVAPI32.dll
 0001:000b9960       _RegQueryValueExA@24       004ba960 f   advapi32:ADVAPI32.dll
 0001:000b9966       _RegOpenKeyExA@20          004ba966 f   advapi32:ADVAPI32.dll
 0001:000b996c       _RegEnumValueA@32          004ba96c f   advapi32:ADVAPI32.dll
 0001:000b9972       _SHGetPathFromIDListA@8    004ba972 f   shell32:SHELL32.dll
 0001:000b9978       _SHBrowseForFolderA@4      004ba978 f   shell32:SHELL32.dll
 0001:000b997e       _Shell_NotifyIconA@8       004ba97e f   shell32:SHELL32.dll
 0001:000b9984       _ShellExecuteA@24          004ba984 f   shell32:SHELL32.dll
 0001:000b998a       _DragFinish@4              004ba98a f   shell32:SHELL32.dll
 0001:000b9990       _DragQueryFileA@16         004ba990 f   shell32:SHELL32.dll
 0001:000b9996       _ImageList_ReplaceIcon@12  004ba996 f   comctl32:COMCTL32.dll
 0001:000b999c       _ImageList_Create@20       004ba99c f   comctl32:COMCTL32.dll
 0001:000b99a2       _CreateStatusWindowA@16    004ba9a2 f   comctl32:COMCTL32.dll
 0001:000b99a8       _ImageList_Destroy@4       004ba9a8 f   comctl32:COMCTL32.dll
 0001:000b99ae       _InitCommonControlsEx@4    004ba9ae f   comctl32:COMCTL32.dll
 0001:000b99b4       _waveOutWrite@12           004ba9b4 f   winmm:WINMM.dll
 0001:000b99ba       _waveOutPrepareHeader@12   004ba9ba f   winmm:WINMM.dll
 0001:000b99c0       _waveOutUnprepareHeader@12 004ba9c0 f   winmm:WINMM.dll
 0001:000b99c6       _waveOutOpen@24            004ba9c6 f   winmm:WINMM.dll
 0001:000b99cc       _waveOutClose@4            004ba9cc f   winmm:WINMM.dll
 0001:000b99d2       _waveOutReset@4            004ba9d2 f   winmm:WINMM.dll
 0001:000b99d8       _InternetCloseHandle@4     004ba9d8 f   Wininet:WININET.dll
 0001:000b99de       _InternetReadFile@16       004ba9de f   Wininet:WININET.dll
 0001:000b99e4       _HttpQueryInfoA@20         004ba9e4 f   Wininet:WININET.dll
 0001:000b99ea       _HttpSendRequestA@20       004ba9ea f   Wininet:WININET.dll
 0001:000b99f0       _HttpOpenRequestA@32       004ba9f0 f   Wininet:WININET.dll
 0001:000b99f6       _InternetConnectA@32       004ba9f6 f   Wininet:WININET.dll
 0001:000b99fc       _InternetOpenA@20          004ba9fc f   Wininet:WININET.dll
 0001:000b9a02       _SourceHelper_GetTSReaderEXEDirectory 004baa02 f   TSReader_SourceHelper:TSReader_SourceHelper.dll
 0001:000b9a08       _SourceHelper_ReadLine     004baa08 f   TSReader_SourceHelper:TSReader_SourceHelper.dll
 0001:000b9a0e       _SourceHelper_CRC_Check    004baa0e f   TSReader_SourceHelper:TSReader_SourceHelper.dll
 0001:000b9a14       _SourceHelper_SetWorkerThreadPriorities 004baa14 f   TSReader_SourceHelper:TSReader_SourceHelper.dll
 0001:000b9a1a       _SourceHelper_myGetOpenFileName 004baa1a f   TSReader_SourceHelper:TSReader_SourceHelper.dll
 0001:000b9a20       _SourceHelper_CRC_Calc     004baa20 f   TSReader_SourceHelper:TSReader_SourceHelper.dll
 0001:000b9a26       _SourceHelper_SetChannelSerialControl 004baa26 f   TSReader_SourceHelper:TSReader_SourceHelper.dll
 0001:000b9a2c       _SourceHelper_DeInitSerialControl 004baa2c f   TSReader_SourceHelper:TSReader_SourceHelper.dll
 0001:000b9a32       _SourceHelper_InitSerialControl 004baa32 f   TSReader_SourceHelper:TSReader_SourceHelper.dll
 0001:000b9a38       _SourceHelper_CalculateSwitchParameters 004baa38 f   TSReader_SourceHelper:TSReader_SourceHelper.dll
 0001:000b9a3e       _SourceHelper_DiSEqCPositionerDialog 004baa3e f   TSReader_SourceHelper:TSReader_SourceHelper.dll
 0001:000b9a44       _SourceHelper_ResetFirstTimeFlag 004baa44 f   TSReader_SourceHelper:TSReader_SourceHelper.dll
 0001:000b9a4a       _SourceHelper_ImportSatelliteList 004baa4a f   TSReader_SourceHelper:TSReader_SourceHelper.dll
 0001:000b9a50       _SourceHelper_Init         004baa50 f   TSReader_SourceHelper:TSReader_SourceHelper.dll
 0001:000b9a56       _SourceHelper_CRC_Init     004baa56 f   TSReader_SourceHelper:TSReader_SourceHelper.dll
 0001:000b9a60       _memcpy                    004baa60 f   LIBCMTD:memcpy.obj
 0001:000b9da0       __alloca_probe             004bada0 f   LIBCMTD:chkstk.obj
 0001:000b9da0       __chkstk                   004bada0 f   LIBCMTD:chkstk.obj
 0001:000b9dd0       __chkesp                   004badd0 f   LIBCMTD:chkesp.obj
 0001:000b9e10       __fpmath                   004bae10 f   LIBCMTD:fpinit.obj
 0001:000b9e40       __fpclear                  004bae40 f   LIBCMTD:fpinit.obj
 0001:000b9e50       __cfltcvt_init             004bae50 f   LIBCMTD:fpinit.obj
 0001:000b9ea0       ___setfflag                004baea0 f   LIBCMTD:fpinit.obj
 0001:000b9ec0       _memset                    004baec0 f   LIBCMTD:memset.obj
 0001:000b9f20       __allshr                   004baf20 f   LIBCMTD:llshr.obj
 0001:000b9f50       __alldiv                   004baf50 f   LIBCMTD:lldiv.obj
 0001:000ba000       __allrem                   004bb000 f   LIBCMTD:llrem.obj
 0001:000ba0b4       __ftol                     004bb0b4 f   LIBCMTD:ftol.obj
 0001:000ba0e0       __allmul                   004bb0e0 f   LIBCMTD:llmul.obj
 0001:000ba120       __allshl                   004bb120 f   LIBCMTD:llshl.obj
 0001:000ba140       _qsort                     004bb140 f   LIBCMTD:qsort.obj
 0001:000ba440       _atol                      004bb440 f   LIBCMTD:atox.obj
 0001:000ba540       _atoi                      004bb540 f   LIBCMTD:atox.obj
 0001:000ba560       __atoi64                   004bb560 f   LIBCMTD:atox.obj
 0001:000ba690       _atof                      004bb690 f   LIBCMTD:atof.obj
 0001:000ba710       _strstr                    004bb710 f   LIBCMTD:strstr.obj
 0001:000ba790       _strcpy                    004bb790 f   LIBCMTD:strcat.obj
 0001:000ba7a0       _strcat                    004bb7a0 f   LIBCMTD:strcat.obj
 0001:000ba880       _strcmp                    004bb880 f   LIBCMTD:strcmp.obj
 0001:000ba910       _sscanf                    004bb910 f   LIBCMTD:sscanf.obj
 0001:000ba9d0       _sprintf                   004bb9d0 f   LIBCMTD:sprintf.obj
 0001:000baad0       _memcmp                    004bbad0 f   LIBCMTD:memcmp.obj
 0001:000bab80       __aulldiv                  004bbb80 f   LIBCMTD:ulldiv.obj
 0001:000babe8       __global_unwind2           004bbbe8 f   LIBCMTD:exsup.obj
 0001:000bac2a       __local_unwind2            004bbc2a f   LIBCMTD:exsup.obj
 0001:000bac82       __NLG_Return2              004bbc82 f   LIBCMTD:exsup.obj
 0001:000bac92       __abnormal_termination     004bbc92 f   LIBCMTD:exsup.obj
 0001:000bacb5       __NLG_Notify1              004bbcb5 f   LIBCMTD:exsup.obj
 0001:000bacbe       __NLG_Notify               004bbcbe f   LIBCMTD:exsup.obj
 0001:000bacd1       __NLG_Dispatch             004bbcd1 f   LIBCMTD:exsup.obj
 0001:000bace0       __except_handler3          004bbce0 f   LIBCMTD:exsup3.obj
 0001:000bad9d       __seh_longjmp_unwind@4     004bbd9d f   LIBCMTD:exsup3.obj
 0001:000badc0       _fclose                    004bbdc0 f   LIBCMTD:fclose.obj
 0001:000bae50       __fclose_lk                004bbe50 f   LIBCMTD:fclose.obj
 0001:000baf10       _fwrite                    004bbf10 f   LIBCMTD:fwrite.obj
 0001:000baf50       __fwrite_lk                004bbf50 f   LIBCMTD:fwrite.obj
 0001:000bb170       __cinit                    004bc170 f   LIBCMTD:crt0dat.obj
 0001:000bb1b0       _exit                      004bc1b0 f   LIBCMTD:crt0dat.obj
 0001:000bb1d0       __exit                     004bc1d0 f   LIBCMTD:crt0dat.obj
 0001:000bb1f0       __cexit                    004bc1f0 f   LIBCMTD:crt0dat.obj
 0001:000bb210       __c_exit                   004bc210 f   LIBCMTD:crt0dat.obj
 0001:000bb320       __lockexit                 004bc320 f   LIBCMTD:crt0dat.obj
 0001:000bb330       __unlockexit               004bc330 f   LIBCMTD:crt0dat.obj
 0001:000bb370       _fprintf                   004bc370 f   LIBCMTD:fprintf.obj
 0001:000bb440       ___initstdio               004bc440 f   LIBCMTD:_file.obj
 0001:000bb570       ___endstdio                004bc570 f   LIBCMTD:_file.obj
 0001:000bb590       __lock_file                004bc590 f   LIBCMTD:_file.obj
 0001:000bb5d0       __lock_file2               004bc5d0 f   LIBCMTD:_file.obj
 0001:000bb600       __unlock_file              004bc600 f   LIBCMTD:_file.obj
 0001:000bb640       __unlock_file2             004bc640 f   LIBCMTD:_file.obj
 0001:000bb670       __fsopen                   004bc670 f   LIBCMTD:fopen.obj
 0001:000bb770       _fopen                     004bc770 f   LIBCMTD:fopen.obj
 0001:000bb790       _memmove                   004bc790 f   LIBCMTD:memmove.obj
 0001:000bbad0       _gmtime                    004bcad0 f   LIBCMTD:gmtime.obj
 0001:000bbcd0       _strncpy                   004bccd0 f   LIBCMTD:strncpy.obj
 0001:000bbdd0       _strlen                    004bcdd0 f   LIBCMTD:strlen.obj
 0001:000bbe50       _srand                     004bce50 f   LIBCMTD:rand.obj
 0001:000bbe60       _rand                      004bce60 f   LIBCMTD:rand.obj
 0001:000bbea0       _time                      004bcea0 f   LIBCMTD:time.obj
 0001:000bc030       __aullshr                  004bd030 f   LIBCMTD:ullshr.obj
 0001:000bc050       _WinMainCRTStartup         004bd050 f   LIBCMTD:wincrt0.obj
 0001:000bc1c0       __amsg_exit                004bd1c0 f   LIBCMTD:wincrt0.obj
 0001:000bc220       _malloc                    004bd220 f   LIBCMTD:dbgheap.obj
 0001:000bc250       __malloc_dbg               004bd250 f   LIBCMTD:dbgheap.obj
 0001:000bc280       __nh_malloc                004bd280 f   LIBCMTD:dbgheap.obj
 0001:000bc2a0       __nh_malloc_dbg            004bd2a0 f   LIBCMTD:dbgheap.obj
 0001:000bc340       __heap_alloc               004bd340 f   LIBCMTD:dbgheap.obj
 0001:000bc360       __heap_alloc_dbg           004bd360 f   LIBCMTD:dbgheap.obj
 0001:000bc680       _calloc                    004bd680 f   LIBCMTD:dbgheap.obj
 0001:000bc6b0       __calloc_dbg               004bd6b0 f   LIBCMTD:dbgheap.obj
 0001:000bc710       _realloc                   004bd710 f   LIBCMTD:dbgheap.obj
 0001:000bc740       __realloc_dbg              004bd740 f   LIBCMTD:dbgheap.obj
 0001:000bccf0       __expand                   004bdcf0 f   LIBCMTD:dbgheap.obj
 0001:000bcd20       __expand_dbg               004bdd20 f   LIBCMTD:dbgheap.obj
 0001:000bcdb0       _free                      004bddb0 f   LIBCMTD:dbgheap.obj
 0001:000bcdd0       __free_lk                  004bddd0 f   LIBCMTD:dbgheap.obj
 0001:000bcdf0       __free_dbg                 004bddf0 f   LIBCMTD:dbgheap.obj
 0001:000bce60       __free_dbg_lk              004bde60 f   LIBCMTD:dbgheap.obj
 0001:000bd250       __msize                    004be250 f   LIBCMTD:dbgheap.obj
 0001:000bd270       __msize_dbg                004be270 f   LIBCMTD:dbgheap.obj
 0001:000bd400       __CrtSetBreakAlloc         004be400 f   LIBCMTD:dbgheap.obj
 0001:000bd420       __CrtSetDbgBlockType       004be420 f   LIBCMTD:dbgheap.obj
 0001:000bd500       __CrtSetAllocHook          004be500 f   LIBCMTD:dbgheap.obj
 0001:000bd5b0       __CrtCheckMemory           004be5b0 f   LIBCMTD:dbgheap.obj
 0001:000bd960       __CrtSetDbgFlag            004be960 f   LIBCMTD:dbgheap.obj
 0001:000bd990       __CrtDoForAllClientObjects 004be990 f   LIBCMTD:dbgheap.obj
 0001:000bda40       __CrtIsValidPointer        004bea40 f   LIBCMTD:dbgheap.obj
 0001:000bda90       __CrtIsValidHeapPointer    004bea90 f   LIBCMTD:dbgheap.obj
 0001:000bdbc0       __CrtIsMemoryBlock         004bebc0 f   LIBCMTD:dbgheap.obj
 0001:000bdcf0       __CrtSetDumpClient         004becf0 f   LIBCMTD:dbgheap.obj
 0001:000bdd10       __CrtMemCheckpoint         004bed10 f   LIBCMTD:dbgheap.obj
 0001:000bdec0       __CrtMemDifference         004beec0 f   LIBCMTD:dbgheap.obj
 0001:000bdff0       __CrtMemDumpAllObjectsSince 004beff0 f   LIBCMTD:dbgheap.obj
 0001:000be410       __CrtDumpMemoryLeaks       004bf410 f   LIBCMTD:dbgheap.obj
 0001:000be490       __CrtMemDumpStatistics     004bf490 f   LIBCMTD:dbgheap.obj
 0001:000be560       __CIsin                    004bf560 f   LIBCMTD:sin.obj
 0001:000be574       _sin                       004bf574 f   LIBCMTD:sin.obj
 0001:000be610       __CIcos                    004bf610 f   LIBCMTD:cos.obj
 0001:000be624       _cos                       004bf624 f   LIBCMTD:cos.obj
 0001:000be6c0       __CIsqrt                   004bf6c0 f   LIBCMTD:sqrt.obj
 0001:000be6d4       _sqrt                      004bf6d4 f   LIBCMTD:sqrt.obj
 0001:000be780       _fabs                      004bf780 f   LIBCMTD:fabs.obj
 0001:000be880       _printf                    004bf880 f   LIBCMTD:printf.obj
 0001:000be920       __CIlog                    004bf920 f   LIBCMTD:log.obj
 0001:000be934       _log                       004bf934 f   LIBCMTD:log.obj
 0001:000be9f0       _fseek                     004bf9f0 f   LIBCMTD:fseek.obj
 0001:000bea60       __fseek_lk                 004bfa60 f   LIBCMTD:fseek.obj
 0001:000beb90       __assert                   004bfb90 f   LIBCMTD:assert.obj
 0001:000bef10       __CrtDbgBreak              004bff10 f   LIBCMTD:dbgrpt.obj
 0001:000bef20       __CrtSetReportMode         004bff20 f   LIBCMTD:dbgrpt.obj
 0001:000bef80       __CrtSetReportFile         004bff80 f   LIBCMTD:dbgrpt.obj
 0001:000bf000       __CrtSetReportHook         004c0000 f   LIBCMTD:dbgrpt.obj
 0001:000bf020       __CrtDbgReport             004c0020 f   LIBCMTD:dbgrpt.obj
 0001:000bf6c0       __setdefaultprecision      004c06c0 f   LIBCMTD:fp8.obj
 0001:000bf6e0       __ms_p5_test_fdiv          004c06e0 f   LIBCMTD:testfdiv.obj
 0001:000bf740       __ms_p5_mp_test_fdiv       004c0740 f   LIBCMTD:testfdiv.obj
 0001:000bf790       __forcdecpt                004c0790 f   LIBCMTD:cvt.obj
 0001:000bf840       __cropzeros                004c0840 f   LIBCMTD:cvt.obj
 0001:000bf920       __positive                 004c0920 f   LIBCMTD:cvt.obj
 0001:000bf950       __fassign                  004c0950 f   LIBCMTD:cvt.obj
 0001:000bf9a0       __cftoe                    004c09a0 f   LIBCMTD:cvt.obj
 0001:000bfb90       __cftof                    004c0b90 f   LIBCMTD:cvt.obj
 0001:000bfd40       __cftog                    004c0d40 f   LIBCMTD:cvt.obj
 0001:000bfe30       __cfltcvt                  004c0e30 f   LIBCMTD:cvt.obj
 0001:000bfec0       __isctype                  004c0ec0 f   LIBCMTD:isctype.obj
 0001:000bff80       __fltin2                   004c0f80 f   LIBCMTD:cfin.obj
 0001:000c0050       _strchr                    004c1050 f   LIBCMTD:strchr.obj
 0001:000c0056       ___from_strstr_to_strchr   004c1056 f   LIBCMTD:strchr.obj
 0001:000c0110       __input                    004c1110 f   LIBCMTD:input.obj
 0001:000c1610       __flsbuf                   004c2610 f   LIBCMTD:_flsbuf.obj
 0001:000c1890       __output                   004c2890 f   LIBCMTD:output.obj
 0001:000c2730       __close                    004c3730 f   LIBCMTD:close.obj
 0001:000c27b0       __close_lk                 004c37b0 f   LIBCMTD:close.obj
 0001:000c2860       __freebuf                  004c3860 f   LIBCMTD:_freebuf.obj
 0001:000c2900       _fflush                    004c3900 f   LIBCMTD:fflush.obj
 0001:000c2950       __fflush_lk                004c3950 f   LIBCMTD:fflush.obj
 0001:000c29a0       __flush                    004c39a0 f   LIBCMTD:fflush.obj
 0001:000c2a60       __flushall                 004c3a60 f   LIBCMTD:fflush.obj
 0001:000c2bb0       __write                    004c3bb0 f   LIBCMTD:write.obj
 0001:000c2c40       __write_lk                 004c3c40 f   LIBCMTD:write.obj
 0001:000c2ec0       __mtinitlocks              004c3ec0 f   LIBCMTD:mlock.obj
 0001:000c2f00       __mtdeletelocks            004c3f00 f   LIBCMTD:mlock.obj
 0001:000c2fa0       __lock                     004c3fa0 f   LIBCMTD:mlock.obj
 0001:000c3040       __unlock                   004c4040 f   LIBCMTD:mlock.obj
 0001:000c3060       __lockerr_exit             004c4060 f   LIBCMTD:mlock.obj
 0001:000c3080       __stbuf                    004c4080 f   LIBCMTD:_sftbuf.obj
 0001:000c31e0       __ftbuf                    004c41e0 f   LIBCMTD:_sftbuf.obj
 0001:000c3280       __ioinit                   004c4280 f   LIBCMTD:ioinit.obj
 0001:000c35b0       __ioterm                   004c45b0 f   LIBCMTD:ioinit.obj
 0001:000c3650       __fcloseall                004c4650 f   LIBCMTD:closeall.obj
 0001:000c3730       __openfile                 004c4730 f   LIBCMTD:_open.obj
 0001:000c3ac0       __getstream                004c4ac0 f   LIBCMTD:stream.obj
 0001:000c3c40       __mtinit                   004c4c40 f   LIBCMTD:tidtable.obj
 0001:000c3cd0       __mtterm                   004c4cd0 f   LIBCMTD:tidtable.obj
 0001:000c3d00       __initptd                  004c4d00 f   LIBCMTD:tidtable.obj
 0001:000c3d20       __getptd                   004c4d20 f   LIBCMTD:tidtable.obj
 0001:000c3dc0       __freeptd                  004c4dc0 f   LIBCMTD:tidtable.obj
 0001:000c3ed0       ___threadid                004c4ed0 f   LIBCMTD:tidtable.obj
 0001:000c3ee0       ___threadhandle            004c4ee0 f   LIBCMTD:tidtable.obj
 0001:000c3ef0       ___loctotime_t             004c4ef0 f   LIBCMTD:dtoxtime.obj
 0001:000c3fe0       __XcptFilter               004c4fe0 f   LIBCMTD:winxfltr.obj
 0001:000c4200       __wincmdln                 004c5200 f   LIBCMTD:wincmdln.obj
 0001:000c42c0       __setenvp                  004c52c0 f   LIBCMTD:stdenvp.obj
 0001:000c4410       __setargv                  004c5410 f   LIBCMTD:stdargv.obj
 0001:000c4920       ___crtGetEnvironmentStringsA 004c5920 f   LIBCMTD:a_env.obj
 0001:000c4b40       __GetLinkerVersion         004c5b40 f   LIBCMTD:heapinit.obj
 0001:000c4ba0       ___heap_select             004c5ba0 f   LIBCMTD:heapinit.obj
 0001:000c4dd0       __heap_init                004c5dd0 f   LIBCMTD:heapinit.obj
 0001:000c4e60       __heap_term                004c5e60 f   LIBCMTD:heapinit.obj
 0001:000c4f50       __FF_MSGBANNER             004c5f50 f   LIBCMTD:crt0msg.obj
 0001:000c4fa0       __NMSG_WRITE               004c5fa0 f   LIBCMTD:crt0msg.obj
 0001:000c5160       __GET_RTERRMSG             004c6160 f   LIBCMTD:crt0msg.obj
 0001:000c51b0       ?_set_new_handler@@YAP6AHI@ZP6AHI@Z@Z 004c61b0 f   LIBCMTD:handler.obj
 0001:000c51e0       ?_query_new_handler@@YAP6AHI@ZXZ 004c61e0 f   LIBCMTD:handler.obj
 0001:000c51f0       __callnewh                 004c61f0 f   LIBCMTD:handler.obj
 0001:000c5220       __malloc_base              004c6220 f   LIBCMTD:malloc.obj
 0001:000c5240       __nh_malloc_base           004c6240 f   LIBCMTD:malloc.obj
 0001:000c52a0       __heap_alloc_base          004c62a0 f   LIBCMTD:malloc.obj
 0001:000c53f0       __CrtDefaultAllocHook      004c63f0 f   LIBCMTD:dbghook.obj
 0001:000c5400       __expand_base              004c6400 f   LIBCMTD:expand.obj
 0001:000c5610       __realloc_base             004c6610 f   LIBCMTD:realloc.obj
 0001:000c5ab0       __free_base                004c6ab0 f   LIBCMTD:free.obj
 0001:000c5c00       __heapchk                  004c6c00 f   LIBCMTD:heapchk.obj
 0001:000c5d10       __heapset                  004c6d10 f   LIBCMTD:heapchk.obj
 0001:000c5d20       __get_sbh_threshold        004c6d20 f   LIBCMTD:sbheap.obj
 0001:000c5d50       __set_sbh_threshold        004c6d50 f   LIBCMTD:sbheap.obj
 0001:000c5e60       ___sbh_heap_init           004c6e60 f   LIBCMTD:sbheap.obj
 0001:000c5ed0       ___sbh_find_block          004c6ed0 f   LIBCMTD:sbheap.obj
 0001:000c5f30       ___sbh_verify_block        004c6f30 f   LIBCMTD:sbheap.obj
 0001:000c5f90       ___sbh_free_block          004c6f90 f   LIBCMTD:sbheap.obj
 0001:000c6570       ___sbh_alloc_block         004c7570 f   LIBCMTD:sbheap.obj
 0001:000c6ab0       ___sbh_alloc_new_region    004c7ab0 f   LIBCMTD:sbheap.obj
 0001:000c6bc0       ___sbh_alloc_new_group     004c7bc0 f   LIBCMTD:sbheap.obj
 0001:000c6db0       ___sbh_resize_block        004c7db0 f   LIBCMTD:sbheap.obj
 0001:000c73a0       ___sbh_heapmin             004c83a0 f   LIBCMTD:sbheap.obj
 0001:000c74d0       ___sbh_heap_check          004c84d0 f   LIBCMTD:sbheap.obj
 0001:000c7af0       __get_old_sbh_threshold    004c8af0 f   LIBCMTD:sbheap.obj
 0001:000c7b00       __set_old_sbh_threshold    004c8b00 f   LIBCMTD:sbheap.obj
 0001:000c7b30       ___old_sbh_new_region      004c8b30 f   LIBCMTD:sbheap.obj
 0001:000c7d10       ___old_sbh_release_region  004c8d10 f   LIBCMTD:sbheap.obj
 0001:000c7d90       ___old_sbh_decommit_pages  004c8d90 f   LIBCMTD:sbheap.obj
 0001:000c7ef0       ___old_sbh_find_block      004c8ef0 f   LIBCMTD:sbheap.obj
 0001:000c7f80       ___old_sbh_free_block      004c8f80 f   LIBCMTD:sbheap.obj
 0001:000c7ff0       ___old_sbh_alloc_block     004c8ff0 f   LIBCMTD:sbheap.obj
 0001:000c83b0       ___old_sbh_alloc_block_from_page 004c93b0 f   LIBCMTD:sbheap.obj
 0001:000c8660       ___old_sbh_resize_block    004c9660 f   LIBCMTD:sbheap.obj
 0001:000c87d0       ___old_sbh_heap_check      004c97d0 f   LIBCMTD:sbheap.obj
 0001:000c8a10       __trandisp1                004c9a10 f   LIBCMTD:87disp.obj
 0001:000c8a77       __trandisp2                004c9a77 f   LIBCMTD:87disp.obj
 0001:000c8b03       __rttospopde               004c9b03 f   LIBCMTD:87disp.obj
 0001:000c8b08       __rttospop                 004c9b08 f   LIBCMTD:87disp.obj
 0001:000c8b0a       __rtnospop                 004c9b0a f   LIBCMTD:87disp.obj
 0001:000c8b0c       __rttosnpop                004c9b0c f   LIBCMTD:87disp.obj
 0001:000c8b0d       __rtnospopde               004c9b0d f   LIBCMTD:87disp.obj
 0001:000c8b14       __rtzeropop                004c9b14 f   LIBCMTD:87disp.obj
 0001:000c8b16       __rtzeronpop               004c9b16 f   LIBCMTD:87disp.obj
 0001:000c8b1b       __rtonepop                 004c9b1b f   LIBCMTD:87disp.obj
 0001:000c8b1d       __rtonenpop                004c9b1d f   LIBCMTD:87disp.obj
 0001:000c8b22       __tosnan1                  004c9b22 f   LIBCMTD:87disp.obj
 0001:000c8b4d       __nosnan2                  004c9b4d f   LIBCMTD:87disp.obj
 0001:000c8b4f       __tosnan2                  004c9b4f f   LIBCMTD:87disp.obj
 0001:000c8b77       __nan2                     004c9b77 f   LIBCMTD:87disp.obj
 0001:000c8bb6       __rtindfpop                004c9bb6 f   LIBCMTD:87disp.obj
 0001:000c8bb8       __rtindfnpop               004c9bb8 f   LIBCMTD:87disp.obj
 0001:000c8bc9       __rttosnpopde              004c9bc9 f   LIBCMTD:87disp.obj
 0001:000c8bd3       __rtchsifneg               004c9bd3 f   LIBCMTD:87disp.obj
 0001:000c8be0       __twoToTOS                 004c9be0 f   LIBCMTD:common.obj
 0001:000c8bf5       __load_CW                  004c9bf5 f   LIBCMTD:common.obj
 0001:000c8c0c       __convertTOStoQNaN         004c9c0c f   LIBCMTD:common.obj
 0001:000c8c25       __fload_withFB             004c9c25 f   LIBCMTD:common.obj
 0001:000c8c68       __checkTOS_withFB          004c9c68 f   LIBCMTD:common.obj
 0001:000c8c7e       __fast_exit                004c9c7e f   LIBCMTD:common.obj
 0001:000c8c8b       __math_exit                004c9c8b f   LIBCMTD:common.obj
 0001:000c8cb5       __check_overflow_exit      004c9cb5 f   LIBCMTD:common.obj
 0001:000c8cc9       __check_range_exit         004c9cc9 f   LIBCMTD:common.obj
 0001:000c8d70       __startTwoArgErrorHandling 004c9d70 f   LIBCMTD:genexcep.obj
 0001:000c8d87       __startOneArgErrorHandling 004c9d87 f   LIBCMTD:genexcep.obj
 0001:000c8dd0       __handle_qnan1             004c9dd0 f   LIBCMTD:fpexcept.obj
 0001:000c8e30       __handle_qnan2             004c9e30 f   LIBCMTD:fpexcept.obj
 0001:000c8ea0       __except1                  004c9ea0 f   LIBCMTD:fpexcept.obj
 0001:000c8f60       __except2                  004c9f60 f   LIBCMTD:fpexcept.obj
 0001:000c9030       __raise_exc                004ca030 f   LIBCMTD:fpexcept.obj
 0001:000c9500       __handle_exc               004ca500 f   LIBCMTD:fpexcept.obj
 0001:000c9880       __umatherr                 004ca880 f   LIBCMTD:fpexcept.obj
 0001:000c9920       __set_errno                004ca920 f   LIBCMTD:fpexcept.obj
 0001:000c99a0       __errcode                  004ca9a0 f   LIBCMTD:fpexcept.obj
 0001:000c9a20       __set_exp                  004caa20 f   LIBCMTD:util.obj
 0001:000c9a60       __get_exp                  004caa60 f   LIBCMTD:util.obj
 0001:000c9a90       __add_exp                  004caa90 f   LIBCMTD:util.obj
 0001:000c9ad0       __set_bexp                 004caad0 f   LIBCMTD:util.obj
 0001:000c9b10       __sptype                   004cab10 f   LIBCMTD:util.obj
 0001:000c9b90       __decomp                   004cab90 f   LIBCMTD:util.obj
 0001:000c9cd0       __statfp                   004cacd0 f   LIBCMTD:fpctrl.obj
 0001:000c9cf0       __clrfp                    004cacf0 f   LIBCMTD:fpctrl.obj
 0001:000c9d10       __ctrlfp                   004cad10 f   LIBCMTD:fpctrl.obj
 0001:000c9d50       __set_statfp               004cad50 f   LIBCMTD:fpctrl.obj
 0001:000c9de1       __fFEXP                    004cade1 f   LIBCMTD:87tran.obj
 0001:000c9e48       __rtinfpopse               004cae48 f   LIBCMTD:87tran.obj
 0001:000c9e4a       __rtinfnpopse              004cae4a f   LIBCMTD:87tran.obj
 0001:000c9e5a       __fFLN                     004cae5a f   LIBCMTD:87tran.obj
 0001:000c9f0f       __rtinfpop                 004caf0f f   LIBCMTD:87tran.obj
 0001:000c9f11       __rtinfnpop                004caf11 f   LIBCMTD:87tran.obj
 0001:000c9f2e       __ffexpm1                  004caf2e f   LIBCMTD:87tran.obj
 0001:000c9fe0       __lseek                    004cafe0 f   LIBCMTD:lseek.obj
 0001:000ca070       __lseek_lk                 004cb070 f   LIBCMTD:lseek.obj
 0001:000ca130       _ftell                     004cb130 f   LIBCMTD:ftell.obj
 0001:000ca1a0       __ftell_lk                 004cb1a0 f   LIBCMTD:ftell.obj
 0001:000ca440       __dosmaperr                004cb440 f   LIBCMTD:dosmap.obj
 0001:000ca4e0       __errno                    004cb4e0 f   LIBCMTD:dosmap.obj
 0001:000ca4f0       ___doserrno                004cb4f0 f   LIBCMTD:dosmap.obj
 0001:000ca500       _abort                     004cb500 f   LIBCMTD:abort.obj
 0001:000ca520       _signal                    004cb520 f   LIBCMTD:winsig.obj
 0001:000ca7f0       _raise                     004cb7f0 f   LIBCMTD:winsig.obj
 0001:000caa90       ___fpecode                 004cba90 f   LIBCMTD:winsig.obj
 0001:000caaa0       ___pxcptinfoptrs           004cbaa0 f   LIBCMTD:winsig.obj
 0001:000caab0       ___crtMessageBoxA          004cbab0 f   LIBCMTD:crtmbox.obj
 0001:000cab70       __itoa                     004cbb70 f   LIBCMTD:xtoa.obj
 0001:000cac90       __ltoa                     004cbc90 f   LIBCMTD:xtoa.obj
 0001:000cacd0       __ultoa                    004cbcd0 f   LIBCMTD:xtoa.obj
 0001:000cacf0       __i64toa                   004cbcf0 f   LIBCMTD:xtoa.obj
 0001:000cae40       __ui64toa                  004cbe40 f   LIBCMTD:xtoa.obj
 0001:000cae60       _strncat                   004cbe60 f   LIBCMTD:strncat.obj
 0001:000caf90       _setvbuf                   004cbf90 f   LIBCMTD:setvbuf.obj
 0001:000cb100       __snprintf                 004cc100 f   LIBCMTD:snprintf.obj
 0001:000cb200       __vsnprintf                004cc200 f   LIBCMTD:vsnprint.obj
 0001:000cb300       __statusfp                 004cc300 f   LIBCMTD:ieee87.obj
 0001:000cb320       __clearfp                  004cc320 f   LIBCMTD:ieee87.obj
 0001:000cb340       __control87                004cc340 f   LIBCMTD:ieee87.obj
 0001:000cb390       __controlfp                004cc390 f   LIBCMTD:ieee87.obj
 0001:000cb3b0       __fpreset                  004cc3b0 f   LIBCMTD:ieee87.obj
 0001:000cb7a0       __tolower                  004cc7a0 f   LIBCMTD:tolower.obj
 0001:000cb7b0       _tolower                   004cc7b0 f   LIBCMTD:tolower.obj
 0001:000cb850       __tolower_lk               004cc850 f   LIBCMTD:tolower.obj
 0001:000cb980       __ZeroTail                 004cc980 f   LIBCMTD:intrncvt.obj
 0001:000cba10       __IncMan                   004cca10 f   LIBCMTD:intrncvt.obj
 0001:000cbac0       __RoundMan                 004ccac0 f   LIBCMTD:intrncvt.obj
 0001:000cbba0       __CopyMan                  004ccba0 f   LIBCMTD:intrncvt.obj
 0001:000cbbf0       __FillZeroMan              004ccbf0 f   LIBCMTD:intrncvt.obj
 0001:000cbc20       __IsZeroMan                004ccc20 f   LIBCMTD:intrncvt.obj
 0001:000cbc60       __ShrMan                   004ccc60 f   LIBCMTD:intrncvt.obj
 0001:000cbd50       __ld12cvt                  004ccd50 f   LIBCMTD:intrncvt.obj
 0001:000cbfa0       __ld12tod                  004ccfa0 f   LIBCMTD:intrncvt.obj
 0001:000cbfc0       __ld12tof                  004ccfc0 f   LIBCMTD:intrncvt.obj
 0001:000cbfe0       __ld12told                 004ccfe0 f   LIBCMTD:intrncvt.obj
 0001:000cc0a0       __atodbl                   004cd0a0 f   LIBCMTD:intrncvt.obj
 0001:000cc0e0       __atoldbl                  004cd0e0 f   LIBCMTD:intrncvt.obj
 0001:000cc120       __atoflt                   004cd120 f   LIBCMTD:intrncvt.obj
 0001:000cc160       __fptostr                  004cd160 f   LIBCMTD:_fptostr.obj
 0001:000cc260       __fltout2                  004cd260 f   LIBCMTD:cfout.obj
 0001:000cc2e0       ___dtold                   004cd2e0 f   LIBCMTD:cfout.obj
 0001:000cc450       __fptrap                   004cd450 f   LIBCMTD:crt0fp.obj
 0001:000cc460       ___crtGetStringTypeA       004cd460 f   LIBCMTD:a_str.obj
 0001:000cc620       ___strgtold12              004cd620 f   LIBCMTD:strgtold.obj
 0001:000cd150       ___STRINGTOLD              004ce150 f   LIBCMTD:strgtold.obj
 0001:000cd1a0       _mbtowc                    004ce1a0 f   LIBCMTD:mbtowc.obj
 0001:000cd220       __mbtowc_lk                004ce220 f   LIBCMTD:mbtowc.obj
 0001:000cd380       _isalpha                   004ce380 f   LIBCMTD:_ctype.obj
 0001:000cd3d0       _isupper                   004ce3d0 f   LIBCMTD:_ctype.obj
 0001:000cd410       _islower                   004ce410 f   LIBCMTD:_ctype.obj
 0001:000cd450       _isdigit                   004ce450 f   LIBCMTD:_ctype.obj
 0001:000cd490       _isxdigit                  004ce490 f   LIBCMTD:_ctype.obj
 0001:000cd4e0       _isspace                   004ce4e0 f   LIBCMTD:_ctype.obj
 0001:000cd520       _ispunct                   004ce520 f   LIBCMTD:_ctype.obj
 0001:000cd560       _isalnum                   004ce560 f   LIBCMTD:_ctype.obj
 0001:000cd5b0       _isprint                   004ce5b0 f   LIBCMTD:_ctype.obj
 0001:000cd600       _isgraph                   004ce600 f   LIBCMTD:_ctype.obj
 0001:000cd650       _iscntrl                   004ce650 f   LIBCMTD:_ctype.obj
 0001:000cd690       ___isascii                 004ce690 f   LIBCMTD:_ctype.obj
 0001:000cd6a0       ___toascii                 004ce6a0 f   LIBCMTD:_ctype.obj
 0001:000cd6b0       ___iscsymf                 004ce6b0 f   LIBCMTD:_ctype.obj
 0001:000cd710       ___iscsym                  004ce710 f   LIBCMTD:_ctype.obj
 0001:000cd770       __filbuf                   004ce770 f   LIBCMTD:_filbuf.obj
 0001:000cd960       _ungetc                    004ce960 f   LIBCMTD:ungetc.obj
 0001:000cd9d0       __ungetc_lk                004ce9d0 f   LIBCMTD:ungetc.obj
 0001:000cdb10       __getbuf                   004ceb10 f   LIBCMTD:_getbuf.obj
 0001:000cdbe0       __isatty                   004cebe0 f   LIBCMTD:isatty.obj
 0001:000cdc20       _wctomb                    004cec20 f   LIBCMTD:wctomb.obj
 0001:000cdca0       __wctomb_lk                004ceca0 f   LIBCMTD:wctomb.obj
 0001:000cdd40       __aullrem                  004ced40 f   LIBCMTD:ullrem.obj
 0001:000cddc0       __alloc_osfhnd             004cedc0 f   LIBCMTD:osfinfo.obj
 0001:000cdfb0       __set_osfhnd               004cefb0 f   LIBCMTD:osfinfo.obj
 0001:000ce070       __free_osfhnd              004cf070 f   LIBCMTD:osfinfo.obj
 0001:000ce150       __get_osfhandle            004cf150 f   LIBCMTD:osfinfo.obj
 0001:000ce1c0       __open_osfhandle           004cf1c0 f   LIBCMTD:osfinfo.obj
 0001:000ce2d0       __lock_fhandle             004cf2d0 f   LIBCMTD:osfinfo.obj
 0001:000ce360       __unlock_fhandle           004cf360 f   LIBCMTD:osfinfo.obj
 0001:000ce390       __commit                   004cf390 f   LIBCMTD:commit.obj
 0001:000ce470       __open                     004cf470 f   LIBCMTD:open.obj
 0001:000ce4b0       __sopen                    004cf4b0 f   LIBCMTD:open.obj
 0001:000cea10       ___tzset                   004cfa10 f   LIBCMTD:tzset.obj
 0001:000cea50       __tzset                    004cfa50 f   LIBCMTD:tzset.obj
 0001:000cee20       __isindst                  004cfe20 f   LIBCMTD:tzset.obj
 0001:000cf350       __ismbbkalnum              004d0350 f   LIBCMTD:ismbbyte.obj
 0001:000cf370       __ismbbkprint              004d0370 f   LIBCMTD:ismbbyte.obj
 0001:000cf390       __ismbbkpunct              004d0390 f   LIBCMTD:ismbbyte.obj
 0001:000cf3b0       __ismbbalnum               004d03b0 f   LIBCMTD:ismbbyte.obj
 0001:000cf3d0       __ismbbalpha               004d03d0 f   LIBCMTD:ismbbyte.obj
 0001:000cf3f0       __ismbbgraph               004d03f0 f   LIBCMTD:ismbbyte.obj
 0001:000cf410       __ismbbprint               004d0410 f   LIBCMTD:ismbbyte.obj
 0001:000cf430       __ismbbpunct               004d0430 f   LIBCMTD:ismbbyte.obj
 0001:000cf450       __ismbblead                004d0450 f   LIBCMTD:ismbbyte.obj
 0001:000cf470       __ismbbtrail               004d0470 f   LIBCMTD:ismbbyte.obj
 0001:000cf490       __ismbbkana                004d0490 f   LIBCMTD:ismbbyte.obj
 0001:000cf540       __setmbcp                  004d0540 f   LIBCMTD:mbctype.obj
 0001:000cfd00       __getmbcp                  004d0d00 f   LIBCMTD:mbctype.obj
 0001:000cfd20       ___initmbctable            004d0d20 f   LIBCMTD:mbctype.obj
 0001:000cfd50       _strtol                    004d0d50 f   LIBCMTD:strtol.obj
 0001:000d00b0       _strtoul                   004d10b0 f   LIBCMTD:strtol.obj
 0001:000d00d0       _strncmp                   004d10d0 f   LIBCMTD:strncmp.obj
 0001:000d0110       __87except                 004d1110 f   LIBCMTD:87except.obj
 0001:000d0290       __matherr                  004d1290 f   LIBCMTD:matherr.obj
 0001:000d02a0       __powhlp                   004d12a0 f   LIBCMTD:powhlp.obj
 0001:000d0510       __d_inttype                004d1510 f   LIBCMTD:powhlp.obj
 0001:000d0590       _fdiv_main_routine         004d1590 f   LIBCMTD:adj_fdiv.obj
 0001:000d06a7       __adj_fdiv_r               004d16a7 f   LIBCMTD:adj_fdiv.obj
 0001:000d0b46       __fdivp_sti_st             004d1b46 f   LIBCMTD:adj_fdiv.obj
 0001:000d0b59       __fdivrp_sti_st            004d1b59 f   LIBCMTD:adj_fdiv.obj
 0001:000d0b6c       __adj_fdiv_m32             004d1b6c f   LIBCMTD:adj_fdiv.obj
 0001:000d0bb8       __adj_fdiv_m64             004d1bb8 f   LIBCMTD:adj_fdiv.obj
 0001:000d0c04       __adj_fdiv_m16i            004d1c04 f   LIBCMTD:adj_fdiv.obj
 0001:000d0c38       __adj_fdiv_m32i            004d1c38 f   LIBCMTD:adj_fdiv.obj
 0001:000d0c6c       __adj_fdivr_m32            004d1c6c f   LIBCMTD:adj_fdiv.obj
 0001:000d0cb8       __adj_fdivr_m64            004d1cb8 f   LIBCMTD:adj_fdiv.obj
 0001:000d0d04       __adj_fdivr_m16i           004d1d04 f   LIBCMTD:adj_fdiv.obj
 0001:000d0d38       __adj_fdivr_m32i           004d1d38 f   LIBCMTD:adj_fdiv.obj
 0001:000d0d6c       __safe_fdiv                004d1d6c f   LIBCMTD:adj_fdiv.obj
 0001:000d0d81       __safe_fdivr               004d1d81 f   LIBCMTD:adj_fdiv.obj
 0001:000d0d96       __fprem_common             004d1d96 f   LIBCMTD:adj_fdiv.obj
 0001:000d0f9c       __adj_fprem                004d1f9c f   LIBCMTD:adj_fdiv.obj
 0001:000d104e       __fprem1_common            004d204e f   LIBCMTD:adj_fdiv.obj
 0001:000d1254       __adj_fprem1               004d2254 f   LIBCMTD:adj_fdiv.obj
 0001:000d1309       __safe_fprem               004d2309 f   LIBCMTD:adj_fdiv.obj
 0001:000d130f       __safe_fprem1              004d230f f   LIBCMTD:adj_fdiv.obj
 0001:000d1315       __adj_fpatan               004d2315 f   LIBCMTD:adj_fdiv.obj
 0001:000d1318       __adj_fptan                004d2318 f   LIBCMTD:adj_fdiv.obj
 0001:000d1320       _setlocale                 004d2320 f   LIBCMTD:setlocal.obj
 0001:000d19b0       __expandlocale             004d29b0 f   LIBCMTD:setlocal.obj
 0001:000d1b40       ___init_dummy              004d2b40 f   LIBCMTD:setlocal.obj
 0001:000d1b50       __strcats                  004d2b50 f   LIBCMTD:setlocal.obj
 0001:000d1ba0       ___lc_strtolc              004d2ba0 f   LIBCMTD:setlocal.obj
 0001:000d1d00       ___lc_lctostr              004d2d00 f   LIBCMTD:setlocal.obj
 0001:000d1d70       ___crtLCMapStringA         004d2d70 f   LIBCMTD:a_map.obj
 0001:000d20d0       ___addl                    004d30d0 f   LIBCMTD:mantold.obj
 0001:000d2110       ___add_12                  004d3110 f   LIBCMTD:mantold.obj
 0001:000d21c0       ___shl_12                  004d31c0 f   LIBCMTD:mantold.obj
 0001:000d2220       ___shr_12                  004d3220 f   LIBCMTD:mantold.obj
 0001:000d2290       ___mtold12                 004d3290 f   LIBCMTD:mantold.obj
 0001:000d23d0       _$I10_OUTPUT               004d33d0 f   LIBCMTD:x10fout.obj
 0001:000d28f0       ___ld12mul                 004d38f0 f   LIBCMTD:tenpow.obj
 0001:000d2d30       ___multtenpow12            004d3d30 f   LIBCMTD:tenpow.obj
 0001:000d2e00       __read                     004d3e00 f   LIBCMTD:read.obj
 0001:000d2e90       __read_lk                  004d3e90 f   LIBCMTD:read.obj
 0001:000d32e0       __chsize                   004d42e0 f   LIBCMTD:chsize.obj
 0001:000d3360       __chsize_lk                004d4360 f   LIBCMTD:chsize.obj
 0001:000d3590       _getenv                    004d4590 f   LIBCMTD:getenv.obj
 0001:000d35c0       __getenv_lk                004d45c0 f   LIBCMTD:getenv.obj
 0001:000d3690       __toupper                  004d4690 f   LIBCMTD:toupper.obj
 0001:000d36a0       _toupper                   004d46a0 f   LIBCMTD:toupper.obj
 0001:000d3740       __toupper_lk               004d4740 f   LIBCMTD:toupper.obj
 0001:000d3870       __frnd                     004d4870 f   LIBCMTD:frnd.obj
 0001:000d3890       __copysign                 004d4890 f   LIBCMTD:ieeemisc.obj
 0001:000d38c0       __chgsign                  004d48c0 f   LIBCMTD:ieeemisc.obj
 0001:000d38f0       __scalb                    004d48f0 f   LIBCMTD:ieeemisc.obj
 0001:000d3910       __logb                     004d4910 f   LIBCMTD:ieeemisc.obj
 0001:000d3a40       __nextafter                004d4a40 f   LIBCMTD:ieeemisc.obj
 0001:000d3d80       __finite                   004d4d80 f   LIBCMTD:ieeemisc.obj
 0001:000d3db0       __isnan                    004d4db0 f   LIBCMTD:ieeemisc.obj
 0001:000d3e00       __fpclass                  004d4e00 f   LIBCMTD:ieeemisc.obj
 0001:000d3ee0       ___init_time               004d4ee0 f   LIBCMTD:inittime.obj
 0001:000d4860       ___init_numeric            004d5860 f   LIBCMTD:initnum.obj
 0001:000d4b90       ___init_monetary           004d5b90 f   LIBCMTD:initmon.obj
 0001:000d4ff0       ___init_ctype              004d5ff0 f   LIBCMTD:initctyp.obj
 0001:000d5390       ___init_collate            004d6390 f   LIBCMTD:initcoll.obj
 0001:000d53a0       _strcspn                   004d63a0 f   LIBCMTD:strcspn.obj
 0001:000d53e0       _strpbrk                   004d63e0 f   LIBCMTD:strpbrk.obj
 0001:000d5420       ___get_qualified_locale    004d6420 f   LIBCMTD:getqloc.obj
 0001:000d61c0       __setmode                  004d71c0 f   LIBCMTD:setmode.obj
 0001:000d6240       __setmode_lk               004d7240 f   LIBCMTD:setmode.obj
 0001:000d6310       __mbsnbicoll               004d7310 f   LIBCMTD:mbsnbico.obj
 0001:000d6360       ___wtomb_environ           004d7360 f   LIBCMTD:wtombenv.obj
 0001:000d6410       _ldexp                     004d7410 f   LIBCMTD:ldexp.obj
 0001:000d66d0       __Getdays                  004d76d0 f   LIBCMTD:strftime.obj
 0001:000d6800       __Getmonths                004d7800 f   LIBCMTD:strftime.obj
 0001:000d6930       __Gettnames                004d7930 f   LIBCMTD:strftime.obj
 0001:000d6ca0       _strftime                  004d7ca0 f   LIBCMTD:strftime.obj
 0001:000d6cc0       __Strftime                 004d7cc0 f   LIBCMTD:strftime.obj
 0001:000d7b40       ___getlocaleinfo           004d8b40 f   LIBCMTD:inithelp.obj
 0001:000d7dd0       _localeconv                004d8dd0 f   LIBCMTD:lconv.obj
 0001:000d7de0       ___crtGetStringTypeW       004d8de0 f   LIBCMTD:w_str.obj
 0001:000d8050       __stricmp                  004d9050 f   LIBCMTD:stricmp.obj
 0001:000d8050       __strcmpi                  004d9050 f   LIBCMTD:stricmp.obj
 0001:000d8120       __strnicmp                 004d9120 f   LIBCMTD:strnicmp.obj
 0001:000d8230       ___crtCompareStringA       004d9230 f   LIBCMTD:a_cmp.obj
 0001:000d8680       ___crtsetenv               004d9680 f   LIBCMTD:setenv.obj
 0001:000d8ad0       ___crtGetLocaleInfoW       004d9ad0 f   LIBCMTD:w_loc.obj
 0001:000d8c70       ___crtGetLocaleInfoA       004d9c70 f   LIBCMTD:a_loc.obj
 0001:000d8e20       __mbschr                   004d9e20 f   LIBCMTD:mbschr.obj
 0001:000d8f10       __strupr                   004d9f10 f   LIBCD:strupr.obj
 0001:000d8f10       _strupr                    004d9f10 f   LIBCD:strupr.obj
 0001:000d9010       _strlwr                    004da010 f   LIBCD:strlwr.obj
 0001:000d9010       __strlwr                   004da010 f   LIBCD:strlwr.obj
 0001:000d910a       _RtlUnwind@16              004da10a f   kernel32:KERNEL32.dll
 0001:000d9110       _ExitProcess@4             004da110 f   kernel32:KERNEL32.dll
 0001:000d9116       _TerminateProcess@8        004da116 f   kernel32:KERNEL32.dll
 0001:000d911c       _GetTimeZoneInformation@4  004da11c f   kernel32:KERNEL32.dll
 0001:000d9122       _GetModuleHandleA@4        004da122 f   kernel32:KERNEL32.dll
 0001:000d9128       _GetStartupInfoA@4         004da128 f   kernel32:KERNEL32.dll
 0001:000d912e       _GetCommandLineA@0         004da12e f   kernel32:KERNEL32.dll
 0001:000d9134       _GetVersion@0              004da134 f   kernel32:KERNEL32.dll
 0001:000d913a       _IsBadWritePtr@8           004da13a f   kernel32:KERNEL32.dll
 0001:000d9140       _IsBadReadPtr@8            004da140 f   kernel32:KERNEL32.dll
 0001:000d9146       _HeapValidate@12           004da146 f   kernel32:KERNEL32.dll
 0001:000d914c       _DebugBreak@0              004da14c f   kernel32:KERNEL32.dll
 0001:000d9152       _GetStdHandle@4            004da152 f   kernel32:KERNEL32.dll
 0001:000d9158       _InterlockedDecrement@4    004da158 f   kernel32:KERNEL32.dll
 0001:000d915e       _InterlockedIncrement@4    004da15e f   kernel32:KERNEL32.dll
 0001:000d9164       _FatalAppExitA@8           004da164 f   kernel32:KERNEL32.dll
 0001:000d916a       _SetHandleCount@4          004da16a f   kernel32:KERNEL32.dll
 0001:000d9170       _GetFileType@4             004da170 f   kernel32:KERNEL32.dll
 0001:000d9176       _GetCurrentThreadId@0      004da176 f   kernel32:KERNEL32.dll
 0001:000d917c       _TlsSetValue@8             004da17c f   kernel32:KERNEL32.dll
 0001:000d9182       _TlsAlloc@0                004da182 f   kernel32:KERNEL32.dll
 0001:000d9188       _TlsFree@4                 004da188 f   kernel32:KERNEL32.dll
 0001:000d918e       _SetLastError@4            004da18e f   kernel32:KERNEL32.dll
 0001:000d9194       _TlsGetValue@4             004da194 f   kernel32:KERNEL32.dll
 0001:000d919a       _GetCurrentThread@0        004da19a f   kernel32:KERNEL32.dll
 0001:000d91a0       _UnhandledExceptionFilter@4 004da1a0 f   kernel32:KERNEL32.dll
 0001:000d91a6       _FreeEnvironmentStringsA@4 004da1a6 f   kernel32:KERNEL32.dll
 0001:000d91ac       _FreeEnvironmentStringsW@4 004da1ac f   kernel32:KERNEL32.dll
 0001:000d91b2       _WideCharToMultiByte@32    004da1b2 f   kernel32:KERNEL32.dll
 0001:000d91b8       _GetEnvironmentStrings@0   004da1b8 f   kernel32:KERNEL32.dll
 0001:000d91be       _GetEnvironmentStringsW@0  004da1be f   kernel32:KERNEL32.dll
 0001:000d91c4       _GetEnvironmentVariableA@12 004da1c4 f   kernel32:KERNEL32.dll
 0001:000d91ca       _GetVersionExA@4           004da1ca f   kernel32:KERNEL32.dll
 0001:000d91d0       _HeapDestroy@4             004da1d0 f   kernel32:KERNEL32.dll
 0001:000d91d6       _HeapCreate@12             004da1d6 f   kernel32:KERNEL32.dll
 0001:000d91dc       _HeapFree@12               004da1dc f   kernel32:KERNEL32.dll
 0001:000d91e2       _VirtualFree@12            004da1e2 f   kernel32:KERNEL32.dll
 0001:000d91e8       _HeapAlloc@12              004da1e8 f   kernel32:KERNEL32.dll
 0001:000d91ee       _HeapReAlloc@16            004da1ee f   kernel32:KERNEL32.dll
 0001:000d91f4       _VirtualAlloc@16           004da1f4 f   kernel32:KERNEL32.dll
 0001:000d91fa       _RaiseException@16         004da1fa f   kernel32:KERNEL32.dll
 0001:000d9200       _SetConsoleCtrlHandler@8   004da200 f   kernel32:KERNEL32.dll
 0001:000d9206       _MultiByteToWideChar@24    004da206 f   kernel32:KERNEL32.dll
 0001:000d920c       _GetStringTypeA@20         004da20c f   kernel32:KERNEL32.dll
 0001:000d9212       _GetStringTypeW@16         004da212 f   kernel32:KERNEL32.dll
 0001:000d9218       _SetStdHandle@8            004da218 f   kernel32:KERNEL32.dll
 0001:000d921e       _FlushFileBuffers@4        004da21e f   kernel32:KERNEL32.dll
 0001:000d9224       _GetCPInfo@8               004da224 f   kernel32:KERNEL32.dll
 0001:000d922a       _GetACP@0                  004da22a f   kernel32:KERNEL32.dll
 0001:000d9230       _GetOEMCP@0                004da230 f   kernel32:KERNEL32.dll
 0001:000d9236       _LCMapStringA@24           004da236 f   kernel32:KERNEL32.dll
 0001:000d923c       _LCMapStringW@24           004da23c f   kernel32:KERNEL32.dll
 0001:000d9242       _SetEndOfFile@4            004da242 f   kernel32:KERNEL32.dll
 0001:000d9248       _IsValidLocale@8           004da248 f   kernel32:KERNEL32.dll
 0001:000d924e       _IsValidCodePage@4         004da24e f   kernel32:KERNEL32.dll
 0001:000d9254       _GetLocaleInfoA@16         004da254 f   kernel32:KERNEL32.dll
 0001:000d925a       _EnumSystemLocalesA@8      004da25a f   kernel32:KERNEL32.dll
 0001:000d9260       _GetUserDefaultLCID@0      004da260 f   kernel32:KERNEL32.dll
 0001:000d9266       _CompareStringA@24         004da266 f   kernel32:KERNEL32.dll
 0001:000d926c       _CompareStringW@24         004da26c f   kernel32:KERNEL32.dll
 0001:000d9272       _SetEnvironmentVariableA@8 004da272 f   kernel32:KERNEL32.dll
 0001:000d9278       _GetLocaleInfoW@16         004da278 f   kernel32:KERNEL32.dll
 0002:0000001c       ??_C@_0DL@IGPG@TSReader?3?5Completed?5AAC?5audio?5fo@ 004db01c     AACAudioDecoder.obj
 0002:00000058       ??_C@_0DN@CBPJ@AACDecoder?3?5?$CF02x?$CF02x?$CF02x?$CF02x?$CF02x@ 004db058     AACAudioDecoder.obj
 0002:00000098       ??_C@_0DM@OIKP@TSReader?3?5Completed?5AAC?5parser?5f@ 004db098     AACAudioDecoder.obj
 0002:000000d4       ??_C@_0BB@FOBF@A52?5init?5failed?6?$AA@ 004db0d4     AC3AudioDecoder.obj
 0002:000000e8       ??_C@_0BF@JEFA@Can?5not?5open?5output?6?$AA@ 004db0e8     AC3AudioDecoder.obj
 0002:00000100       ??_C@_0CB@MJOM@Can?8t?5locate?5null?5output?5driver?6@ 004db100     AC3AudioDecoder.obj
 0002:00000124       ??_C@_04GOCP@null?$AA@     004db124     AC3AudioDecoder.obj
 0002:0000012c       ??_C@_0DM@BCNA@TSReader?3?5Completed?5AC?93?5audio?5f@ 004db12c     AC3AudioDecoder.obj
 0002:00000168       ??_C@_0BL@FINO@Couldn?8t?5write?5pad?5buffer?$CB?$AA@ 004db168     bcdmux.obj
 0002:00000184       ??_C@_0BO@FIDP@Couldn?8t?5write?5system?5header?$CB?$AA@ 004db184     bcdmux.obj
 0002:000001a4       ??_C@_0CD@EKPN@Couldn?8t?5write?5system?5pack?5heade@ 004db1a4     bcdmux.obj
 0002:000001c8       ??_C@_0BI@JOAD@TSReaderMux?3?5ERROR?3?5?$CFs?6?$AA@ 004db1c8     bcdmux.obj
 0002:000001e0       ??_C@_0BN@FGKP@Failed?5to?5write?5output?5file?$CB?$AA@ 004db1e0     bcdmux.obj
 0002:00000200       ??_C@_0BM@NFIO@Couldn?8t?5write?5pack?5header?$CB?$AA@ 004db200     bcdmux.obj
 0002:0000021c       ??_C@_0BO@NGFM@Couldn?8t?5sync?5audio?5packet?52?$CB?$AA@ 004db21c     bcdmux.obj
 0002:0000023c       ??_C@_0BO@ONKD@Couldn?8t?5sync?5audio?5packet?51?$CB?$AA@ 004db23c     bcdmux.obj
 0002:0000025c       ??_C@_0CL@NFGB@Audio?5packet?5sync?5not?5found?5in?5s@ 004db25c     bcdmux.obj
 0002:00000288       ??_C@_0BP@PNIL@Invalid?5adapt?5len?5?$CIwas?5?$DO?5183?$CJ?$CB?$AA@ 004db288     bcdmux.obj
 0002:000002a8       ??_C@_0CA@FJAA@Bad?5adaption?5code?5?$CIcode?5was?50?$CJ?$CB?$AA@ 004db2a8     bcdmux.obj
 0002:000002c8       ??_C@_0BK@KNJM@TSReaderMux?3?5WARNING?3?5?$CFs?6?$AA@ 004db2c8     bcdmux.obj
 0002:000002e4       ??_C@_00A@?$AA@            004db2e4     charting.obj
 0002:000002e8       ??_C@_03OHFJ@n?1a?$AA@     004db2e8     charting.obj
 0002:000002ec       ??_C@_0BH@IKAP@PID?5Usage?52D?5Pie?5chart?$AA@ 004db2ec     charting.obj
 0002:00000304       ??_C@_0BH@OHOF@PID?5Usage?53D?5Pie?5chart?$AA@ 004db304     charting.obj
 0002:0000031c       ??_C@_09IMMN@PID?5Usage?$AA@ 004db31c     charting.obj
 0002:00000328       ??_C@_09BILE@?$CF02d?3?$CF02d?$AA@ 004db328     charting.obj
 0002:00000338       __real@4059000000000000    004db338     charting.obj
 0002:00000340       __real@4020000000000000    004db340     charting.obj
 0002:00000348       ??_C@_0BE@KEAK@Video?5Bitrate?5Chart?$AA@ 004db348     charting.obj
 0002:0000035c       ??_C@_07FPOF@Bitrate?$AA@  004db35c     charting.obj
 0002:00000364       ??_C@_04OAHI@Time?$AA@     004db364     charting.obj
 0002:00000370       __real@4024000000000000    004db370     charting.obj
 0002:00000378       ??_C@_0O@MCBH@Program?5?$CFd?$CFs?7?$AA@ 004db378     charting.obj
 0002:00000388       ??_C@_01FCOA@?5?$AA@       004db388     charting.obj
 0002:0000038c       ??_C@_0BJ@OFKN@Video?5Bitrate?5Line?5Chart?$AA@ 004db38c     charting.obj
 0002:000003a8       ??_C@_0BJ@HIDO@Video?5Bitrate?5Area?5Chart?$AA@ 004db3a8     charting.obj
 0002:000003c4       __real@42c80000            004db3c4     charting.obj
 0002:000003c8       ??_C@_0BC@BIAO@Percentage?5of?5mux?$AA@ 004db3c8     charting.obj
 0002:000003dc       ??_C@_0BE@PEBG@Other?7NULL?5Packets?7?$AA@ 004db3dc     charting.obj
 0002:000003f0       ??_C@_0BF@KEJD@Mux?5Usage?5Line?5Chart?$AA@ 004db3f0     charting.obj
 0002:00000408       ??_C@_0BF@DJAA@Mux?5Usage?5Area?5Chart?$AA@ 004db408     charting.obj
 0002:00000420       ??_C@_03KCAH@PID?$AA@      004db420     charting.obj
 0002:00000424       ??_C@_0BC@CFHG@Active?5PIDs?5Chart?$AA@ 004db424     charting.obj
 0002:00000438       __real@4034000000000000    004db438     charting.obj
 0002:00000440       __real@41000000            004db440     charting.obj
 0002:00000444       ??_C@_0N@GPIE@NULL?5Packets?$AA@ 004db444     charting.obj
 0002:00000454       ??_C@_0L@FOKC@Ghost?5Data?$AA@ 004db454     charting.obj
 0002:00000460       ??_C@_08GGGD@SI?1Other?$AA@ 004db460     charting.obj
 0002:0000046c       ??_C@_04KNMG@?$CFd?$CFs?$AA@ 004db46c     charting.obj
 0002:00000474       ??_C@_01GJD@?9?$AA@        004db474     charting.obj
 0002:00000478       ??_C@_0O@JGBE@Program?5Usage?$AA@ 004db478     charting.obj
 0002:00000488       ??_C@_05DJGJ@Other?$AA@    004db488     charting.obj
 0002:00000490       ??_C@_0O@EDNL@Virtual?5Audio?$AA@ 004db490     charting.obj
 0002:000004a0       ??_C@_0O@CEHD@Virtual?5Video?$AA@ 004db4a0     charting.obj
 0002:000004b0       ??_C@_05BHNM@Audio?$AA@    004db4b0     charting.obj
 0002:000004b8       ??_C@_05HAHE@Video?$AA@    004db4b8     charting.obj
 0002:000004c0       ??_C@_0BE@NFKN@Program?5Usage?5Chart?$AA@ 004db4c0     charting.obj
 0002:000004d4       ??_C@_06PPEH@Signal?$AA@   004db4d4     charting.obj
 0002:000004dc       ??_C@_07CBBL@Quality?$AA@  004db4dc     charting.obj
 0002:000004e4       ??_C@_03JOLM@BER?$AA@      004db4e4     charting.obj
 0002:000004e8       ??_C@_03GDGL@SNR?$AA@      004db4e8     charting.obj
 0002:000004ec       ??_C@_0P@JIEI@Signal?1Quality?$AA@ 004db4ec     charting.obj
 0002:000004fc       ??_C@_0P@CFLI@Bit?5Error?5Rate?$AA@ 004db4fc     charting.obj
 0002:0000050c       ??_C@_06KLK@dB?5SNR?$AA@   004db50c     charting.obj
 0002:00000514       ??_C@_0N@JCNO@Signal?5Chart?$AA@ 004db514     charting.obj
 0002:00000524       ??_C@_0BA@OFAC@Signal?7Quality?7?$AA@ 004db524     charting.obj
 0002:00000534       ??_C@_04JCLB@BER?7?$AA@    004db534     charting.obj
 0002:0000053c       ??_C@_07OCF@dB?5SNR?7?$AA@ 004db53c     charting.obj
 0002:00000544       ??_C@_0BI@HLHI@Video?5Composition?5Chart?$AA@ 004db544     charting.obj
 0002:0000055c       ??_C@_0N@DIFK@Program?5?$CFd?$CFs?$AA@ 004db55c     charting.obj
 0002:0000056c       ??_C@_0N@OIAM@Picture?5Type?$AA@ 004db56c     charting.obj
 0002:0000057c       ??_C@_0BB@HIHI@Bits?5per?5Picture?$AA@ 004db57c     charting.obj
 0002:00000590       ??_C@_0BC@HDDA@Video?5Composition?$AA@ 004db590     charting.obj
 0002:000005a4       ??_C@_0L@DBMP@Video?5Data?$AA@ 004db5a4     charting.obj
 0002:000005b0       ??_C@_0BJ@NEEN@Waiting?5for?5start?5of?5GOP?$AA@ 004db5b0     charting.obj
 0002:000005cc       ??_C@_0DG@NAEP@Picture?5Type?5?$CIMax?5GOP?5Length?3?5?$CFd@ 004db5cc     charting.obj
 0002:00000604       ??_C@_01PAOO@B?$AA@        004db604     charting.obj
 0002:00000608       ??_C@_01MLA@P?$AA@         004db608     charting.obj
 0002:0000060c       ??_C@_01FLOP@I?$AA@        004db60c     charting.obj
 0002:00000610       ??_C@_07NJIJ@?$CFd?4?5?5?$CFs?$AA@ 004db610     CI-CAM.obj
 0002:00000618       ??_C@_08MEHA@CAM?3?5?$CFs?6?$AA@ 004db618     CI-CAM.obj
 0002:00000624       ??_C@_03KPMP@EPG?$AA@      004db624     CI-CAM.obj
 0002:00000628       ??_C@_02JOAN@CA?$AA@       004db628     CI-CAM.obj
 0002:0000062c       ??_C@_0CC@EIIN@Unable?5to?5connect?5with?5the?5CI?9CA@ 004db62c     CI-CAM.obj
 0002:00000650       ??_C@_0DC@KNFN@Unable?5to?5locate?5source?5module?5C@ 004db650     CI-CAM.obj
 0002:00000684       ??_C@_0BC@BMNF@TSReader_CloseMMI?$AA@ 004db684     CI-CAM.obj
 0002:00000698       ??_C@_0BE@PILD@TSReader_GetAppInfo?$AA@ 004db698     CI-CAM.obj
 0002:000006ac       ??_C@_0BD@BNPI@TSReader_AnswerMMI?$AA@ 004db6ac     CI-CAM.obj
 0002:000006c0       ??_C@_0BA@MNKA@TSReader_GetMMI?$AA@ 004db6c0     CI-CAM.obj
 0002:000006d0       ??_C@_0BB@HKNH@TSReader_InitMMI?$AA@ 004db6d0     CI-CAM.obj
 0002:000006e4       ??_C@_06DJMI@WINDOW?$AA@   004db6e4     ControlServer.obj
 0002:000006ec       ??_C@_09EGIF@THUMBNAIL?$AA@ 004db6ec     ControlServer.obj
 0002:000006f8       ??_C@_04OHGF@TUNE?$AA@     004db6f8     ControlServer.obj
 0002:00000700       ??_C@_09CKBK@TERMINATE?$AA@ 004db700     ControlServer.obj
 0002:0000070c       ??_C@_04PANM@STOP?$AA@     004db70c     ControlServer.obj
 0002:00000714       ??_C@_05LGEB@STALL?$AA@    004db714     ControlServer.obj
 0002:0000071c       ??_C@_06GBGN@SOURCE?$AA@   004db71c     ControlServer.obj
 0002:00000724       ??_C@_07FEPP@SETTING?$AA@  004db724     ControlServer.obj
 0002:0000072c       ??_C@_06GGHG@SETVLC?$AA@   004db72c     ControlServer.obj
 0002:00000734       ??_C@_07NOJH@PROGRAM?$AA@  004db734     ControlServer.obj
 0002:0000073c       ??_C@_04EFKL@PIDS?$AA@     004db73c     ControlServer.obj
 0002:00000744       ??_C@_06ECGH@RECORD?$AA@   004db744     ControlServer.obj
 0002:0000074c       ??_C@_04DFMN@QUIT?$AA@     004db74c     ControlServer.obj
 0002:00000754       ??_C@_04BCHB@PLAY?$AA@     004db754     ControlServer.obj
 0002:0000075c       ??_C@_0O@ICMC@MANUALCHANNEL?$AA@ 004db75c     ControlServer.obj
 0002:0000076c       ??_C@_04NLOI@INFO?$AA@     004db76c     ControlServer.obj
 0002:00000774       ??_C@_04KIBI@HELP?$AA@     004db774     ControlServer.obj
 0002:0000077c       ??_C@_05MEGG@GRAPH?$AA@    004db77c     ControlServer.obj
 0002:00000784       ??_C@_06EAGN@EXPORT?$AA@   004db784     ControlServer.obj
 0002:0000078c       ??_C@_05HIPJ@AUDIO?$AA@    004db78c     ControlServer.obj
 0002:00000794       ??_C@_0BI@NCP@502?5Program?5not?5found?$AN?6?$AA@ 004db794     ControlServer.obj
 0002:000007ac       ??_C@_02MECO@?$CFd?$AA@    004db7ac     ControlServer.obj
 0002:000007b0       ??_C@_02PIMC@?$AN?6?$AA@   004db7b0     ControlServer.obj
 0002:000007b4       ??_C@_02IGCE@?5?$CK?$AA@   004db7b4     ControlServer.obj
 0002:000007b8       ??_C@_07JCCK@202?5?$CF5d?$AA@ 004db7b8     ControlServer.obj
 0002:000007c0       ??_C@_0L@PDDG@202?5?$CF5d?5?$CFs?$AA@ 004db7c0     ControlServer.obj
 0002:000007cc       ??_C@_05FFAI@xyzzy?$AA@    004db7cc     ControlServer.obj
 0002:000007d4       ??_C@_0CC@EAGE@209?50x?$CF04x?5?$CFd?5?$CFd?5?$CF?42f?5?$CF?43f?5?$CC?$CFs?$CC?$AN@ 004db7d4     ControlServer.obj
 0002:000007f8       __real@408f400000000000    004db7f8     ControlServer.obj
 0002:00000800       __real@0000000000000000    004db800     ControlServer.obj
 0002:00000808       ??_C@_03KPHC@XNS?$AA@      004db808     ControlServer.obj
 0002:0000080c       ??_C@_07FGDJ@STRADIS?$AA@  004db80c     ControlServer.obj
 0002:00000814       ??_C@_04MIAL@ROKU?$AA@     004db814     ControlServer.obj
 0002:0000081c       ??_C@_0BP@KPAL@325?5Specified?5counters?5reset?$AN?6?$AA@ 004db81c     ControlServer.obj
 0002:0000083c       ??_C@_03MJMD@ALL?$AA@      004db83c     ControlServer.obj
 0002:00000840       ??_C@_0BO@NPEM@510?5Record?5filename?5missing?$AN?6?$AA@ 004db840     ControlServer.obj
 0002:00000860       ??_C@_05BNEG@D?9VHS?$AA@   004db860     ControlServer.obj
 0002:00000868       ??_C@_0DB@CCEB@207?5Recording?5PROGRAM?5to?5?$CC?$CFs?$CC?5?$CF?4@ 004db868     ControlServer.obj
 0002:0000089c       ??_C@_0CH@IOJN@207?5Streaming?5to?5unknown?5destina@ 004db89c     ControlServer.obj
 0002:000008c4       ??_C@_0BI@NMDP@207?5Streaming?5to?5ROKU?$AN?6?$AA@ 004db8c4     ControlServer.obj
 0002:000008dc       ??_C@_0BH@PGFF@207?5Streaming?5to?5VLC?$AN?6?$AA@ 004db8dc     ControlServer.obj
 0002:000008f4       ??_C@_0CL@ECEH@207?5Recording?5to?5D?9VHS?4?5?$CF?43f?5GB?5@ 004db8f4     ControlServer.obj
 0002:00000920       ??_C@_0BH@FMGO@207?5Streaming?5to?5XNS?$AN?6?$AA@ 004db920     ControlServer.obj
 0002:00000938       ??_C@_0BO@MBMK@207?5Streaming?5to?5DIRECTSHOW?$AN?6?$AA@ 004db938     ControlServer.obj
 0002:00000958       ??_C@_0BL@KIFP@207?5Streaming?5to?5STRADIS?$AN?6?$AA@ 004db958     ControlServer.obj
 0002:00000974       ??_C@_0CN@HAGI@207?5Recording?5ALL?5to?5?$CC?$CFs?$CC?5?$CF?43f?5G@ 004db974     ControlServer.obj
 0002:000009a8       __real@4090000000000000    004db9a8     ControlServer.obj
 0002:000009b0       ??_C@_05PAAF@XMLTV?$AA@    004db9b0     ControlServer.obj
 0002:000009b8       ??_C@_03DMKA@XML?$AA@      004db9b8     ControlServer.obj
 0002:000009bc       ??_C@_04JKFK@HTML?$AA@     004db9bc     ControlServer.obj
 0002:000009c4       ??_C@_02JDLK@?$CFx?$AA@    004db9c4     ControlServer.obj
 0002:000009c8       ??_C@_05NAAJ@HTML?9?$AA@   004db9c8     ControlServer.obj
 0002:000009d0       ??_C@_0CF@GMMP@208?5?$CFs?5Sections?3?5?$CFd?5CRC?5Errors?3?5@ 004db9d0     ControlServer.obj
 0002:000009f8       ??_C@_0BE@JAE@Manual?5?9?5Program?5?$CFd?$AA@ 004db9f8     ControlServer.obj
 0002:00000a0c       ??_C@_05HEAD@?$CFx?5?$CFx?$AA@ 004dba0c     ControlServer.obj
 0002:00000a14       ??_C@_05JOPK@?$CFd?5?$CFx?$AA@ 004dba14     ControlServer.obj
 0002:00000a1c       ??_C@_0CC@IGCE@208?5Data?5Last?5second?3?5?$CF?43f?5Mbit?$AN@ 004dba1c     ControlServer.obj
 0002:00000a40       ??_C@_0CE@GLEH@208?5Calculated?5multiplex?5rate?3?5?$CF@ 004dba40     ControlServer.obj
 0002:00000a64       ??_C@_08HCKC@?$CF?40f?5bps?$AA@ 004dba64     ControlServer.obj
 0002:00000a70       ??_C@_0BC@ODHN@208?5Retunes?3?5?$CFd?$AN?6?$AA@ 004dba70     ControlServer.obj
 0002:00000a84       ??_C@_0BG@FPCE@208?5Sync?5Losses?3?5?$CFd?$AN?6?$AA@ 004dba84     ControlServer.obj
 0002:00000a9c       ??_C@_0BF@DBNM@208?5TEI?5errors?3?5?$CFd?$AN?6?$AA@ 004dba9c     ControlServer.obj
 0002:00000ab4       ??_C@_0BM@LJFM@208?5Continuity?5errors?3?5?$CFd?$AN?6?$AA@ 004dbab4     ControlServer.obj
 0002:00000ad0       ??_C@_03DAFB@EIT?$AA@      004dbad0     ControlServer.obj
 0002:00000ad4       ??_C@_03FBNN@PMT?$AA@      004dbad4     ControlServer.obj
 0002:00000ad8       ??_C@_03GJHC@CAT?$AA@      004dbad8     ControlServer.obj
 0002:00000adc       ??_C@_03LOCD@PAT?$AA@      004dbadc     ControlServer.obj
 0002:00000ae0       ??_C@_04FGLE@PSIP?$AA@     004dbae0     ControlServer.obj
 0002:00000ae8       ??_C@_03KDKM@ETT?$AA@      004dbae8     ControlServer.obj
 0002:00000aec       ??_C@_03EBI@SDT?$AA@       004dbaec     ControlServer.obj
 0002:00000af0       ??_C@_03FGNP@NIT?$AA@      004dbaf0     ControlServer.obj
 0002:00000af4       ??_C@_04HMEP@MPEG?$AA@     004dbaf4     ControlServer.obj
 0002:00000afc       ??_C@_08JJJB@208?5?$CFs?$AN?6?$AA@ 004dbafc     ControlServer.obj
 0002:00000b08       ??_C@_0L@KBIA@FOREGROUND?$AA@ 004dbb08     ControlServer.obj
 0002:00000b14       ??_C@_07CGJO@RESTORE?$AA@  004dbb14     ControlServer.obj
 0002:00000b1c       ??_C@_08LJIG@MINIMIZE?$AA@ 004dbb1c     ControlServer.obj
 0002:00000b28       ??_C@_08OKOJ@MAXIMIZE?$AA@ 004dbb28     ControlServer.obj
 0002:00000b34       ??_C@_07KAOJ@refresh?$AA@  004dbb34     ControlServer.obj
 0002:00000b3c       ??_C@_04GMLB@high?$AA@     004dbb3c     ControlServer.obj
 0002:00000b44       ??_C@_06KMLP@normal?$AA@   004dbb44     ControlServer.obj
 0002:00000b4c       ??_C@_03LPND@low?$AA@      004dbb4c     ControlServer.obj
 0002:00000b50       ??_C@_03OJPB@off?$AA@      004dbb50     ControlServer.obj
 0002:00000b54       ??_C@_07KNNG@REFRESH?$AA@  004dbb54     ControlServer.obj
 0002:00000b5c       ??_C@_07BPJF@AVERAGE?$AA@  004dbb5c     ControlServer.obj
 0002:00000b64       ??_C@_08HIOH@REALTIME?$AA@ 004dbb64     ControlServer.obj
 0002:00000b70       ??_C@_0BK@BBHC@TSReader_ParseCommandLine?$AA@ 004dbb70     ControlServer.obj
 0002:00000b8c       ??_C@_0BG@GJDK@204?5?$CF02d?5?$CFs?$AN?6205?5?$CFs?$AN?6?$AA@ 004dbb8c     ControlServer.obj
 0002:00000ba4       ??_C@_0CF@JNKO@549?5SETTING?5subparameter?5incorre@ 004dbba4     ControlServer.obj
 0002:00000bcc       ??_C@_0BB@BLEJ@KEEP_SPECIAL_XML?$AA@ 004dbbcc     ControlServer.obj
 0002:00000be0       ??_C@_0BF@CNBE@PLAIN_CA_DESCRIPTORS?$AA@ 004dbbe0     ControlServer.obj
 0002:00000bf8       ??_C@_0BH@NLCO@IGNORE_PMT_ABOVE_65500?$AA@ 004dbbf8     ControlServer.obj
 0002:00000c10       ??_C@_0BB@HFPC@IGNORE_DCIIPMT80?$AA@ 004dbc10     ControlServer.obj
 0002:00000c24       ??_C@_0L@BLDO@IGNORE_CRC?$AA@ 004dbc24     ControlServer.obj
 0002:00000c30       ??_C@_08OEBF@PAST_EIT?$AA@ 004dbc30     ControlServer.obj
 0002:00000c3c       ??_C@_0BA@JBAJ@SDT_CURRENT_MUX?$AA@ 004dbc3c     ControlServer.obj
 0002:00000c4c       ??_C@_0O@GAPG@IGNORE_EITSDT?$AA@ 004dbc4c     ControlServer.obj
 0002:00000c5c       ??_C@_0CL@GPLI@548?5SETTING?5true?1false?5setting?5i@ 004dbc5c     ControlServer.obj
 0002:00000c88       ??_C@_0CM@DPI@547?5SETTING?5subparameter?5or?5valu@ 004dbc88     ControlServer.obj
 0002:00000cb4       ??_C@_05JKGE@?$CFs?5?$CFs?$AA@ 004dbcb4     ControlServer.obj
 0002:00000cbc       ??_C@_0BG@MAEJ@323?5SETTING?5updated?$AN?6?$AA@ 004dbcbc     ControlServer.obj
 0002:00000cd4       ??_C@_0CC@BMAM@210?5SETTING?5KEEP_SPECIAL_XML?5?$CFs?$AN@ 004dbcd4     ControlServer.obj
 0002:00000cf8       ??_C@_0CG@OBAA@210?5SETTING?5PLAIN_CA_DESCRIPTORS@ 004dbcf8     ControlServer.obj
 0002:00000d20       ??_C@_0CI@MIGA@210?5SETTING?5IGNORE_PMT_ABOVE_655@ 004dbd20     ControlServer.obj
 0002:00000d48       ??_C@_0CC@CKKA@210?5SETTING?5IGNORE_DCIIPMT80?5?$CFs?$AN@ 004dbd48     ControlServer.obj
 0002:00000d6c       ??_C@_0BM@NLAN@210?5SETTING?5IGNORE_CRC?5?$CFs?$AN?6?$AA@ 004dbd6c     ControlServer.obj
 0002:00000d88       ??_C@_0BK@DMFG@210?5SETTING?5PAST_EIT?5?$CFs?$AN?6?$AA@ 004dbd88     ControlServer.obj
 0002:00000da4       ??_C@_0CB@NDON@210?5SETTING?5SDT_CURRENT_MUX?5?$CFs?$AN?6@ 004dbda4     ControlServer.obj
 0002:00000dc8       ??_C@_0BP@KPN@210?5SETTING?5IGNORE_EITSDT?5?$CFs?$AN?6?$AA@ 004dbdc8     ControlServer.obj
 0002:00000de8       ??_C@_06CJEC@203?5?$CFs?$AA@ 004dbde8     ControlServer.obj
 0002:00000df0       ??_C@_0BF@GBGG@TSReader_Twinhan?4dll?$AA@ 004dbdf0     ControlServer.obj
 0002:00000e08       ??_C@_0BG@JEEL@TSReader_Twinhan2?4dll?$AA@ 004dbe08     ControlServer.obj
 0002:00000e20       ??_C@_0BG@MAPM@TSReader_TTBudget?4dll?$AA@ 004dbe20     ControlServer.obj
 0002:00000e38       ??_C@_0O@JBII@?$CFs?2Sources?2?$CFs?$AA@ 004dbe38     ControlServer.obj
 0002:00000e48       ??_C@_01NON@_?$AA@         004dbe48     ControlServer.obj
 0002:00000e4c       ??_C@_0BB@KIGB@?$CFs?2Sources?2?$CK?4dll?$AA@ 004dbe4c     ControlServer.obj
 0002:00000e60       ??_C@_0CP@BBKL@519?5Source?5specified?5isn?8t?5a?5TSR@ 004dbe60     ControlServer.obj
 0002:00000e90       ??_C@_0EA@GLKO@300?5Source?5updated?5?9?5use?5the?5TUN@ 004dbe90     ControlServer.obj
 0002:00000ed0       ??_C@_0BI@BFML@TSReader_GetDescription?$AA@ 004dbed0     ControlServer.obj
 0002:00000ee8       ??_C@_0CB@HDBO@518?5Unable?5to?5load?5source?5file?$AN?6@ 004dbee8     ControlServer.obj
 0002:00000f0c       ??_C@_09KMHH@?2Sources?2?$AA@ 004dbf0c     ControlServer.obj
 0002:00000f18       ??_C@_05FOIP@?5?$CI?$CFs?$CJ?$AA@ 004dbf18     ControlServer.obj
 0002:00000f20       ??_C@_0M@DCLG@206?5?$CF02d?5?$CFs?$AA@ 004dbf20     ControlServer.obj
 0002:00000f2c       ??_C@_0BE@IDED@TSReader_SendDiSEqC?$AA@ 004dbf2c     ControlServer.obj
 0002:00000f40       ??_C@_0M@ENLH@?5THUMBNAILS?$AA@ 004dbf40     ControlServer.obj
 0002:00000f4c       ??_C@_0CA@PHDK@TSReader?3?5?9ControlServerThread?6?$AA@ 004dbf4c     ControlServer.obj
 0002:00000f6c       ??_C@_05LNGG@RESET?$AA@    004dbf6c     ControlServer.obj
 0002:00000f74       ??_C@_06OLLJ@DISEQC?$AA@   004dbf74     ControlServer.obj
 0002:00000f7c       ??_C@_01PKMN@?$DP?$AA@     004dbf7c     ControlServer.obj
 0002:00000f80       ??_C@_0CH@KIHC@TSReader?3?5Control?5server?5command@ 004dbf80     ControlServer.obj
 0002:00000fa8       ??_C@_0CJ@GNMC@200?5TSReader?5version?5?$CFs?5Control?5@ 004dbfa8     ControlServer.obj
 0002:00000fd4       ??_C@_0DI@KHCB@TSReader?3?5Accepted?5control?5conne@ 004dbfd4     ControlServer.obj
 0002:0000100c       ??_C@_0CK@OGNP@TSReader?3?5accept?5failed?5in?5Contr@ 004dc00c     ControlServer.obj
 0002:00001038       ??_C@_0CM@IFBJ@TSReader?3?5listen?$CIControlBaseSock@ 004dc038     ControlServer.obj
 0002:00001064       ??_C@_0CA@JGLC@TSReader?3?5?$CLControlServerThread?6?$AA@ 004dc064     ControlServer.obj
 0002:00001084       ??_C@_0CI@ECJI@MPEG?92?5Program?5?$CFd?5Virtual?5Channe@ 004dc084     EPGGrid.obj
 0002:000010ac       ??_C@_01KMMP@?$CJ?$AA@     004dc0ac     EPGGrid.obj
 0002:000010b0       ??_C@_02NDAK@?5?$CI?$AA@   004dc0b0     EPGGrid.obj
 0002:000010b4       ??_C@_01FIMD@?$FN?$AA@     004dc0b4     EPGGrid.obj
 0002:000010b8       ??_C@_02HCOD@?5?$FL?$AA@   004dc0b8     EPGGrid.obj
 0002:000010bc       ??_C@_06MCLM@Region?$AA@   004dc0bc     EPGGrid.obj
 0002:000010c4       ??_C@_05MBFG@TV?9MA?$AA@   004dc0c4     EPGGrid.obj
 0002:000010cc       ??_C@_05GFGN@TV?914?$AA@   004dc0cc     EPGGrid.obj
 0002:000010d4       ??_C@_05KNNJ@TV?9PG?$AA@   004dc0d4     EPGGrid.obj
 0002:000010dc       ??_C@_04HI@TV?9G?$AA@      004dc0dc     EPGGrid.obj
 0002:000010e4       ??_C@_04CMC@TV?9Y?$AA@     004dc0e4     EPGGrid.obj
 0002:000010ec       ??_C@_05FAHH@TV?9Y7?$AA@   004dc0ec     EPGGrid.obj
 0002:000010f4       ??_C@_07PKO@EIT?3?5?$CFs?$AA@ 004dc0f4     EPGGrid.obj
 0002:000010fc       ??_C@_0BI@PEFB@Duration?5?$CF02d?3?$CF02d?3?$CF02d?$AA@ 004dc0fc     EPGGrid.obj
 0002:00001118       ??_C@_0EJ@GLOE@EPGGrid?4c?3?5LocalAlloc?$CILPTR?0?5nEIT@ 004dc118     EPGGrid.obj
 0002:00001168       ??_C@_0EE@BAOM@Not?5enough?5room?5in?5screenevents?5@ 004dc168     EPGGrid.obj
 0002:000011ac       ??_C@_04MOFI@?$CFs?$CFd?$AA@ 004dc1ac     EPGGrid.obj
 0002:000011b4       ??_C@_03COHJ@?$CFd?1?$AA@  004dc1b4     EPGGrid.obj
 0002:000011b8       ??_C@_08LHKP@?$CFd?4?$CFd?5?9?5?$AA@ 004dc1b8     EPGGrid.obj
 0002:000011c4       ??_C@_0CA@ENMG@Not?5enough?5room?5in?5screenevents?$AA@ 004dc1c4     EPGGrid.obj
 0002:000011e4       ??_C@_0P@IPHL@?$CF04d?1?$CF02d?1?$CF02d?$AA@ 004dc1e4     EPGGrid.obj
 0002:000011f4       ??_C@_01FIAI@X?$AA@        004dc1f4     EPGGrid.obj
 0002:000011f8       ??_C@_0EO@CGOA@EPGGrid?4c?3?5LocalAlloc?$CILPTR?0?5size@ 004dc1f8     EPGGrid.obj
 0002:00001248       ??_C@_05CNHG@Arial?$AA@    004dc248     EPGGrid.obj
 0002:00001250       ??_C@_0O@BJCK@Nothing?5found?$AA@ 004dc250     EPGGrid.obj
 0002:00001260       ??_C@_0CG@KNAJ@Please?5select?5what?5you?5wish?5to?5s@ 004dc260     EPGGrid.obj
 0002:00001288       ??_C@_0P@INAO@?$CF02d?3?$CF02d?3?$CF02d?$AA@ 004dc288     EPGGrid.obj
 0002:00001298       ??_C@_05LFKM@?$CFd?4?$CFd?$AA@ 004dc298     EPGGrid.obj
 0002:000012a0       ??_C@_0FF@HPAJ@Failed?5to?5create?5a?5scheduled?5eve@ 004dc2a0     EPGGrid.obj
 0002:000012f8       ??_C@_0CB@NHNH@Do?5NOT?5alter?5this?$CB?5TSReader?3?$FL?$CFs?$FN@ 004dc2f8     EPGGrid.obj
 0002:00001320       ??_C@_0EF@JBED@Too?5many?5scheduled?5events?5?9?5plea@ 004dc320     EPGGrid.obj
 0002:00001368       ??_C@_04OBKB@?$CF02x?$AA@  004dc368     EPGGrid.obj
 0002:00001370       ??_C@_0BB@OGNF@Manual?5Recording?$AA@ 004dc370     EPGGrid.obj
 0002:00001384       ??_C@_0CC@KEHJ@?$CFs?9s?5?$CFs?5?9Mm?5?9i?5?$CFs?9r?5?$CFd?5?$CC?$CFs?$CC?5?$CFd?5?$CF@ 004dc384     EPGGrid.obj
 0002:000013a8       ??_C@_03IPJC@?9p?5?$AA@    004dc3a8     EPGGrid.obj
 0002:000013ac       ??_C@_08LNLN@?$CFs?$CFs?4mpg?$AA@ 004dc3ac     EPGGrid.obj
 0002:000013b8       ??_C@_0DA@OJMC@?$CF04d?$CF02d?$CF02d?3?$CF02d?$CF02d?$CF02d?9?$CFd?5?9?5M@ 004dc3b8     EPGGrid.obj
 0002:000013e8       ??_C@_0CC@BIDO@Please?5set?5the?5recording?5duratio@ 004dc3e8     EPGGrid.obj
 0002:0000140c       ??_C@_0CD@IPHB@Please?5set?5the?5MPEG?5program?5numb@ 004dc40c     EPGGrid.obj
 0002:00001430       ??_C@_0M@LCDJ@?$CFd?5?$CFd?5?$CFd?5?$CFd?$AA@ 004dc430     EPGGrid.obj
 0002:0000143c       ??_C@_08NNKG@?$CFd?5?$CFd?5?$CFd?$AA@ 004dc43c     EPGGrid.obj
 0002:00001448       ??_C@_0BF@BOJH@?$CFd?5?$CFd?5?$CFd?5?$CFd?5?$CFd?5?$CFd?5?$CFd?$AA@ 004dc448     EPGGrid.obj
 0002:00001460       ??_C@_03IGPL@?5?$CFd?$AA@  004dc460     EPGGrid.obj
 0002:00001464       ??_C@_0P@BHCB@?$CFd?5?$CFd?5?$CFd?5?$CFd?5?$CFd?$AA@ 004dc464     EPGGrid.obj
 0002:00001474       ??_C@_08GDBF@HH?3mm?3ss?$AA@ 004dc474     EPGGrid.obj
 0002:00001480       ??_C@_07BBM@Program?$AA@   004dc480     EPGGrid.obj
 0002:00001488       ??_C@_08ONKA@Duration?$AA@ 004dc488     EPGGrid.obj
 0002:00001494       ??_C@_0M@OBDL@Date?5?$CG?5Time?$AA@ 004dc494     EPGGrid.obj
 0002:000014a0       ??_C@_07IADE@Channel?$AA@  004dc4a0     EPGGrid.obj
 0002:000014a8       ??_C@_0CM@CHII@Unable?5to?5locate?5any?5channel?5wit@ 004dc4a8     EPGGrid.obj
 0002:000014d4       ??_C@_0BI@PAOB@Schedule_DeleteSchedule?$AA@ 004dc4d4     EPGGrid.obj
 0002:000014ec       ??_C@_0BE@GNMM@Scheduler_EnumTasks?$AA@ 004dc4ec     EPGGrid.obj
 0002:00001500       ??_C@_0BI@IJNI@Scheduler_CreateNewTask?$AA@ 004dc500     EPGGrid.obj
 0002:00001518       ??_C@_0BP@KEOI@Scheduler_EnsureServiceRunning?$AA@ 004dc518     EPGGrid.obj
 0002:00001538       ??_C@_0BI@JNPD@?2TSReader_Scheduler?4dll?$AA@ 004dc538     EPGGrid.obj
 0002:00001550       ??_C@_0BE@BFAG@Record?5?$CFd?5?$CI?$CFs?$CJ?5?9?5?$CFs?$AA@ 004dc550     EPGGrid.obj
 0002:00001564       ??_C@_0DA@OKBI@Record?5?$CFd?5?$CI?$CFs?$CJ?5?9?5?$CFs?5?9?5?$CF04d?$CF02d?$CF0@ 004dc564     EPGGrid.obj
 0002:00001598       ??_C@_0GG@EAGG@One?5or?5more?5settings?5required?5fo@ 004dc598     EPGGrid.obj
 0002:00001600       ??_C@_0N@NOPM@?$CFd?5?$CI?$CFs?$CJ?5?9?5?$CFs?$AA@ 004dc600     EPGGrid.obj
 0002:00001610       ??_C@_0CH@IKFN@?$CF04d?$CF02d?$CF02d?3?$CF02d?$CF02d?$CF02d?9?$CFd?5?$CI?$CFs@ 004dc610     EPGGrid.obj
 0002:00001638       ??_C@_0BL@LCDM@Remaining?3?5?$CF02d?3?$CF02d?3?$CF02d?6?$AA@ 004dc638     EPGGrid.obj
 0002:00001658       ??_C@_0IE@IOIN@This?5program?5is?5currently?5runnin@ 004dc658     EPGGrid.obj
 0002:000016e0       ??_C@_0LN@ICJE@This?5recording?5overlaps?5with?5a?5r@ 004dc6e0     EPGGrid.obj
 0002:000017a0       ??_C@_0GI@EMPH@Unable?5to?5schedule?5recording?5?9?5a@ 004dc7a0     EPGGrid.obj
 0002:00001808       ??_C@_0II@DKDJ@This?5event?5is?5in?5the?5past?5and?5de@ 004dc808     EPGGrid.obj
 0002:00001890       ??_C@_05KGGA@0?$CF03d?$AA@ 004dc890     EPGGrid.obj
 0002:00001898       ??_C@_0HP@HGLH@Unable?5to?5locate?5network?5informa@ 004dc898     EPGGrid.obj
 0002:00001918       ??_C@_01KPOD@?$DN?$AA@     004dc918     EPGGrid.obj
 0002:0000191c       ??_C@_08PLDJ@?$FLEPGMAP?$FN?$AA@ 004dc91c     EPGGrid.obj
 0002:00001928       ??_C@_0M@HLGK@?2epgmap?4ini?$AA@ 004dc928     EPGGrid.obj
 0002:00001938       ??_C@_0CCD@NCD@Keys?5available?5in?5the?5EPG?5Grid?3?6@ 004dc938     EPGGrid.obj
 0002:00001b60       ??_C@_0FI@BNBI@Currently?5tuning?5and?5scheduling?5@ 004dcb60     EPGGrid.obj
 0002:00001bb8       _AC3frmsizecod_tbl         004dcbb8     formatter.obj
 0002:00001e18       _DTSSamplingRates          004dce18     formatter.obj
 0002:00001e98       _DTSBitRates               004dce98     formatter.obj
 0002:00001f98       __real@405b000000000000    004dcf98     formatter.obj
 0002:00001fa0       __real@4052000000000000    004dcfa0     formatter.obj
 0002:00001fa8       __real@404b000000000000    004dcfa8     formatter.obj
 0002:00001fb0       __real@4048000000000000    004dcfb0     formatter.obj
 0002:00001fb8       __real@4046000000000000    004dcfb8     formatter.obj
 0002:00001fc0       __real@4041800000000000    004dcfc0     formatter.obj
 0002:00001fc8       __real@403b000000000000    004dcfc8     formatter.obj
 0002:00001fd0       __real@4041000000000000    004dcfd0     formatter.obj
 0002:00001fd8       __real@4039000000000000    004dcfd8     formatter.obj
 0002:00001fe0       __real@402b000000000000    004dcfe0     formatter.obj
 0002:00001fe8       __real@4038000000000000    004dcfe8     formatter.obj
 0002:00001ff0       __real@4030000000000000    004dcff0     formatter.obj
 0002:00001ff8       __real@401b000000000000    004dcff8     formatter.obj
 0002:00002000       __real@401a000000000000    004dd000     formatter.obj
 0002:00002008       __real@4018000000000000    004dd008     formatter.obj
 0002:00002010       __real@4016000000000000    004dd010     formatter.obj
 0002:00002018       __real@4014000000000000    004dd018     formatter.obj
 0002:00002020       __real@4012000000000000    004dd020     formatter.obj
 0002:00002028       __real@4010000000000000    004dd028     formatter.obj
 0002:00002030       __real@400c000000000000    004dd030     formatter.obj
 0002:00002038       __real@400b000000000000    004dd038     formatter.obj
 0002:00002040       __real@4008000000000000    004dd040     formatter.obj
 0002:00002048       __real@4004000000000000    004dd048     formatter.obj
 0002:00002050       __real@4002000000000000    004dd050     formatter.obj
 0002:00002058       __real@4000000000000000    004dd058     formatter.obj
 0002:00002060       __real@3ffb000000000000    004dd060     formatter.obj
 0002:00002068       __real@3ff8000000000000    004dd068     formatter.obj
 0002:00002070       __real@3ff2000000000000    004dd070     formatter.obj
 0002:00002078       __real@3ff0000000000000    004dd078     formatter.obj
 0002:00002080       __real@3feaff972474538f    004dd080     formatter.obj
 0002:00002088       __real@3fe2000000000000    004dd088     formatter.obj
 0002:00002090       __real@3fe0000000000000    004dd090     formatter.obj
 0002:00002098       __real@3fb3333333333333    004dd098     formatter.obj
 0002:000020a0       __real@3f9d7dbf487fcb92    004dd0a0     formatter.obj
 0002:000020a8       __real@3f961e4f765fd8ae    004dd0a8     formatter.obj
 0002:000020b0       __real@3f8d7dbf487fcb92    004dd0b0     formatter.obj
 0002:000020b8       __real@3f861e4f765fd8ae    004dd0b8     formatter.obj
 0002:000020c0       __real@3f7d7dbf487fcb92    004dd0c0     formatter.obj
 0002:000020c8       __real@3f6d7dbf487fcb92    004dd0c8     formatter.obj
 0002:000020d0       __real@3f5d7dbf487fcb92    004dd0d0     formatter.obj
 0002:000020d8       __real@3f4d7dbf487fcb92    004dd0d8     formatter.obj
 0002:000020e0       __real@bff0000000000000    004dd0e0     formatter.obj
 0002:000020e8       ??_C@_0BB@HHBM@Unknown?5?$CI0x?$CF02x?$CJ?$AA@ 004dd0e8     formatter.obj
 0002:000020fc       ??_C@_03GBPN@1?11?$AA@     004dd0fc     formatter.obj
 0002:00002100       ??_C@_04MOGB@9?110?$AA@    004dd100     formatter.obj
 0002:00002108       ??_C@_03NBON@4?15?$AA@     004dd108     formatter.obj
 0002:0000210c       ??_C@_03GPIM@3?15?$AA@     004dd10c     formatter.obj
 0002:00002110       ??_C@_03PHOG@8?19?$AA@     004dd110     formatter.obj
 0002:00002114       ??_C@_03HDKF@7?18?$AA@     004dd114     formatter.obj
 0002:00002118       ??_C@_03HMEC@5?16?$AA@     004dd118     formatter.obj
 0002:0000211c       ??_C@_03MFBL@3?14?$AA@     004dd11c     formatter.obj
 0002:00002120       ??_C@_03MCOI@2?13?$AA@     004dd120     formatter.obj
 0002:00002124       ??_C@_03JOEE@1?12?$AA@     004dd124     formatter.obj
 0002:00002128       ??_C@_03GBDG@1?14?$AA@     004dd128     formatter.obj
 0002:0000212c       ??_C@_03JPNC@1?18?$AA@     004dd12c     formatter.obj
 0002:00002130       ??_C@_04BLID@1?116?$AA@    004dd130     formatter.obj
 0002:00002138       ??_C@_04JMIK@1?132?$AA@    004dd138     formatter.obj
 0002:00002140       ??_C@_0BI@GKIG@reserved?5for?5future?5use?$AA@ 004dd140     formatter.obj
 0002:00002158       ??_C@_07BFKO@4k?5mode?$AA@ 004dd158     formatter.obj
 0002:00002160       ??_C@_07NLFF@8k?5mode?$AA@ 004dd160     formatter.obj
 0002:00002168       ??_C@_07PCND@2k?5mode?$AA@ 004dd168     formatter.obj
 0002:00002170       ??_C@_01FJJO@R?$AA@        004dd170     formatter.obj
 0002:00002174       ??_C@_04MDPF@RHCP?$AA@     004dd174     formatter.obj
 0002:0000217c       ??_C@_01FLCE@L?$AA@        004dd17c     formatter.obj
 0002:00002180       ??_C@_04GDKI@LHCP?$AA@     004dd180     formatter.obj
 0002:00002188       ??_C@_01PDMC@V?$AA@        004dd188     formatter.obj
 0002:0000218c       ??_C@_08FIBN@Vertical?$AA@ 004dd18c     formatter.obj
 0002:00002198       ??_C@_01PBHI@H?$AA@        004dd198     formatter.obj
 0002:0000219c       ??_C@_0L@JABN@Horizontal?$AA@ 004dd19c     formatter.obj
 0002:000021a8       ??_C@_0L@GPL@?$CIreserved?$CJ?$AA@ 004dd1a8     formatter.obj
 0002:000021b4       ??_C@_07EDEJ@?$CIa?$DN?420?$CJ?$AA@ 004dd1b4     formatter.obj
 0002:000021bc       ??_C@_07PEJ@?$CIa?$DN?425?$CJ?$AA@ 004dd1bc     formatter.obj
 0002:000021c4       ??_C@_07FNFP@?$CIa?$DN?435?$CJ?$AA@ 004dd1c4     formatter.obj
 0002:000021cc       ??_C@_09OMCA@?0?5DVB?9S2?5?$AA@ 004dd1cc     formatter.obj
 0002:000021d8       ??_C@_07BEK@?0?5DVB?9S?$AA@ 004dd1d8     formatter.obj
 0002:000021e0       ??_C@_0BN@HAEE@16QAM?5?$CIDVB?9DNG?$CJ?1QPSK?5?$CITurbo?$CJ?$AA@ 004dd1e0     formatter.obj
 0002:00002200       ??_C@_0BN@LKEO@8PSK?5?$CIDVB?9DSNG?1Turbo?1DVB?9S2?$CJ?$AA@ 004dd200     formatter.obj
 0002:00002220       ??_C@_04HFAE@QPSK?$AA@     004dd220     formatter.obj
 0002:00002228       ??_C@_04DEAH@Auto?$AA@     004dd228     formatter.obj
 0002:00002230       ??_C@_0N@MJAB@User?5Private?$AA@ 004dd230     formatter.obj
 0002:00002240       ??_C@_0BJ@BOB@ISO?1IEC?513818?91?5Reserved?$AA@ 004dd240     formatter.obj
 0002:0000225c       ??_C@_0M@MAOI@DC?9II?5Video?$AA@ 004dd25c     formatter.obj
 0002:00002268       ??_C@_09DJOE@VC1?5Video?$AA@ 004dd268     formatter.obj
 0002:00002274       ??_C@_09BJDK@WM9?5Audio?$AA@ 004dd274     formatter.obj
 0002:00002280       ??_C@_0BE@GAIO@Enhanced?5AC?93?5Audio?$AA@ 004dd280     formatter.obj
 0002:00002294       ??_C@_0L@DCAI@LPCM?5Audio?$AA@ 004dd294     formatter.obj
 0002:000022a0       ??_C@_0L@GMDJ@AC?93?5Audio?$AA@ 004dd2a0     formatter.obj
 0002:000022ac       ??_C@_0M@EAMD@IPMP?5stream?$AA@ 004dd2ac     formatter.obj
 0002:000022b8       ??_C@_0M@MKFL@H?4264?5Video?$AA@ 004dd2b8     formatter.obj
 0002:000022c4       ??_C@_0DH@NPGM@IPMP?5stream?5?$CIdefined?5in?5ISO?1IEC?5@ 004dd2c4     formatter.obj
 0002:00002300       ??_C@_0ED@MEGP@Metadata?5carried?5in?5ISO?1IEC?51381@ 004dd300     formatter.obj
 0002:00002344       ??_C@_0DE@NMHD@Metadata?5carried?5in?5ISO?1IEC?51381@ 004dd344     formatter.obj
 0002:00002378       ??_C@_0DC@EPMM@Metadata?5carried?5in?5ISO?1IEC?51381@ 004dd378     formatter.obj
 0002:000023ac       ??_C@_0CG@NLJG@Metadata?5carried?5in?5metadata_sec@ 004dd3ac     formatter.obj
 0002:000023d4       ??_C@_0CA@FFLB@Metadata?5carried?5in?5PES?5packets?$AA@ 004dd3d4     formatter.obj
 0002:000023f4       ??_C@_0CP@HNNL@ISO?1IEC?513818?96?5Synchronized?5Dow@ 004dd3f4     formatter.obj
 0002:00002424       ??_C@_0CF@GGKD@ISO?1IEC?514496?91?5SL?9packetized?5st@ 004dd424     formatter.obj
 0002:0000244c       ??_C@_0N@FHED@MPEG?94?5Audio?$AA@ 004dd44c     formatter.obj
 0002:0000245c       ??_C@_0N@DAOL@MPEG?94?5Video?$AA@ 004dd45c     formatter.obj
 0002:0000246c       ??_C@_0BB@DIIB@MPEG?92?5AAC?5Audio?$AA@ 004dd46c     formatter.obj
 0002:00002480       ??_C@_0BK@HPJ@ISO?1IEC?513818?91?5auxiliary?$AA@ 004dd480     formatter.obj
 0002:0000249c       ??_C@_0BH@OFAN@ISO?1IEC?513818?96?5type?5D?$AA@ 004dd49c     formatter.obj
 0002:000024b4       ??_C@_0BH@LAOI@ISO?1IEC?513818?96?5type?5C?$AA@ 004dd4b4     formatter.obj
 0002:000024cc       ??_C@_0BH@BKHP@ISO?1IEC?513818?96?5type?5B?$AA@ 004dd4cc     formatter.obj
 0002:000024e4       ??_C@_0BH@OFMG@ISO?1IEC?513818?96?5type?5A?$AA@ 004dd4e4     formatter.obj
 0002:000024fc       ??_C@_0BD@OCKD@ITU?9T?5Rec?4?5H?4222?41?$AA@ 004dd4fc     formatter.obj
 0002:00002510       ??_C@_0BP@MENK@ISO?1IEC?513818?91?5Annex?5A?5DSM?5CC?$AA@ 004dd510     formatter.obj
 0002:00002530       ??_C@_0BD@EHGJ@ISO?1IEC?513522?5MHEG?$AA@ 004dd530     formatter.obj
 0002:00002544       ??_C@_0DE@GCFO@ISO?1IEC?513818?91?5PES?5packets?5cont@ 004dd544     formatter.obj
 0002:00002578       ??_C@_0N@PNHA@Teletext?1VBI?$AA@ 004dd578     formatter.obj
 0002:00002588       ??_C@_09KOIJ@DTS?5Audio?$AA@ 004dd588     formatter.obj
 0002:00002594       ??_C@_09IDIB@PCM?5Audio?$AA@ 004dd594     formatter.obj
 0002:000025a0       ??_C@_0BA@PLH@Dolby?5AC3?5Audio?$AA@ 004dd5a0     formatter.obj
 0002:000025b0       ??_C@_0CB@CEEJ@ISO?1IEC?513818?91?5private_sections@ 004dd5b0     formatter.obj
 0002:000025d4       ??_C@_0N@LADO@MPEG?92?5Audio?$AA@ 004dd5d4     formatter.obj
 0002:000025e4       ??_C@_0N@MDIA@MPEG?91?5Audio?$AA@ 004dd5e4     formatter.obj
 0002:000025f4       ??_C@_0N@NHJG@MPEG?92?5Video?$AA@ 004dd5f4     formatter.obj
 0002:00002604       ??_C@_0N@KECI@MPEG?91?5Video?$AA@ 004dd604     formatter.obj
 0002:00002614       ??_C@_0BB@CFLD@ISO?1IEC?5Reserved?$AA@ 004dd614     formatter.obj
 0002:00002628       ??_C@_0CB@LEK@reserved?5for?5future?5use?5?$CI0x?$CF02x?$CJ@ 004dd628     formatter.obj
 0002:0000264c       ??_C@_0BG@IL@user?5defined?5?$CI0x?$CF02x?$CJ?$AA@ 004dd64c     formatter.obj
 0002:00002664       ??_C@_0CB@OOPM@advanced?5codec?5HD?5NVOD?5reference@ 004dd664     formatter.obj
 0002:00002688       ??_C@_0CE@NOA@advanced?5codec?5HD?5NVOD?5time?9shif@ 004dd688     formatter.obj
 0002:000026ac       ??_C@_0CF@PFCA@advanced?5codec?5HD?5digital?5televi@ 004dd6ac     formatter.obj
 0002:000026d4       ??_C@_0CB@BBIM@advanced?5codec?5SD?5NVOD?5reference@ 004dd6d4     formatter.obj
 0002:000026f8       ??_C@_0CE@OJPD@advanced?5codec?5SD?5NVOD?5time?9shif@ 004dd6f8     formatter.obj
 0002:0000271c       ??_C@_0CF@MDME@advanced?5codec?5SD?5digital?5televi@ 004dd71c     formatter.obj
 0002:00002744       ??_C@_0CF@HKFJ@MPEG?92?5HD?5digital?5television?5ser@ 004dd744     formatter.obj
 0002:0000276c       ??_C@_0BA@MDOL@DVB?5MHP?5service?$AA@ 004dd76c     formatter.obj
 0002:0000277c       ??_C@_0BP@OIAL@RCS?5FLS?5?$CIsee?5EN?5301?5790?5?$FL24?$FN?5?$CJ?$AA@ 004dd77c     formatter.obj
 0002:0000279c       ??_C@_0BP@CMFB@RCS?5Map?5?$CIsee?5EN?5301?5790?5?$FL24?$FN?5?$CJ?$AA@ 004dd79c     formatter.obj
 0002:000027bc       ??_C@_0CE@GAHH@reserved?5for?5Common?5Interface?5Us@ 004dd7bc     formatter.obj
 0002:000027e0       ??_C@_0BH@HIKI@data?5broadcast?5service?$AA@ 004dd7e0     formatter.obj
 0002:000027f8       ??_C@_0BC@LEEM@NTSC?5coded?5signal?$AA@ 004dd7f8     formatter.obj
 0002:0000280c       ??_C@_08HPMP@FM?5Radio?$AA@ 004dd80c     formatter.obj
 0002:00002818       ??_C@_08OFDP@D?1D2?9MAC?$AA@ 004dd818     formatter.obj
 0002:00002824       ??_C@_0BD@IADI@SECAM?5coded?5signal?$AA@ 004dd824     formatter.obj
 0002:00002838       ??_C@_0BB@GOIE@PAL?5coded?5signal?$AA@ 004dd838     formatter.obj
 0002:0000284c       ??_C@_0P@NPGM@mosaic?5service?$AA@ 004dd84c     formatter.obj
 0002:0000285c       ??_C@_0BK@GPHI@NVOD?5time?9shifted?5service?$AA@ 004dd85c     formatter.obj
 0002:00002878       ??_C@_0BH@ECMK@NVOD?5reference?5service?$AA@ 004dd878     formatter.obj
 0002:00002890       ??_C@_0BB@DKAI@Teletext?5service?$AA@ 004dd890     formatter.obj
 0002:000028a4       ??_C@_0BM@CHII@digital?5radio?5sound?5service?$AA@ 004dd8a4     formatter.obj
 0002:000028c0       ??_C@_0BL@LGME@digital?5television?5service?$AA@ 004dd8c0     formatter.obj
 0002:000028dc       ??_C@_07PCHH@Unknown?$AA@  004dd8dc     formatter.obj
 0002:000028e4       ??_C@_0M@HOBM@Philips?5DVS?$AA@ 004dd8e4     formatter.obj
 0002:000028f0       ??_C@_07KHHI@Free?5TV?$AA@ 004dd8f0     formatter.obj
 0002:000028f8       ??_C@_0P@PLCN@France?5Telecom?$AA@ 004dd8f8     formatter.obj
 0002:00002908       ??_C@_0BE@CBMG@News?5Datacom?5?$CIIL?$CJ?51?$AA@ 004dd908     formatter.obj
 0002:0000291c       ??_C@_0BD@FIIF@Rh?tne?5Vision?5Cable?$AA@ 004dd91c     formatter.obj
 0002:00002930       ??_C@_0BL@IIMO@StarGuide?5Digital?5Networks?$AA@ 004dd930     formatter.obj
 0002:0000294c       ??_C@_0BD@KLOP@Scientific?5Atlanta?$AA@ 004dd94c     formatter.obj
 0002:00002960       ??_C@_03DIOK@NTL?$AA@      004dd960     formatter.obj
 0002:00002964       ??_C@_06BAHM@Irdeto?$AA@   004dd964     formatter.obj
 0002:0000296c       ??_C@_05KLEN@NDC?56?$AA@   004dd96c     formatter.obj
 0002:00002974       ??_C@_05FEPE@NDC?55?$AA@   004dd974     formatter.obj
 0002:0000297c       ??_C@_05POGD@NDC?54?$AA@   004dd97c     formatter.obj
 0002:00002984       ??_C@_05KLIG@NDC?53?$AA@   004dd984     formatter.obj
 0002:0000298c       ??_C@_05BBB@NDC?52?$AA@    004dd98c     formatter.obj
 0002:00002994       ??_C@_05POKI@NDC?51?$AA@   004dd994     formatter.obj
 0002:0000299c       ??_C@_0N@BHNP@News?5Datacom?$AA@ 004dd99c     formatter.obj
 0002:000029ac       ??_C@_0CC@BADN@Independent?5Television?5Commissio@ 004dd9ac     formatter.obj
 0002:000029d0       ??_C@_0BP@IIAK@Swedish?5Broadcasting?5Regulator?$AA@ 004dd9d0     formatter.obj
 0002:000029f0       ??_C@_0BP@IPFM@Spanish?5Broadcasting?5Regulator?$AA@ 004dd9f0     formatter.obj
 0002:00002a10       ??_C@_0BA@JAGD@Loewe?5Opta?5GmbH?$AA@ 004dda10     formatter.obj
 0002:00002a20       ??_C@_06LOMH@OpenTV?$AA@   004dda20     formatter.obj
 0002:00002a28       ??_C@_0CH@LFDC@France?5Telecom?0?5CNES?5and?5DGA?5?$CIST@ 004dda28     formatter.obj
 0002:00002a50       ??_C@_0P@KKDD@ExpressVu?5Inc?4?$AA@ 004dda50     formatter.obj
 0002:00002a60       ??_C@_0BI@DPNK@Dolby?5Laboratories?5Inc?4?$AA@ 004dda60     formatter.obj
 0002:00002a78       ??_C@_06IMAI@Canal?$CL?$AA@ 004dda78     formatter.obj
 0002:00002a80       ??_C@_0M@JFBA@BetaTechnik?$AA@ 004dda80     formatter.obj
 0002:00002a8c       ??_C@_0M@OGLJ@TeleDenmark?$AA@ 004dda8c     formatter.obj
 0002:00002a98       ??_C@_07DAOA@Telenor?$AA@  004dda98     formatter.obj
 0002:00002aa0       ??_C@_08HCMJ@Pansonic?$AA@ 004ddaa0     formatter.obj
 0002:00002aac       ??_C@_0L@EJD@MTV?5Europe?$AA@ 004ddaac     formatter.obj
 0002:00002ab8       ??_C@_0BC@DMMK@Lyonnaise?5Cable?54?$AA@ 004ddab8     formatter.obj
 0002:00002acc       ??_C@_0BC@GJCP@Lyonnaise?5Cable?53?$AA@ 004ddacc     formatter.obj
 0002:00002ae0       ??_C@_0BC@MDLI@Lyonnaise?5Cable?52?$AA@ 004ddae0     formatter.obj
 0002:00002af4       ??_C@_0BC@DMAB@Lyonnaise?5Cable?51?$AA@ 004ddaf4     formatter.obj
 0002:00002b08       ??_C@_0L@OEM@MediaKabel?$AA@ 004ddb08     formatter.obj
 0002:00002b14       ??_C@_08BEDF@Telia?5AB?$AA@ 004ddb14     formatter.obj
 0002:00002b20       ??_C@_0BI@HDMP@Echostar?5Communications?$AA@ 004ddb20     formatter.obj
 0002:00002b38       ??_C@_0CC@CJMG@La?5T?il?ivision?5Par?5Satellite?5?$CITPS@ 004ddb38     formatter.obj
 0002:00002b5c       ??_C@_0BG@EDJC@AT?5Entertainment?5Ltd?4?$AA@ 004ddb5c     formatter.obj
 0002:00002b74       ??_C@_0CD@BLFE@Nokia?5Multimedia?5Network?5Termina@ 004ddb74     formatter.obj
 0002:00002b98       ??_C@_0O@ONAB@ARD?0?5ZDF?0?5ORF?$AA@ 004ddb98     formatter.obj
 0002:00002ba8       ??_C@_07HIMP@BskyB?53?$AA@ 004ddba8     formatter.obj
 0002:00002bb0       ??_C@_07NCFI@BskyB?52?$AA@ 004ddbb0     formatter.obj
 0002:00002bb8       ??_C@_07CNOB@BskyB?51?$AA@ 004ddbb8     formatter.obj
 0002:00002bc0       ??_C@_03EHFH@SES?$AA@      004ddbc0     formatter.obj
 0002:00002bc4       ??_C@_08GKAE@Reserved?$AA@ 004ddbc4     formatter.obj
 0002:00002bd0       ??_C@_07JMOL@256?5QAM?$AA@ 004ddbd0     formatter.obj
 0002:00002bd8       ??_C@_07MGMA@128?5QAM?$AA@ 004ddbd8     formatter.obj
 0002:00002be0       ??_C@_06EIE@64?5QAM?$AA@   004ddbe0     formatter.obj
 0002:00002be8       ??_C@_06HHL@32?5QAM?$AA@   004ddbe8     formatter.obj
 0002:00002bf0       ??_C@_06KMKO@16?5QAM?$AA@  004ddbf0     formatter.obj
 0002:00002bf8       ??_C@_0M@MIBL@not?5defined?$AA@ 004ddbf8     formatter.obj
 0002:00002c04       ??_C@_0BH@HOGF@Reed?9Solomon?5?$CI204?1188?$CJ?$AA@ 004ddc04     formatter.obj
 0002:00002c1c       ??_C@_0BE@BDAP@no?5outer?5FEC?5coding?$AA@ 004ddc1c     formatter.obj
 0002:00002c30       ??_C@_0BA@FNLB@No?5conv?4?5coding?$AA@ 004ddc30     formatter.obj
 0002:00002c40       ??_C@_0BE@OFIB@7?18?5conv?4?5code?5rate?$AA@ 004ddc40     formatter.obj
 0002:00002c54       ??_C@_0BE@IAGA@5?16?5conv?4?5code?5rate?$AA@ 004ddc54     formatter.obj
 0002:00002c68       ??_C@_0BE@GMFP@3?14?5conv?4?5code?5rate?$AA@ 004ddc68     formatter.obj
 0002:00002c7c       ??_C@_0BE@FOKP@2?13?5conv?4?5code?5rate?$AA@ 004ddc7c     formatter.obj
 0002:00002c90       ??_C@_0BE@KILA@1?12?5conv?4?5code?5rate?$AA@ 004ddc90     formatter.obj
 0002:00002ca4       ??_C@_05MDGJ@5?5MHz?$AA@   004ddca4     formatter.obj
 0002:00002cac       ??_C@_05CDAG@6?5MHz?$AA@   004ddcac     formatter.obj
 0002:00002cb4       ??_C@_05IDCD@7?5MHz?$AA@   004ddcb4     formatter.obj
 0002:00002cbc       ??_C@_05OCPD@8?5MHz?$AA@   004ddcbc     formatter.obj
 0002:00002cc4       ??_C@_06JOAO@64?9QAM?$AA@  004ddcc4     formatter.obj
 0002:00002ccc       ??_C@_06DGCE@16?9QAM?$AA@  004ddccc     formatter.obj
 0002:00002cd4       ??_C@_0BM@ODHG@a?5?$DN?54?0?5in?9depth?5interleaver?$AA@ 004ddcd4     formatter.obj
 0002:00002cf0       ??_C@_0BM@KLKJ@a?5?$DN?52?0?5in?9depth?5interleaver?$AA@ 004ddcf0     formatter.obj
 0002:00002d0c       ??_C@_0BM@IPMG@a?5?$DN?51?0?5in?9depth?5interleaver?$AA@ 004ddd0c     formatter.obj
 0002:00002d28       ??_C@_0CH@HFFC@non?9hierarchical?0?5in?9depth?5inter@ 004ddd28     formatter.obj
 0002:00002d50       ??_C@_0BK@MNJF@a?5?$DN?54?0?5native?5interleaver?$AA@ 004ddd50     formatter.obj
 0002:00002d6c       ??_C@_0BK@KMBN@a?5?$DN?52?0?5native?5interleaver?$AA@ 004ddd6c     formatter.obj
 0002:00002d88       ??_C@_0BK@BMNJ@a?5?$DN?51?0?5native?5interleaver?$AA@ 004ddd88     formatter.obj
 0002:00002da4       ??_C@_0CF@OBPM@non?9hierarchical?0?5native?5interle@ 004ddda4     formatter.obj
 0002:00002dcc       ??_C@_0M@HKBF@?5Descriptor?$AA@ 004dddcc     formatter.obj
 0002:00002dd8       ??_C@_0CA@CPO@User?5Private?5Descriptor?3?50x?$CF02x?$AA@ 004dddd8     formatter.obj
 0002:00002df8       ??_C@_0CM@CPHD@ISO?1IEC?513818?91?5Reserved?5Descrip@ 004dddf8     formatter.obj
 0002:00002e24       ??_C@_0BF@CFMH@DCII?5Banner?5Override?$AA@ 004dde24     formatter.obj
 0002:00002e3c       ??_C@_0BM@DKAM@ATSC?5Redistribution?5Control?$AA@ 004dde3c     formatter.obj
 0002:00002e58       ??_C@_0BK@NJD@ATSC?5DCC?5Arriving?5Request?$AA@ 004dde58     formatter.obj
 0002:00002e74       ??_C@_0BL@CLDH@ATSC?5DCC?5Departing?5Request?$AA@ 004dde74     formatter.obj
 0002:00002e90       ??_C@_0BE@HGB@ATSC?5Component?5Name?$AA@ 004dde90     formatter.obj
 0002:00002ea4       ??_C@_0BK@CDEE@ATSC?5Time?9shifted?5Service?$AA@ 004ddea4     formatter.obj
 0002:00002ec0       ??_C@_0BG@FCDG@ATSC?5Service?5Location?$AA@ 004ddec0     formatter.obj
 0002:00002ed8       ??_C@_0BL@ENEB@ATSC?5Extended?5Channel?5Name?$AA@ 004dded8     formatter.obj
 0002:00002ef4       ??_C@_0BJ@CBMD@DCII?5Transport?5Stream?5ID?$AA@ 004ddef4     formatter.obj
 0002:00002f10       ??_C@_0BL@OIMB@DCII?5Modulation?5Parameters?$AA@ 004ddf10     formatter.obj
 0002:00002f2c       ??_C@_0BN@EILD@DCII?5Frequency?5Specification?$AA@ 004ddf2c     formatter.obj
 0002:00002f4c       ??_C@_0BG@IKNB@ATSC?5Content?5Advisory?$AA@ 004ddf4c     formatter.obj
 0002:00002f64       ??_C@_0BF@PGAD@ATSC?5Caption?5Service?$AA@ 004ddf64     formatter.obj
 0002:00002f7c       ??_C@_0BE@HBGM@DCII?5Component?5Name?$AA@ 004ddf7c     formatter.obj
 0002:00002f90       ??_C@_0BE@EBBG@DCII?5Extended?5Video?$AA@ 004ddf90     formatter.obj
 0002:00002fa4       ??_C@_0BA@PJLJ@DCII?5Frame?5Rate?$AA@ 004ddfa4     formatter.obj
 0002:00002fb4       ??_C@_0BA@JGDD@DCII?5AC?93?5audio?$AA@ 004ddfb4     formatter.obj
 0002:00002fc4       ??_C@_0BA@LBFJ@ATSC?5AC?93?5audio?$AA@ 004ddfc4     formatter.obj
 0002:00002fd4       ??_C@_0O@EBJI@DCII?5Stuffing?$AA@ 004ddfd4     formatter.obj
 0002:00002fe4       ??_C@_0O@MCHE@ATSC?5Stuffing?$AA@ 004ddfe4     formatter.obj
 0002:00002ff4       ??_C@_03DBMK@AAC?$AA@      004ddff4     formatter.obj
 0002:00002ff8       ??_C@_03KEFP@DTS?$AA@      004ddff8     formatter.obj
 0002:00002ffc       ??_C@_0O@HPLM@Enhanced?5AC?93?$AA@ 004ddffc     formatter.obj
 0002:0000300c       ??_C@_0BN@PPFM@S2?5Satellite?5Delivery?5System?$AA@ 004de00c     formatter.obj
 0002:0000302c       ??_C@_0BE@GMPH@ECM?5Repetition?5Rate?$AA@ 004de02c     formatter.obj
 0002:00003040       ??_C@_0BK@EJOC@Time?5Slice?5FEC?5Identifier?$AA@ 004de040     formatter.obj
 0002:0000305c       ??_C@_0BD@BHGG@Content?5Identifier?$AA@ 004de05c     formatter.obj
 0002:00003070       ??_C@_06JKJA@TVA?5ID?$AA@  004de070     formatter.obj
 0002:00003078       ??_C@_0BA@JMGP@Related?5Content?$AA@ 004de078     formatter.obj
 0002:00003088       ??_C@_0BC@BONI@Default?5Authority?$AA@ 004de088     formatter.obj
 0002:0000309c       ??_C@_0BF@LCNM@Service?5Availability?$AA@ 004de09c     formatter.obj
 0002:000030b4       ??_C@_0BD@LOCF@Service?5Identifier?$AA@ 004de0b4     formatter.obj
 0002:000030c8       ??_C@_0BG@CPFE@Adaptation?5Field?5Data?$AA@ 004de0c8     formatter.obj
 0002:000030e0       ??_C@_0BH@LHCC@Application?5Signalling?$AA@ 004de0e0     formatter.obj
 0002:000030f8       ??_C@_0BF@GIKA@Announcement?5Support?$AA@ 004de0f8     formatter.obj
 0002:00003110       ??_C@_0BE@MOFI@Cell?5Frequency?5Link?$AA@ 004de110     formatter.obj
 0002:00003124       ??_C@_09BMBN@Cell?5List?$AA@ 004de124     formatter.obj
 0002:00003130       ??_C@_0P@GDEC@Ancillary?5Data?$AA@ 004de130     formatter.obj
 0002:00003140       ??_C@_09GIBN@AC3?5Audio?$AA@ 004de140     formatter.obj
 0002:0000314c       ??_C@_03OLG@PDC?$AA@       004de14c     formatter.obj
 0002:00003150       ??_C@_04LBN@DSNG?$AA@      004de150     formatter.obj
 0002:00003158       ??_C@_0BB@MAAB@Transport?5Stream?$AA@ 004de158     formatter.obj
 0002:0000316c       ??_C@_0BC@OGOO@Data?5Broadcast?5ID?$AA@ 004de16c     formatter.obj
 0002:00003180       ??_C@_09JNFI@CA?5System?$AA@ 004de180     formatter.obj
 0002:0000318c       ??_C@_0P@CGHI@Data?5Broadcast?$AA@ 004de18c     formatter.obj
 0002:0000319c       ??_C@_0BJ@FFDA@Partial?5Transport?5Stream?$AA@ 004de19c     formatter.obj
 0002:000031b8       ??_C@_0P@JLEL@Frequency?5List?$AA@ 004de1b8     formatter.obj
 0002:000031c8       ??_C@_0BH@GPHN@Short?5Smoothing?5Buffer?$AA@ 004de1c8     formatter.obj
 0002:000031e0       ??_C@_0N@JDON@Service?5Move?$AA@ 004de1e0     formatter.obj
 0002:000031f0       ??_C@_0BH@IMCI@Private?5Data?5Specifier?$AA@ 004de1f0     formatter.obj
 0002:00003208       ??_C@_0L@CCCG@Subtitling?$AA@ 004de208     formatter.obj
 0002:00003214       ??_C@_0BC@CCDF@Local?5Time?5Offset?$AA@ 004de214     formatter.obj
 0002:00003228       ??_C@_09HKA@Telephone?$AA@ 004de228     formatter.obj
 0002:00003234       ??_C@_08PHLA@Teletext?$AA@ 004de234     formatter.obj
 0002:00003240       ??_C@_0BA@MFNG@Parental?5Rating?$AA@ 004de240     formatter.obj
 0002:00003250       ??_C@_07CJHM@Content?$AA@  004de250     formatter.obj
 0002:00003258       ??_C@_0O@NPPO@CA?5Identifier?$AA@ 004de258     formatter.obj
 0002:00003268       ??_C@_0BC@NMNM@Stream?5Identifier?$AA@ 004de268     formatter.obj
 0002:0000327c       ??_C@_06OPOP@Mosaic?$AA@   004de27c     formatter.obj
 0002:00003284       ??_C@_09IBFC@Component?$AA@ 004de284     formatter.obj
 0002:00003290       ??_C@_0BD@CAJJ@Time?5Shifted?5Event?$AA@ 004de290     formatter.obj
 0002:000032a4       ??_C@_0P@JAPL@Extended?5Event?$AA@ 004de2a4     formatter.obj
 0002:000032b4       ??_C@_0M@IBHI@Short?5Event?$AA@ 004de2b4     formatter.obj
 0002:000032c0       ??_C@_0BF@NEEA@Time?5Shifted?5Service?$AA@ 004de2c0     formatter.obj
 0002:000032d8       ??_C@_0P@EKAP@NVOD?5Reference?$AA@ 004de2d8     formatter.obj
 0002:000032e8       ??_C@_07IELF@Linkage?$AA@  004de2e8     formatter.obj
 0002:000032f0       ??_C@_0BF@NBON@Country?5Availability?$AA@ 004de2f0     formatter.obj
 0002:00003308       ??_C@_07KNHF@Service?$AA@  004de308     formatter.obj
 0002:00003310       ??_C@_0N@HNLH@Bouquet?5Name?$AA@ 004de310     formatter.obj
 0002:00003320       ??_C@_0N@BGM@VBI?5Teletext?$AA@ 004de320     formatter.obj
 0002:00003330       ??_C@_08NDAN@VBI?5Data?$AA@ 004de330     formatter.obj
 0002:0000333c       ??_C@_0BG@PKJF@Cable?5Delivery?5System?$AA@ 004de33c     formatter.obj
 0002:00003354       ??_C@_0BK@HBAJ@Satellite?5Delivery?5System?$AA@ 004de354     formatter.obj
 0002:00003370       ??_C@_08MGIP@Stuffing?$AA@ 004de370     formatter.obj
 0002:0000337c       ??_C@_0N@BFCP@Service?5List?$AA@ 004de37c     formatter.obj
 0002:0000338c       ??_C@_0N@EKEL@Network?5Name?$AA@ 004de38c     formatter.obj
 0002:0000339c       ??_C@_0BB@DMCL@MPEG?92?5AAC?5audio?$AA@ 004de39c     formatter.obj
 0002:000033b0       ??_C@_0BD@BGFI@AVC?5timing?5and?5HRD?$AA@ 004de3b0     formatter.obj
 0002:000033c4       ??_C@_04KAMG@IPMP?$AA@     004de3c4     formatter.obj
 0002:000033cc       ??_C@_0BF@HGKN@AVC?5video?5descriptor?$AA@ 004de3cc     formatter.obj
 0002:000033e4       ??_C@_0N@MIOM@Metadata?5STD?$AA@ 004de3e4     formatter.obj
 0002:000033f4       ??_C@_08FAKL@Metadata?$AA@ 004de3f4     formatter.obj
 0002:00003400       ??_C@_0BB@NIBO@Metadata?5pointer?$AA@ 004de400     formatter.obj
 0002:00003414       ??_C@_0BB@LPJI@Content?5labeling?$AA@ 004de414     formatter.obj
 0002:00003428       ??_C@_0BA@PDPF@MultiplexBuffer?$AA@ 004de428     formatter.obj
 0002:00003438       ??_C@_0O@HEEP@FmxBufferSize?$AA@ 004de438     formatter.obj
 0002:00003448       ??_C@_07OMG@MuxCode?$AA@   004de448     formatter.obj
 0002:00003450       ??_C@_0P@CFCL@External?5ES?5ID?$AA@ 004de450     formatter.obj
 0002:00003460       ??_C@_03GAFF@FMC?$AA@      004de460     formatter.obj
 0002:00003464       ??_C@_02KANH@SL?$AA@       004de464     formatter.obj
 0002:00003468       ??_C@_03DGDB@IOD?$AA@      004de468     formatter.obj
 0002:0000346c       ??_C@_0N@FDOJ@MPEG?94?5audio?$AA@ 004de46c     formatter.obj
 0002:0000347c       ??_C@_0N@DEEB@MPEG?94?5video?$AA@ 004de47c     formatter.obj
 0002:0000348c       ??_C@_0BL@NDKF@Defined?5in?5ISO?1IEC?513818?96?$AA@ 004de48c     formatter.obj
 0002:000034a8       ??_C@_03MMEJ@IBP?$AA@      004de4a8     formatter.obj
 0002:000034ac       ??_C@_03MHMB@STD?$AA@      004de4ac     formatter.obj
 0002:000034b0       ??_C@_0BB@NGJK@Smoothing?5Buffer?$AA@ 004de4b0     formatter.obj
 0002:000034c4       ??_C@_0BH@GNJJ@Private?5Data?5Indicator?$AA@ 004de4c4     formatter.obj
 0002:000034dc       ??_C@_0BA@BPMI@Maximum?5Bitrate?$AA@ 004de4dc     formatter.obj
 0002:000034ec       ??_C@_09LKGE@Copyright?$AA@ 004de4ec     formatter.obj
 0002:000034f8       ??_C@_0BN@EANO@Multiplex?5Buffer?5Utilization?$AA@ 004de4f8     formatter.obj
 0002:00003518       ??_C@_0N@HINH@System?5Clock?$AA@ 004de518     formatter.obj
 0002:00003528       ??_C@_0BA@KIIA@ISO639?5Language?$AA@ 004de528     formatter.obj
 0002:00003538       ??_C@_0N@JEAA@Video?5Window?$AA@ 004de538     formatter.obj
 0002:00003548       ??_C@_0BH@CMOO@Target?5Background?5Grid?$AA@ 004de548     formatter.obj
 0002:00003560       ??_C@_0BG@NLID@Data?5Stream?5Alignment?$AA@ 004de560     formatter.obj
 0002:00003578       ??_C@_0N@NNDC@Registration?$AA@ 004de578     formatter.obj
 0002:00003588       ??_C@_09NODG@Hierarchy?$AA@ 004de588     formatter.obj
 0002:00003594       ??_C@_0N@KBAM@Audio?5Stream?$AA@ 004de594     formatter.obj
 0002:000035a4       ??_C@_0N@DDON@Video?5Stream?$AA@ 004de5a4     formatter.obj
 0002:000035b4       ??_C@_09JEBA@PrediWave?$AA@ 004de5b4     formatter.obj
 0002:000035c0       ??_C@_0BP@BKGD@Digi?5Raum?5Electronics?5Co?4?5Ltd?4?$AA@ 004de5c0     formatter.obj
 0002:000035e0       ??_C@_0P@PNMH@Enigma?5Systems?$AA@ 004de5e0     formatter.obj
 0002:000035f0       ??_C@_0BF@KHNE@SK?5Telecom?5Co?4?0?5Ltd?4?$AA@ 004de5f0     formatter.obj
 0002:00003608       ??_C@_0BM@HDEK@Widevine?5Technologies?0?5Inc?4?$AA@ 004de608     formatter.obj
 0002:00003624       ??_C@_0CL@BICG@Beijing?5Digital?5Video?5Technology@ 004de624     formatter.obj
 0002:00003650       ??_C@_0M@NGAF@XCrypt?5Inc?4?$AA@ 004de650     formatter.obj
 0002:0000365c       ??_C@_0BD@JGKM@Latens?5Systems?5Ltd?$AA@ 004de65c     formatter.obj
 0002:00003670       ??_C@_0CE@OEFF@Beijing?5Compunicate?5Technology?5I@ 004de670     formatter.obj
 0002:00003694       ??_C@_05IJHN@SIDSA?$AA@    004de694     formatter.obj
 0002:0000369c       ??_C@_0BE@NAFM@Runcom?5Technologies?$AA@ 004de69c     formatter.obj
 0002:000036b0       ??_C@_0M@GFEG@THALESCrypt?$AA@ 004de6b0     formatter.obj
 0002:000036bc       ??_C@_0L@PADG@Dreamcrypt?$AA@ 004de6bc     formatter.obj
 0002:000036c8       ??_C@_04FHFN@?$EASky?$AA@  004de6c8     formatter.obj
 0002:000036d0       ??_C@_0CG@HNIF@Shenzhen?5Kingsky?5Company?5?$CIChina?$CJ@ 004de6d0     formatter.obj
 0002:000036f8       ??_C@_0DE@OALL@Shanghai?5Advanced?5Digital?5Techno@ 004de6f8     formatter.obj
 0002:0000372c       ??_C@_0N@IBHB@DVN?5Holdings?$AA@ 004de72c     formatter.obj
 0002:0000373c       ??_C@_0L@LEOA@AlphaCrypt?$AA@ 004de73c     formatter.obj
 0002:00003748       ??_C@_07MKBG@Easycas?$AA@  004de748     formatter.obj
 0002:00003750       ??_C@_0BC@OFNK@Tsinghua?5TongFang?$AA@ 004de750     formatter.obj
 0002:00003764       ??_C@_0CG@KGGG@Digital?5TV?5Industry?5Alliance?5of?5@ 004de764     formatter.obj
 0002:0000378c       ??_C@_08FALJ@Telemann?$AA@ 004de78c     formatter.obj
 0002:00003798       ??_C@_0BD@HPBF@General?5Instrument?$AA@ 004de798     formatter.obj
 0002:000037ac       ??_C@_0N@MIED@EBU?5?$CIBISS?9E?$CJ?$AA@ 004de7ac     formatter.obj
 0002:000037bc       ??_C@_0BJ@HKLM@Mentor?5Data?5System?0?5Inc?4?$AA@ 004de7bc     formatter.obj
 0002:000037d8       ??_C@_08GJAN@BARCO?5AS?$AA@ 004de7d8     formatter.obj
 0002:000037e4       ??_C@_0BG@EOCD@Scopus?5Network?5Techno?$AA@ 004de7e4     formatter.obj
 0002:000037fc       ??_C@_0CH@KBJH@STENTOR?5?$CIFrance?5Telecom?0?5CNES?5an@ 004de7fc     formatter.obj
 0002:00003824       ??_C@_0CD@EGLJ@Telef?snica?5Servicios?5Audiovisual@ 004de824     formatter.obj
 0002:00003848       ??_C@_0BK@FELE@Titan?5Information?5Systems?$AA@ 004de848     formatter.obj
 0002:00003864       ??_C@_0M@LPCF@Nagravision?$AA@ 004de864     formatter.obj
 0002:00003870       ??_C@_04BJHG@Nera?$AA@     004de870     formatter.obj
 0002:00003878       ??_C@_03DBEK@IBM?$AA@      004de878     formatter.obj
 0002:0000387c       ??_C@_0CE@DDGI@HRT?5?9?5Croatian?5Radio?5and?5Televis@ 004de87c     formatter.obj
 0002:000038a0       ??_C@_0CL@HFOE@HPT?5?9?5Croatian?5Post?5and?5Telecomm@ 004de8a0     formatter.obj
 0002:000038cc       ??_C@_06KOAN@TV?1Com?$AA@  004de8cc     formatter.obj
 0002:000038d4       ??_C@_07GIDJ@Thomson?$AA@  004de8d4     formatter.obj
 0002:000038dc       ??_C@_0BE@ENIJ@Tandberg?5Television?$AA@ 004de8dc     formatter.obj
 0002:000038f0       ??_C@_04JKNK@Sony?$AA@     004de8f0     formatter.obj
 0002:000038f8       ??_C@_0BC@JFCA@Scientfic?5Atlanta?$AA@ 004de8f8     formatter.obj
 0002:0000390c       ??_C@_07GBLL@Philips?$AA@  004de90c     formatter.obj
 0002:00003914       ??_C@_09LFJL@NTL?5?$CIRAS?$CJ?$AA@ 004de914     formatter.obj
 0002:00003920       ??_C@_05BPNK@Conax?$AA@    004de920     formatter.obj
 0002:00003928       ??_C@_05MGAH@Nokia?$AA@    004de928     formatter.obj
 0002:00003930       ??_C@_0BE@FMHM@Matra?5Communication?$AA@ 004de930     formatter.obj
 0002:00003944       ??_C@_0BE@FCLL@Jerrold?1GI?1Motorola?$AA@ 004de944     formatter.obj
 0002:00003958       ??_C@_07KBMH@Eurodec?$AA@  004de958     formatter.obj
 0002:00003960       ??_C@_0BB@MPPD@Deutsche?5Telecom?$AA@ 004de960     formatter.obj
 0002:00003974       ??_C@_05HBOE@CCETT?$AA@    004de974     formatter.obj
 0002:0000397c       ??_C@_0L@BKJK@Canal?5Plus?$AA@ 004de97c     formatter.obj
 0002:00003988       ??_C@_0N@DLLK@Standardized?$AA@ 004de988     formatter.obj
 0002:00003998       ??_C@_0BF@IBKL@Echostar?1Nagravision?$AA@ 004de998     formatter.obj
 0002:000039b0       ??_C@_0FG@FJBI@?5Sample?5Rate?3?5?$CFs?5Bitrate?3?5?$CFs?$AN?6?5S@ 004de9b0     formatter.obj
 0002:00003a08       ??_C@_09LJLA@Undefined?$AA@ 004dea08     formatter.obj
 0002:00003a14       ??_C@_08FHOL@Discrete?$AA@ 004dea14     formatter.obj
 0002:00003a20       ??_C@_09JBBA@Maxtrixed?$AA@ 004dea20     formatter.obj
 0002:00003a2c       ??_C@_04COF@None?$AA@      004dea2c     formatter.obj
 0002:00003a34       ??_C@_03KLCE@Off?$AA@      004dea34     formatter.obj
 0002:00003a38       ??_C@_02CCEO@On?$AA@       004dea38     formatter.obj
 0002:00003a3c       ??_C@_0BE@ELPJ@User?5Defined?5?$CI0x?$CFx?$CJ?$AA@ 004dea3c     formatter.obj
 0002:00003a50       ??_C@_0BI@IIEE@5?5?1?5C?5?$CL?5L?5?$CL?5R?5?$CL?5SL?5?$CL?5SR?$AA@ 004dea50     formatter.obj
 0002:00003a68       ??_C@_0BE@HIBM@4?5?1?5L?5?$CL?5R?5?$CL?5SL?5?$CL?5SR?$AA@ 004dea68     formatter.obj
 0002:00003a7c       ??_C@_0BC@PBGD@4?5?1?5C?5?$CL?5L?5?$CL?5R?5?$CL?5S?$AA@ 004dea7c     formatter.obj
 0002:00003a90       ??_C@_0O@BDPG@3?5?1?5L?5?$CL?5R?5?$CL?5S?$AA@ 004dea90     formatter.obj
 0002:00003aa0       ??_C@_0O@CHHI@3?5?1?5C?5?$CL?5L?5?$CL?5R?$AA@ 004deaa0     formatter.obj
 0002:00003ab0       ??_C@_0CD@LFLD@2?5?1?5LT?5?$CL?5RT?5?$CIleft?5and?5right?5tota@ 004deab0     formatter.obj
 0002:00003ad4       ??_C@_0CD@NGBC@2?5?1?5?$CIL?$CLR?$CJ?5?$CL?5?$CIL?9R?$CJ?5?$CIsum?9differenc@ 004dead4     formatter.obj
 0002:00003af8       ??_C@_0BD@HDNK@2?5?1?5L?5?$CL?5R?5?$CIstereo?$CJ?$AA@ 004deaf8     formatter.obj
 0002:00003b0c       ??_C@_07CAMD@unknown?$AA@  004deb0c     formatter.obj
 0002:00003b14       ??_C@_08COKJ@1?5?1?5mono?$AA@ 004deb14     formatter.obj
 0002:00003b20       ??_C@_09DG@?$CF?41f?5Kbps?$AA@ 004deb20     formatter.obj
 0002:00003b2c       ??_C@_08GBGP@lossless?$AA@ 004deb2c     formatter.obj
 0002:00003b38       ??_C@_08LLKL@variable?$AA@ 004deb38     formatter.obj
 0002:00003b44       ??_C@_04KHOB@open?$AA@     004deb44     formatter.obj
 0002:00003b4c       ??_C@_08CNBE@?$CF?42f?5KHz?$AA@ 004deb4c     formatter.obj
 0002:00003b58       ??_C@_0P@LFIJ@Invalid?5?$CI0x?$CFx?$CJ?$AA@ 004deb58     formatter.obj
 0002:00003b68       ??_C@_0BJ@IBID@Monochrome?54?32?32?5samples?$AA@ 004deb68     formatter.obj
 0002:00003b84       ??_C@_0BC@IBAC@Closed?5Captioning?$AA@ 004deb84     formatter.obj
 0002:00003b98       ??_C@_03BCFL@WSS?$AA@      004deb98     formatter.obj
 0002:00003b9c       ??_C@_03HLLC@VPS?$AA@      004deb9c     formatter.obj
 0002:00003ba0       ??_C@_0BC@OLLO@Inverted?5teletext?$AA@ 004deba0     formatter.obj
 0002:00003bb4       ??_C@_0N@NBBG@EBU?5teletext?$AA@ 004debb4     formatter.obj
 0002:00003bc4       ??_C@_0CB@PKDF@Reserved?5for?5future?5use?5?$CI0x?$CF02x?$CJ@ 004debc4     formatter.obj
 0002:00003be8       ??_C@_0BJ@OJAB@?$CF3?41f?$CFs?5?$CF?43f?5?$CFs?5?$CFd?5?$CFs?5?$CFs?$AA@ 004debe8     formatter.obj
 0002:00003c04       ??_C@_0CF@DPKP@NIT?3?5?$CF3?41f?$CFs?5?$CF?43f?5GHz?5?$CFs?5?$CF5d?5?$CFs?5@ 004dec04     formatter.obj
 0002:00003c2c       ??_C@_01FJFF@W?$AA@        004dec2c     formatter.obj
 0002:00003c30       ??_C@_01KFAL@E?$AA@        004dec30     formatter.obj
 0002:00003c38       __real@40c3880000000000    004dec38     formatter.obj
 0002:00003c40       __real@40f86a0000000000    004dec40     formatter.obj
 0002:00003c48       ??_C@_08HPID@?$CF?41f?5MHz?$AA@ 004dec48     formatter.obj
 0002:00003c54       ??_C@_0BA@DJH@NIT?3?5?$CF?41f?5MHz?$AN?6?$AA@ 004dec54     formatter.obj
 0002:00003c64       ??_C@_0BE@BNIO@CA?5Identifier?3?5?$CFs?$AN?6?$AA@ 004dec64     formatter.obj
 0002:00003c78       ??_C@_0BN@JCAI@reserved?5for?5DTS?5audio?5modes?$AA@ 004dec78     formatter.obj
 0002:00003c98       ??_C@_0CN@GIIH@HE?9AAC?5v2?5receiver?9mixed?5supplem@ 004dec98     formatter.obj
 0002:00003cc8       ??_C@_0CI@JCKC@HE?9AAC?5v2?5audio?5for?5the?5hard?5of?5@ 004decc8     formatter.obj
 0002:00003cf0       ??_C@_0DG@GNBJ@HE?9AAC?5v2?5audio?5description?5for?5@ 004decf0     formatter.obj
 0002:00003d28       ??_C@_0BI@MNLE@HE?9AAC?5v2?5audio?0?5stereo?$AA@ 004ded28     formatter.obj
 0002:00003d40       ??_C@_0CK@KMHG@HE?9AAC?5receiver?9mixed?5supplement@ 004ded40     formatter.obj
 0002:00003d6c       ??_C@_0CF@DLJA@HE?9AAC?5audio?5for?5the?5hard?5of?5hea@ 004ded6c     formatter.obj
 0002:00003d94       ??_C@_0DD@BIGP@HE?9AAC?5audio?5description?5for?5the@ 004ded94     formatter.obj
 0002:00003dc8       ??_C@_0BN@JDPP@HE?9AAC?5audio?0?5surround?5sound?$AA@ 004dedc8     formatter.obj
 0002:00003de8       ??_C@_0BF@HDIE@HE?9AAC?5audio?0?5stereo?$AA@ 004dede8     formatter.obj
 0002:00003e00       ??_C@_0CC@LCLC@HE?9AAC?5audio?0?5single?5mono?5channe@ 004dee00     formatter.obj
 0002:00003e24       ??_C@_0N@HCPF@user?9defined?$AA@ 004dee24     formatter.obj
 0002:00003e34       ??_C@_0DM@JLCE@H?4264?1AVC?5high?5definition?5video?0@ 004dee34     formatter.obj
 0002:00003e70       ??_C@_0DK@KGBG@H?4264?1AVC?5high?5definition?5video?0@ 004dee70     formatter.obj
 0002:00003eac       ??_C@_0DM@ILBL@H?4264?1AVC?5high?5definition?5video?0@ 004deeac     formatter.obj
 0002:00003ee8       ??_C@_0DK@LGCJ@H?4264?1AVC?5high?5definition?5video?0@ 004deee8     formatter.obj
 0002:00003f28       ??_C@_0EA@KFKK@H?4264?1AVC?5standard?5definition?5vi@ 004def28     formatter.obj
 0002:00003f68       ??_C@_0DO@DJFO@H?4264?1AVC?5standard?5definition?5vi@ 004def68     formatter.obj
 0002:00003fa8       ??_C@_0DN@HNEH@H?4264?1AVC?5standard?5definition?5vi@ 004defa8     formatter.obj
 0002:00003fe8       ??_C@_0EA@LFJF@H?4264?1AVC?5standard?5definition?5vi@ 004defe8     formatter.obj
 0002:00004028       ??_C@_0DO@CJGB@H?4264?1AVC?5standard?5definition?5vi@ 004df028     formatter.obj
 0002:00004068       ??_C@_0DN@GNHI@H?4264?1AVC?5standard?5definition?5vi@ 004df068     formatter.obj
 0002:000040a8       ??_C@_0BO@NIHI@reserved?5for?5AC?93?5audio?5modes?$AA@ 004df0a8     formatter.obj
 0002:000040c8       ??_C@_0FB@ELHF@DVBsubtitles?5?$CIfor?5the?5hard?5of?5he@ 004df0c8     formatter.obj
 0002:00004120       ??_C@_0EP@HPHG@DVBsubtitles?5?$CIfor?5the?5hard?5of?5he@ 004df120     formatter.obj
 0002:00004170       ??_C@_0EO@JGJJ@DVBsubtitles?5?$CIfor?5the?5hard?5of?5he@ 004df170     formatter.obj
 0002:000041c0       ??_C@_0EO@CBGJ@DVBsubtitles?5?$CIfor?5the?5hard?5of?5he@ 004df1c0     formatter.obj
 0002:00004210       ??_C@_0EC@DMPA@DVB?5subtitles?5?$CInormal?$CJ?5for?5displ@ 004df210     formatter.obj
 0002:00004258       ??_C@_0EA@BLPN@DVB?5subtitles?5?$CInormal?$CJ?5for?5displ@ 004df258     formatter.obj
 0002:00004298       ??_C@_0DP@PNNJ@DVB?5subtitles?5?$CInormal?$CJ?5for?5displ@ 004df298     formatter.obj
 0002:000042d8       ??_C@_0EA@JIAB@DVB?5subtitles?5?$CInormal?$CJ?5with?5no?5m@ 004df2d8     formatter.obj
 0002:00004318       ??_C@_08HJEP@VBI?5data?$AA@ 004df318     formatter.obj
 0002:00004324       ??_C@_0BI@GDFC@associated?5EBU?5Teletext?$AA@ 004df324     formatter.obj
 0002:0000433c       ??_C@_0BH@HMIO@EBU?5Teletext?5subtitles?$AA@ 004df33c     formatter.obj
 0002:00004354       ??_C@_0BO@HJFJ@audio?5for?5the?5hard?5of?5hearing?$AA@ 004df354     formatter.obj
 0002:00004374       ??_C@_0CM@NLOE@audio?5description?5for?5the?5visual@ 004df374     formatter.obj
 0002:000043a0       ??_C@_0BG@MNKE@audio?0?5surround?5sound?$AA@ 004df3a0     formatter.obj
 0002:000043b8       ??_C@_0CE@KGG@audio?0?5multi?9lingual?0?5multi?9chan@ 004df3b8     formatter.obj
 0002:000043dc       ??_C@_0BK@CCBP@audio?0?5stereo?5?$CI2?5channel?$CJ?$AA@ 004df3dc     formatter.obj
 0002:000043f8       ??_C@_0BJ@PKHP@audio?0?5dual?5mono?5channel?$AA@ 004df3f8     formatter.obj
 0002:00004414       ??_C@_0BL@OEJD@audio?0?5single?5mono?5channel?$AA@ 004df414     formatter.obj
 0002:00004430       ??_C@_0N@FLBF@user?5defined?$AA@ 004df430     formatter.obj
 0002:00004440       ??_C@_0DC@BAN@high?5definition?5video?0?5?$DO?516?39?5as@ 004df440     formatter.obj
 0002:00004478       ??_C@_0EB@JEON@high?5definition?5video?0?516?39?5aspe@ 004df478     formatter.obj
 0002:000044c0       ??_C@_0EB@CFOB@high?5definition?5video?0?516?39?5aspe@ 004df4c0     formatter.obj
 0002:00004504       ??_C@_0CP@CNJM@high?5definition?5video?0?54?33?5aspec@ 004df504     formatter.obj
 0002:00004534       ??_C@_0DC@BBDC@high?5definition?5video?0?5?$DO?516?39?5as@ 004df534     formatter.obj
 0002:00004568       ??_C@_0EE@NMOI@high?5definition?5video?0?516?39?5aspe@ 004df568     formatter.obj
 0002:000045b0       ??_C@_0EB@DFNO@high?5definition?5video?0?516?39?5aspe@ 004df5b0     formatter.obj
 0002:000045f4       ??_C@_0CP@DNKD@high?5definition?5video?0?54?33?5aspec@ 004df5f4     formatter.obj
 0002:00004624       ??_C@_0CC@PMBN@video?0?5?$DO?516?39?5aspect?5ratio?0?530?5H@ 004df624     formatter.obj
 0002:00004648       ??_C@_0DE@DIHH@video?0?516?39?5aspect?5ratio?5without@ 004df648     formatter.obj
 0002:0000467c       ??_C@_0DB@JGIL@video?0?516?39?5aspect?5ratio?5with?5pa@ 004df67c     formatter.obj
 0002:000046b0       ??_C@_0BP@CECM@video?0?54?33?5aspect?5ratio?0?530?5Hz?$AA@ 004df6b0     formatter.obj
 0002:000046d0       ??_C@_0CC@OMCC@video?0?5?$DO?516?39?5aspect?5ratio?0?525?5H@ 004df6d0     formatter.obj
 0002:000046f4       ??_C@_0DE@CIEI@video?0?516?39?5aspect?5ratio?5without@ 004df6f4     formatter.obj
 0002:00004728       ??_C@_0DB@IGLE@video?0?516?39?5aspect?5ratio?5with?5pa@ 004df728     formatter.obj
 0002:0000475c       ??_C@_0BP@DEBD@video?0?54?33?5aspect?5ratio?0?525?5Hz?$AA@ 004df75c     formatter.obj
 0002:0000477c       ??_C@_0BM@IHBN@Component?3?5?$CFs?5?$CFc?$CFc?$CFc?5?$CI?$CFs?$CJ?$AN?6?$AA@ 004df77c     formatter.obj
 0002:00004798       ??_C@_0P@JNFO@live?5broadcast?$AA@ 004df798     formatter.obj
 0002:000047a8       ??_C@_0M@LFN@unpublished?$AA@ 004df7a8     formatter.obj
 0002:000047b4       ??_C@_0O@EGEH@black?5?$CG?5white?$AA@ 004df7b4     formatter.obj
 0002:000047c4       ??_C@_0BC@OCDG@original?5language?$AA@ 004df7c4     formatter.obj
 0002:000047d8       ??_C@_09KHDP@gardening?$AA@ 004df7d8     formatter.obj
 0002:000047e4       ??_C@_0BH@OBEH@advertisement?1shopping?$AA@ 004df7e4     formatter.obj
 0002:000047fc       ??_C@_07FAME@cooking?$AA@  004df7fc     formatter.obj
 0002:00004804       ??_C@_0BB@GBOO@fitness?5?$CG?5health?$AA@ 004df804     formatter.obj
 0002:00004818       ??_C@_08KKKI@motoring?$AA@ 004df818     formatter.obj
 0002:00004824       ??_C@_0L@NMPD@handicraft?$AA@ 004df824     formatter.obj
 0002:00004830       ??_C@_0P@OBOO@tourism?1travel?$AA@ 004df830     formatter.obj
 0002:00004840       ??_C@_0BK@CNJJ@leisure?5hobbies?5?$CIgeneral?$CJ?$AA@ 004df840     formatter.obj
 0002:0000485c       ??_C@_09EJNJ@languages?$AA@ 004df85c     formatter.obj
 0002:00004868       ??_C@_0BC@CPOC@further?5education?$AA@ 004df868     formatter.obj
 0002:0000487c       ??_C@_0BK@FJAC@social?1spiritual?5sciences?$AA@ 004df87c     formatter.obj
 0002:00004898       ??_C@_0BO@OCPB@foreign?5countries?1expeditions?$AA@ 004df898     formatter.obj
 0002:000048b8       ??_C@_0BP@MIFP@medicine?1physiology?1psychology?$AA@ 004df8b8     formatter.obj
 0002:000048d8       ??_C@_0BM@DDJI@technology?1natural?5sciences?$AA@ 004df8d8     formatter.obj
 0002:000048f4       ??_C@_0BL@OAGO@nature?1animals?1environment?$AA@ 004df8f4     formatter.obj
 0002:00004910       ??_C@_0CL@IILM@education?1science?1factual?5topics@ 004df910     formatter.obj
 0002:0000493c       ??_C@_0BC@PENN@remarkable?5people?$AA@ 004df93c     formatter.obj
 0002:00004950       ??_C@_0BK@BEJD@economics?1social?5advisory?$AA@ 004df950     formatter.obj
 0002:0000496c       ??_C@_0BO@EJHD@magazines?1reports?1documentary?$AA@ 004df96c     formatter.obj
 0002:0000498c       ??_C@_0CM@LCO@social?1political?5issues?1economic@ 004df98c     formatter.obj
 0002:000049b8       ??_C@_07BAFP@fashion?$AA@  004df9b8     formatter.obj
 0002:000049c0       ??_C@_0BH@LOBO@arts?1culture?5magazines?$AA@ 004df9c0     formatter.obj
 0002:000049d8       ??_C@_09KNFE@new?5media?$AA@ 004df9d8     formatter.obj
 0002:000049e4       ??_C@_0BD@EKIB@broadcasting?1press?$AA@ 004df9e4     formatter.obj
 0002:000049f8       ??_C@_0BI@LFNL@experimental?5film?1video?$AA@ 004df9f8     formatter.obj
 0002:00004a10       ??_C@_0M@DPKK@film?1cinema?$AA@ 004dfa10     formatter.obj
 0002:00004a1c       ??_C@_0L@HP@literature?$AA@ 004dfa1c     formatter.obj
 0002:00004a28       ??_C@_0CB@PLDP@popular?5culture?1traditional?5arts@ 004dfa28     formatter.obj
 0002:00004a4c       ??_C@_08ICBI@religion?$AA@ 004dfa4c     formatter.obj
 0002:00004a58       ??_C@_09NJKI@fine?5arts?$AA@ 004dfa58     formatter.obj
 0002:00004a64       ??_C@_0BA@POOF@performing?5arts?$AA@ 004dfa64     formatter.obj
 0002:00004a74       ??_C@_0CG@LCEK@arts?1culture?5?$CIwithout?5music?0?5gen@ 004dfa74     formatter.obj
 0002:00004a9c       ??_C@_06MDOC@ballet?$AA@   004dfa9c     formatter.obj
 0002:00004aa4       ??_C@_0O@FKIN@musical?1opera?$AA@ 004dfaa4     formatter.obj
 0002:00004ab4       ??_C@_04NJAD@jazz?$AA@     004dfab4     formatter.obj
 0002:00004abc       ??_C@_0BH@NMDN@folk?1traditional?5music?$AA@ 004dfabc     formatter.obj
 0002:00004ad4       ??_C@_0BO@ECIK@serious?5music?1classical?5music?$AA@ 004dfad4     formatter.obj
 0002:00004af4       ??_C@_08DBND@rock?1pop?$AA@ 004dfaf4     formatter.obj
 0002:00004b00       ??_C@_0BN@GGAB@music?1ballet?1dance?5?$CIgeneral?$CJ?$AA@ 004dfb00     formatter.obj
 0002:00004b20       ??_C@_0BB@OPDG@cartoons?1puppets?$AA@ 004dfb20     formatter.obj
 0002:00004b34       ??_C@_0CM@HCEO@informational?1educational?1school@ 004dfb34     formatter.obj
 0002:00004b60       ??_C@_0CG@NFGH@entertainment?5programmes?5for?510?5@ 004dfb60     formatter.obj
 0002:00004b88       ??_C@_0CE@EBBB@entertainment?5programmes?5for?56?5t@ 004dfb88     formatter.obj
 0002:00004bac       ??_C@_0CB@JIB@pre?9school?5children?8s?5programmes@ 004dfbac     formatter.obj
 0002:00004bd0       ??_C@_0CG@GHEM@children?8s?1youth?5programmes?5?$CIgen@ 004dfbd0     formatter.obj
 0002:00004bf8       ??_C@_0P@MAMP@martial?5sports?$AA@ 004dfbf8     formatter.obj
 0002:00004c08       ??_C@_0L@OEDJ@equestrian?$AA@ 004dfc08     formatter.obj
 0002:00004c14       ??_C@_0O@GKGN@winter?5sports?$AA@ 004dfc14     formatter.obj
 0002:00004c24       ??_C@_0M@MOCK@water?5sport?$AA@ 004dfc24     formatter.obj
 0002:00004c30       ??_C@_0M@GIAB@motor?5sport?$AA@ 004dfc30     formatter.obj
 0002:00004c3c       ??_C@_09GCEC@athletics?$AA@ 004dfc3c     formatter.obj
 0002:00004c48       ??_C@_0CB@MINA@team?5sports?5?$CIexcluding?5football?$CJ@ 004dfc48     formatter.obj
 0002:00004c6c       ??_C@_0O@BDNI@tennis?1squash?$AA@ 004dfc6c     formatter.obj
 0002:00004c7c       ??_C@_0BA@EHNJ@football?1soccer?$AA@ 004dfc7c     formatter.obj
 0002:00004c8c       ??_C@_0BB@EJFE@sports?5magazines?$AA@ 004dfc8c     formatter.obj
 0002:00004ca0       ??_C@_0CO@PMPH@special?5events?5?$CIOlympic?5Games?0Wo@ 004dfca0     formatter.obj
 0002:00004cd0       ??_C@_0BB@ELFE@sports?5?$CIgeneral?$CJ?$AA@ 004dfcd0     formatter.obj
 0002:00004ce4       ??_C@_09PBAN@talk?5show?$AA@ 004dfce4     formatter.obj
 0002:00004cf0       ??_C@_0N@EGHA@variety?5show?$AA@ 004dfcf0     formatter.obj
 0002:00004d00       ??_C@_0BH@CHMB@game?5show?1quiz?1contest?$AA@ 004dfd00     formatter.obj
 0002:00004d18       ??_C@_0BJ@OIPN@show?1game?5show?5?$CIgeneral?$CJ?$AA@ 004dfd18     formatter.obj
 0002:00004d34       ??_C@_0BM@IMDL@discussion?1interview?1debate?$AA@ 004dfd34     formatter.obj
 0002:00004d50       ??_C@_0M@IPEK@documentary?$AA@ 004dfd50     formatter.obj
 0002:00004d5c       ??_C@_0O@IGEA@news?5magazine?$AA@ 004dfd5c     formatter.obj
 0002:00004d6c       ??_C@_0BE@OOHK@news?1weather?5report?$AA@ 004dfd6c     formatter.obj
 0002:00004d80       ??_C@_0BP@GCMB@news?1current?5affairs?5?$CIgeneral?$CJ?$AA@ 004dfd80     formatter.obj
 0002:00004da0       ??_C@_0BC@NGJN@adult?5movie?1drama?$AA@ 004dfda0     formatter.obj
 0002:00004db4       ??_C@_0DD@OGAF@serious?1classical?1religious?1hist@ 004dfdb4     formatter.obj
 0002:00004de8       ??_C@_07KFGO@romance?$AA@  004dfde8     formatter.obj
 0002:00004df0       ??_C@_0BJ@NKJC@soap?1melodrama?1folkloric?$AA@ 004dfdf0     formatter.obj
 0002:00004e0c       ??_C@_06DCJP@comedy?$AA@   004dfe0c     formatter.obj
 0002:00004e14       ??_C@_0BP@BPNJ@science?5fiction?1fantasy?1horror?$AA@ 004dfe14     formatter.obj
 0002:00004e34       ??_C@_0BG@LGEE@adventure?1western?1war?$AA@ 004dfe34     formatter.obj
 0002:00004e4c       ??_C@_0BD@IEKD@detective?1thriller?$AA@ 004dfe4c     formatter.obj
 0002:00004e60       ??_C@_0BG@IABA@movie?1drama?5?$CIgeneral?$CJ?$AA@ 004dfe60     formatter.obj
 0002:00004e78       ??_C@_0BC@LIPM@undefined?5content?$AA@ 004dfe78     formatter.obj
 0002:00004e8c       ??_C@_0CB@HPAL@Content?3?5?$CFs?5?$CIuser?50x?$CF1x?10x?$CF1x?$CJ?$AN?6@ 004dfe8c     formatter.obj
 0002:00004eb0       ??_C@_0CM@JABP@Parental?5rating?3?5Country?5?$CFc?$CFc?$CFc?5@ 004dfeb0     formatter.obj
 0002:00004edc       ??_C@_0BH@DCNO@defined?5by?5broadcaster?$AA@ 004dfedc     formatter.obj
 0002:00004ef4       ??_C@_0N@BLFH@?$CFd?5years?5old?$AA@ 004dfef4     formatter.obj
 0002:00004f04       ??_C@_09PALF@undefined?$AA@ 004dff04     formatter.obj
 0002:00004f10       ??_C@_0CE@LMKC@Multilangual?5component?3?5?$CFc?$CFc?$CFc?5?$CF@ 004dff10     formatter.obj
 0002:00004f34       ??_C@_0BG@LICA@ATSC?5AC3?5Descriptor?$AN?6?$AA@ 004dff34     formatter.obj
 0002:00004f4c       ??_C@_06MCMF@?$CFs?$CI?$CFs?$CJ?$AA@ 004dff4c     formatter.obj
 0002:00004f54       ??_C@_0CI@DAOB@?5Region?5?$CFd?5Rating?3?5?$CFs?5Descriptio@ 004dff54     formatter.obj
 0002:00004f7c       ??_C@_0CE@IAND@ATSC?5Content?5Advisory?5Descriptor@ 004dff7c     formatter.obj
 0002:00004fa0       ??_C@_0BL@CADF@?5Language?3?5?$CFs?5Format?3?5?$CFs?$AN?6?$AA@ 004dffa0     formatter.obj
 0002:00004fbc       ??_C@_0BE@COOB@Captions?5service?5?$CFd?$AA@ 004dffbc     formatter.obj
 0002:00004fd0       ??_C@_0BP@BCED@Line?521?5captions?5from?5?$CFs?5field?$AA@ 004dffd0     formatter.obj
 0002:00004ff0       ??_C@_04IBOA@Even?$AA@     004dfff0     formatter.obj
 0002:00004ff8       ??_C@_03NDFP@Odd?$AA@      004dfff8     formatter.obj
 0002:00004ffc       ??_C@_0CD@CGHD@ATSC?5Caption?5Service?5Descriptor?3@ 004dfffc     formatter.obj
 0002:00005020       ??_C@_05OOAB@?$CF02x?5?$AA@ 004e0020     formatter.obj
 0002:00005028       ??_C@_0BF@CBLF@Descriptor?3?50x?$CF02x?3?5?$AA@ 004e0028     formatter.obj
 0002:00005040       ??_C@_0BK@PNAI@?$DM?1DATA?$DO?$AN?6?5?5?5?$DM?1DESCRIPTOR?$DO?$AA@ 004e0040     formatter.obj
 0002:0000505c       ??_C@_07POOB@0x?$CF02x?5?$AA@ 004e005c     formatter.obj
 0002:00005068       ??_C@_0EI@JAFI@?5?5?$DMDESCRIPTOR?$DO?$AN?6?5?5?5?$DMTAG?$DO0x?$CF02x?$DM?1@ 004e0068     formatter.obj
 0002:000050b0       ??_C@_0CF@BIF@Scale?5Factor?5Error?5Check?5?$CIScF?9CR@ 004e00b0     formatter.obj
 0002:000050d8       ??_C@_0BF@NEND@DAB?5Ancillary?5Data?0?5?$AA@ 004e00d8     formatter.obj
 0002:000050f0       ??_C@_0BO@PEIJ@Announcement?5Switching?5Data?0?5?$AA@ 004e00f0     formatter.obj
 0002:00005110       ??_C@_0BK@MGA@Extended?5Ancillary?5Data?0?5?$AA@ 004e0110     formatter.obj
 0002:0000512c       ??_C@_0BL@MIDJ@DVD?9Video?5Ancillary?5Data?0?5?$AA@ 004e012c     formatter.obj
 0002:00005148       ??_C@_0FE@PNP@?5Original?5Network?5ID?3?5?$CFd?5Transpo@ 004e0148     formatter.obj
 0002:0000519c       ??_C@_0CM@JKAD@?5Announcement?5Type?3?5?$CFs?5Reference@ 004e019c     formatter.obj
 0002:000051c8       ??_C@_0FO@HPEB@Announcement?5is?5broadcast?5by?5mea@ 004e01c8     formatter.obj
 0002:00005228       ??_C@_0FL@BFOF@Announcement?5is?5broadcast?5by?5mea@ 004e0228     formatter.obj
 0002:00005288       ??_C@_0FB@FKCF@Announcement?5is?5broadcast?5in?5a?5s@ 004e0288     formatter.obj
 0002:000052e0       ??_C@_0ED@DHLF@Announcement?5is?5broadcast?5in?5the@ 004e02e0     formatter.obj
 0002:00005324       ??_C@_0O@CFON@Personal?5call?$AA@ 004e0324     formatter.obj
 0002:00005334       ??_C@_0BD@OKPL@Event?5announcement?$AA@ 004e0334     formatter.obj
 0002:00005348       ??_C@_0O@HJAN@Weather?5flash?$AA@ 004e0348     formatter.obj
 0002:00005358       ??_C@_0L@HGO@News?5flash?$AA@ 004e0358     formatter.obj
 0002:00005364       ??_C@_0BA@CDLO@Warning?5message?$AA@ 004e0364     formatter.obj
 0002:00005374       ??_C@_0BH@GGLE@Public?5Transport?5flash?$AA@ 004e0374     formatter.obj
 0002:0000538c       ??_C@_0BD@PCFL@Road?5Traffic?5flash?$AA@ 004e038c     formatter.obj
 0002:000053a0       ??_C@_0BA@CCEN@Emergency?5alarm?$AA@ 004e03a0     formatter.obj
 0002:000053b0       ??_C@_0BA@OIPH@Personal?5call?0?5?$AA@ 004e03b0     formatter.obj
 0002:000053c0       ??_C@_0BF@DGHG@Event?5announcement?0?5?$AA@ 004e03c0     formatter.obj
 0002:000053d8       ??_C@_0BA@PIIA@Weather?5flash?0?5?$AA@ 004e03d8     formatter.obj
 0002:000053e8       ??_C@_0N@MNGG@News?5flash?0?5?$AA@ 004e03e8     formatter.obj
 0002:000053f8       ??_C@_0BC@DLMK@Warning?5message?0?5?$AA@ 004e03f8     formatter.obj
 0002:0000540c       ??_C@_0BJ@NLOJ@Public?5Transport?5flash?0?5?$AA@ 004e040c     formatter.obj
 0002:00005428       ??_C@_0BF@OKEM@Road?5Traffic?5flash?0?5?$AA@ 004e0428     formatter.obj
 0002:00005440       ??_C@_0BC@CHE@Emergency?5alarm?0?5?$AA@ 004e0440     formatter.obj
 0002:00005454       ??_C@_0CC@GBBK@?5Announcement?5support?5indicator?3@ 004e0454     formatter.obj
 0002:00005478       ??_C@_0M@INKO@eight?5cells?$AA@ 004e0478     formatter.obj
 0002:00005484       ??_C@_0M@BEJP@seven?5cells?$AA@ 004e0484     formatter.obj
 0002:00005490       ??_C@_09GNGK@six?5cells?$AA@ 004e0490     formatter.obj
 0002:0000549c       ??_C@_0L@MFAP@five?5cells?$AA@ 004e049c     formatter.obj
 0002:000054a8       ??_C@_0L@LAHO@four?5cells?$AA@ 004e04a8     formatter.obj
 0002:000054b4       ??_C@_0M@EBNK@three?5cells?$AA@ 004e04b4     formatter.obj
 0002:000054c0       ??_C@_09HBFK@two?5cells?$AA@ 004e04c0     formatter.obj
 0002:000054cc       ??_C@_08JNIO@one?5cell?$AA@ 004e04cc     formatter.obj
 0002:000054d8       ??_C@_08GPNG@reserved?$AA@ 004e04d8     formatter.obj
 0002:000054e4       ??_C@_02DDJE@60?$AA@       004e04e4     formatter.obj
 0002:000054e8       ??_C@_06NPFB@59?494?$LM?$AA@ 004e04e8     formatter.obj
 0002:000054f0       ??_C@_02IGL@50?$AA@        004e04f0     formatter.obj
 0002:000054f4       ??_C@_02HPJE@30?$AA@       004e04f4     formatter.obj
 0002:000054f8       ??_C@_06MMO@29?497?$LM?$AA@ 004e04f8     formatter.obj
 0002:00005500       ??_C@_02GJPF@25?$AA@       004e0500     formatter.obj
 0002:00005504       ??_C@_02MDGC@24?$AA@       004e0504     formatter.obj
 0002:00005508       ??_C@_07FIPD@23?4976?$LM?$AA@ 004e0508     formatter.obj
 0002:00005510       ??_C@_09PCNC@forbidden?$AA@ 004e0510     formatter.obj
 0002:0000551c       ??_C@_06MHEL@?$DM?1PRE?$DO?$AA@ 004e051c     formatter.obj
 0002:00005524       ??_C@_05DAPG@?$DMPRE?$DO?$AA@ 004e0524     formatter.obj
 0002:0000552c       ??_C@_0BG@GMON@?5Component?5Name?3?5?$CFs?$AN?6?$AA@ 004e052c     formatter.obj
 0002:00005544       ??_C@_0CJ@IHAK@?5Time?5Shift?3?5?$CFd?5minutes?5Channel?3@ 004e0544     formatter.obj
 0002:00005570       ??_C@_0DE@ICLG@?5Stream?5Type?50x?$CF02x?5?$CI?$CFs?$CJ?5ESPID?5?$DN@ 004e0570     formatter.obj
 0002:000055a4       ??_C@_0O@PBGK@?5PCR?5PID?5?$CFs?$AN?6?$AA@ 004e05a4     formatter.obj
 0002:000055b4       ??_C@_0BP@FHM@Service?5Location?5Descriptor?3?$AN?6?$AA@ 004e05b4     formatter.obj
 0002:000055d4       ??_C@_0BM@CKF@Extended?5Channel?5Name?3?5?$CFs?$AN?6?$AA@ 004e05d4     formatter.obj
 0002:000055f0       ??_C@_0BN@6?$FLUnsupported?5Huffman?5coding?$FN?$AA@ 004e05f0     formatter.obj
 0002:00005610       ??_C@_0CO@DELA@?5Langauge?5Code?3?5?$CFc?$CFc?$CFc?5Component@ 004e0610     formatter.obj
 0002:00005640       ??_C@_0CN@EEOI@?5Catalog?5Mode?3?5?$CFs?5Video?5Includes@ 004e0640     formatter.obj
 0002:00005670       ??_C@_0CI@DDLC@?5Logical?5channel?5?$CFd?5?$DN?5MPEG?5servi@ 004e0670     formatter.obj
 0002:00005698       ??_C@_0CP@ELKD@?5Multiple?5frame?5rate?5flag?3?5?$CFs?5Fr@ 004e0698     formatter.obj
 0002:000056c8       ??_C@_0FN@IJIM@?5?$CFs?5Frame?5size?3?5?$CFs?$AN?6?5Max?5burst?5d@ 004e06c8     formatter.obj
 0002:00005728       ??_C@_06JGAL@?$CFdkbps?$AA@ 004e0728     formatter.obj
 0002:00005730       ??_C@_0BB@MJFH@2048kb?51024?5rows?$AA@ 004e0730     formatter.obj
 0002:00005744       ??_C@_0BA@KLKI@1536kb?5768?5rows?$AA@ 004e0744     formatter.obj
 0002:00005754       ??_C@_0BA@NPPA@1024kb?5512?5rows?$AA@ 004e0754     formatter.obj
 0002:00005764       ??_C@_0P@MJJN@512kb?5256?5rows?$AA@ 004e0764     formatter.obj
 0002:00005774       ??_C@_0CD@HHLG@MPE?9FEC?5Reed?9Solomon?$CI255?0?5191?0?56@ 004e0774     formatter.obj
 0002:00005798       ??_C@_0BB@IFGP@MPE?9FEC?5not?5used?$AA@ 004e0798     formatter.obj
 0002:000057ac       ??_C@_0CO@GIEH@?5?5Cell?5ID?5extension?3?5?$CFd?5Frequenc@ 004e07ac     formatter.obj
 0002:000057dc       ??_C@_0CD@DELD@?5Cell?5ID?3?5?$CFd?5Frequency?3?5?$CF?43f?5MHz@ 004e07dc     formatter.obj
 0002:00005800       ??_C@_0EJ@FLCP@?5Subcell?5ID?3?5?$CFd?5Longitude?3?5?$CFd?5Ex@ 004e0800     formatter.obj
 0002:00005850       ??_C@_0FD@LJKB@?5Cell?5ID?3?5?$CFd?5Latitude?3?5?$CFd?5Longit@ 004e0850     formatter.obj
 0002:000058a4       ??_C@_0M@DANG@?5ASVC?3?5?$CFd?$AN?6?$AA@ 004e08a4     formatter.obj
 0002:000058b0       ??_C@_0P@CLNB@?5Main?5ID?3?5?$CFd?$AN?6?$AA@ 004e08b0     formatter.obj
 0002:000058c0       ??_C@_0M@FCCM@?5BSID?3?5?$CFd?$AN?6?$AA@ 004e08c0     formatter.obj
 0002:000058cc       ??_C@_0BA@LOBL@?5AC3?5Type?3?5?$CFd?$AN?6?$AA@ 004e08cc     formatter.obj
 0002:000058dc       ??_C@_0DF@NLIL@?5Flags?3?5AC3?5Type?3?5?$CFs?5BSID?3?5?$CFs?5Ma@ 004e08dc     formatter.obj
 0002:00005914       ??_C@_0CJ@PMMN@?5Day?3?5?$CFd?5Month?3?5?$CFd?5Hour?3?5?$CFd?5Minu@ 004e0914     formatter.obj
 0002:00005940       ??_C@_0CM@BILI@?5Data?5Broadcast?5ID?3?5?$CFd?5Selector?5@ 004e0940     formatter.obj
 0002:00005970       ??_C@_0FK@IBDB@?5Data?5Broadcast?5ID?3?5?$CFd?5Component@ 004e0970     formatter.obj
 0002:000059cc       ??_C@_0DH@CAJL@?5Peak?5rate?3?5?$CFd?5Minimum?5Overall?5S@ 004e09cc     formatter.obj
 0002:00005a04       ??_C@_0BJ@ICGP@?5Terrestrial?3?5?$CF?43f?5MHz?$AN?6?$AA@ 004e0a04     formatter.obj
 0002:00005a20       __real@47c35000            004e0a20     formatter.obj
 0002:00005a24       ??_C@_0BD@FKNM@?5Cable?3?5?$CF?43f?5MHz?$AN?6?$AA@ 004e0a24     formatter.obj
 0002:00005a38       __real@461c4000            004e0a38     formatter.obj
 0002:00005a3c       ??_C@_0BH@BKPP@?5Satellite?3?5?$CF?43f?5MHz?$AN?6?$AA@ 004e0a3c     formatter.obj
 0002:00005a54       __real@447a0000            004e0a54     formatter.obj
 0002:00005a58       ??_C@_0CI@PPLI@?5Buffer?5Size?3?5?$CFs?5Leak?5Rate?3?5?$CF?43f@ 004e0a58     formatter.obj
 0002:00005a80       ??_C@_04CDCE@1536?$AA@     004e0a80     formatter.obj
 0002:00005a88       ??_C@_0EA@MFCO@?5New?5Original?5Network?3?5?$CFd?5Transp@ 004e0a88     formatter.obj
 0002:00005ac8       ??_C@_0BO@MHLE@?5Private?5Data?5Specifier?3?5?$CFs?$AN?6?$AA@ 004e0ac8     formatter.obj
 0002:00005ae8       ??_C@_0DF@GHGC@?5Language?3?5?$CFc?$CFc?$CFc?5Service?5Provid@ 004e0ae8     formatter.obj
 0002:00005b20       ??_C@_0FA@LDL@?5Language?3?5?$CFc?$CFc?$CFc?5Subtitling?5Typ@ 004e0b20     formatter.obj
 0002:00005b70       ??_C@_0CK@MGLN@?5Language?5code?3?5?$CFc?$CFc?$CFc?5Network?5N@ 004e0b70     formatter.obj
 0002:00005ba0       ??_C@_0IB@IFCD@?5Country?5Code?5?$CFc?$CFc?$CFc?5Region?5?$CFs?$AN?6@ 004e0ba0     formatter.obj
 0002:00005c24       ??_C@_0N@HEBL@Time?5Zone?5?$CFd?$AA@ 004e0c24     formatter.obj
 0002:00005c34       ??_C@_08IBND@Not?5used?$AA@ 004e0c34     formatter.obj
 0002:00005c40       ??_C@_0HD@LHHJ@?5Foreign?5Availability?3?5?$CFs?5Connec@ 004e0c40     formatter.obj
 0002:00005cb8       ??_C@_0EP@IBGG@?5Original?5Network?5ID?3?5?$CFd?5Transpo@ 004e0cb8     formatter.obj
 0002:00005d08       ??_C@_0EC@IOFO@?5Original?5Network?5ID?3?5?$CFd?5Transpo@ 004e0d08     formatter.obj
 0002:00005d4c       ??_C@_0BC@PHKK@?5Bouquet?5ID?3?5?$CFd?$AN?6?$AA@ 004e0d4c     formatter.obj
 0002:00005d60       ??_C@_0BK@NHBE@?5Elementary?5Cell?5ID?3?5?$CFd?$AN?6?$AA@ 004e0d60     formatter.obj
 0002:00005d7c       ??_C@_0CN@DGJO@?5Logical?5Cell?5ID?3?5?$CFd?5Presentatio@ 004e0d7c     formatter.obj
 0002:00005db0       ??_C@_0EC@FNNA@?5Mosaic?5Entry?5Point?3?5?$CFs?5Horizont@ 004e0db0     formatter.obj
 0002:00005df4       ??_C@_0DD@PHGB@?5Reference?5Service?5ID?3?5?$CFd?5Refere@ 004e0df4     formatter.obj
 0002:00005e28       ??_C@_0CH@BLBN@?5Language?3?5?$CFc?$CFc?$CFc?5Event?3?5?$CFs?5Text@ 004e0e28     formatter.obj
 0002:00005e50       ??_C@_0BM@OBNE@?5Reference?5Service?5ID?3?5?$CFd?$AN?6?$AA@ 004e0e50     formatter.obj
 0002:00005e70       ??_C@_0EC@JEFE@?5Transport?5Stream?5ID?3?5?$CFd?5Origina@ 004e0e70     formatter.obj
 0002:00005eb8       ??_C@_0GO@BMDJ@?5Transport?5Stream?5ID?3?5?$CFd?5?$CI0x?$CF04x@ 004e0eb8     formatter.obj
 0002:00005f28       ??_C@_0BE@IDGK@user?5defined?5?$CI0x?$CFx?$CJ?$AA@ 004e0f28     formatter.obj
 0002:00005f3c       ??_C@_0BP@LMMB@reserved?5for?5future?5use?5?$CI0x?$CFx?$CJ?$AA@ 004e0f3c     formatter.obj
 0002:00005f5c       ??_C@_0BN@BDAO@TS?5containing?5INT?5BAT?5or?5NIT?$AA@ 004e0f5c     formatter.obj
 0002:00005f7c       ??_C@_0BM@DLGF@IP?1MAC?5Notification?5Service?$AA@ 004e0f7c     formatter.obj
 0002:00005f98       ??_C@_0BN@LALA@TS?5containing?5SSU?5BAT?5or?5NIT?$AA@ 004e0f98     formatter.obj
 0002:00005fb8       ??_C@_0BP@DONG@System?5Software?5Update?5Service?$AA@ 004e0fb8     formatter.obj
 0002:00005fd8       ??_C@_0BB@DLBF@mobile?5hand?9over?$AA@ 004e0fd8     formatter.obj
 0002:00005fec       ??_C@_07LOIC@RCS?5Map?$AA@ 004e0fec     formatter.obj
 0002:00005ff4       ??_C@_0BM@NFNO@service?5replacement?5service?$AA@ 004e0ff4     formatter.obj
 0002:00006010       ??_C@_0DI@JHCL@transport?5stream?5containing?5comp@ 004e1010     formatter.obj
 0002:00006048       ??_C@_0BH@FIPF@CA?5replacement?5service?$AA@ 004e1048     formatter.obj
 0002:00006060       ??_C@_0CJ@NMOM@Electronic?5Programme?5Guide?5?$CIEPG?$CJ@ 004e1060     formatter.obj
 0002:0000608c       ??_C@_0BE@CDP@information?5service?$AA@ 004e108c     formatter.obj
 0002:000060a0       ??_C@_0M@BMLL@?$CFs?5?$CFc?$CFc?$CFc?$AN?6?$AA@ 004e10a0     formatter.obj
 0002:000060ac       ??_C@_0BB@GLBC@Not?5available?5in?$AA@ 004e10ac     formatter.obj
 0002:000060c0       ??_C@_0N@HPJE@Available?5in?$AA@ 004e10c0     formatter.obj
 0002:000060d0       ??_C@_0CN@MGNH@?5Service?5Type?3?5?$CFs?5Provider?3?5?$CFs?5S@ 004e10d0     formatter.obj
 0002:00006100       ??_C@_0BE@NJKD@?5Bouquet?5Name?3?5?$CFs?$AN?6?$AA@ 004e1100     formatter.obj
 0002:00006114       ??_C@_0DL@OGIC@?5Language?3?5?$CFc?$CFc?$CFc?5Type?3?5?$CFs?5Magaz@ 004e1114     formatter.obj
 0002:00006150       ??_C@_0DD@OEGJ@Teletext?5subtitle?5page?5for?5heari@ 004e1150     formatter.obj
 0002:00006184       ??_C@_0BG@BAKA@Program?5schedule?5page?$AA@ 004e1184     formatter.obj
 0002:0000619c       ??_C@_0BM@CGNE@Additional?5information?5page?$AA@ 004e119c     formatter.obj
 0002:000061b8       ??_C@_0BH@POMC@Teletext?5subtitle?5page?$AA@ 004e11b8     formatter.obj
 0002:000061d0       ??_C@_0BG@BGOB@Initial?5Teletext?5page?$AA@ 004e11d0     formatter.obj
 0002:000061e8       ??_C@_0BI@BBNE@Reserved?5for?5future?5use?$AA@ 004e11e8     formatter.obj
 0002:00006200       ??_C@_05PGBO@?5?$CFs?$AN?6?$AA@ 004e1200     formatter.obj
 0002:00006208       ??_C@_0CH@FPND@?5?$CFs?5Line?5Offset?3?5?$CFd?5Field?5parity@ 004e1208     formatter.obj
 0002:00006230       ??_C@_0BC@KELD@?5Service?3?5?$CFs?5?$CFs?$AN?6?$AA@ 004e1230     formatter.obj
 0002:00006244       ??_C@_07JCHF@?$CFd?5?$CI?$CFs?$CJ?$AA@ 004e1244     formatter.obj
 0002:0000624c       ??_C@_0CM@IFPI@?5AVC?5still?5present?3?5?$CFd?524?5hour?5p@ 004e124c     formatter.obj
 0002:00006278       ??_C@_0CD@EKGC@?5AVC?5compatible?3?5?$CFd?5Level?5idc?5?$CFd@ 004e1278     formatter.obj
 0002:0000629c       ??_C@_0DB@HNLH@?5Profile?5idc?3?5?$CFd?5Constraint?5set?5@ 004e129c     formatter.obj
 0002:000062d0       ??_C@_0BK@IKIL@?5Maximum?5GOP?5length?3?5?$CFd?$AN?6?$AA@ 004e12d0     formatter.obj
 0002:000062ec       ??_C@_0BK@FBCF@?5Identical?5GOP?5flag?3?5?$CFs?$AN?6?$AA@ 004e12ec     formatter.obj
 0002:00006308       ??_C@_0BH@NGLO@?5Closed?5GOP?5flag?3?5?$CFs?$AN?6?$AA@ 004e1308     formatter.obj
 0002:00006320       ??_C@_0BH@ENFI@?5Leak?5Valid?5Flag?3?5?$CFd?$AN?6?$AA@ 004e1320     formatter.obj
 0002:00006338       ??_C@_0CA@EHNC@?5SB?5Leak?5Rate?3?5?$CFd?5SB?5Size?3?5?$CFd?$AN?6?$AA@ 004e1338     formatter.obj
 0002:00006358       ??_C@_0CI@CCCL@?5Maximum?5bitrate?3?5?$CFd?5bytes?5per?5s@ 004e1358     formatter.obj
 0002:00006380       ??_C@_0DJ@LHEK@?5Bound?5Valid?5Flag?3?5?$CFd?$AN?6?5LTW?5Offs@ 004e1380     formatter.obj
 0002:000063c0       ??_C@_0EI@PPGO@?5External?5Clock?5Reference?3?5?$CFd?5Cl@ 004e13c0     formatter.obj
 0002:00006408       ??_C@_0BN@NPIG@visual?5impaired?5commentary?$AN?6?$AA@ 004e1408     formatter.obj
 0002:00006428       ??_C@_0BD@HDNN@hearing?5impaired?$AN?6?$AA@ 004e1428     formatter.obj
 0002:0000643c       ??_C@_0BA@NFPF@clean?5effects?$AN?6?$AA@ 004e143c     formatter.obj
 0002:0000644c       ??_C@_0M@HJPB@undefined?$AN?6?$AA@ 004e144c     formatter.obj
 0002:00006458       ??_C@_0O@EPP@?5Audio?5type?3?5?$AA@ 004e1458     formatter.obj
 0002:00006468       ??_C@_0BA@JBMB@?5Language?3?5?$CFs?$AN?6?$AA@ 004e1468     formatter.obj
 0002:00006478       ??_C@_0BD@KKKF@?5CA?5private?5data?3?5?$AA@ 004e1478     formatter.obj
 0002:0000648c       ??_C@_0BO@GGDM@?5CA?5operator?5ID?5?$CFd?5?$CI0x?$CF04x?$CJ?$AN?6?$AA@ 004e148c     formatter.obj
 0002:000064ac       ??_C@_0BG@KCJH@?5CA?5PID?5?$CFd?5?$CI0x?$CF04x?$CJ?$AN?6?$AA@ 004e14ac     formatter.obj
 0002:000064c4       ??_C@_0CA@LINF@?5CA?5System?5ID?3?5?$CFd?5?$CI0x?$CF04x?$CJ?5?$CFs?$AN?6?$AA@ 004e14c4     formatter.obj
 0002:000064e8       ??_C@_0EB@NLIM@?5Horizontal?5Offset?3?5?$CFd?5Vertical?5@ 004e14e8     formatter.obj
 0002:0000652c       ??_C@_0DE@JENK@?5Horizontal?5Size?3?5?$CFd?5Vertical?5Si@ 004e152c     formatter.obj
 0002:00006560       ??_C@_06PCIK@2?421?31?$AA@ 004e1560     formatter.obj
 0002:00006568       ??_C@_04HHLM@16?39?$AA@    004e1568     formatter.obj
 0002:00006570       ??_C@_03IDG@4?33?$AA@      004e1570     formatter.obj
 0002:00006574       ??_C@_0O@PCFC@square?5pixels?$AA@ 004e1574     formatter.obj
 0002:00006584       ??_C@_0BG@KOBF@?5Alignment?5type?3?5?$CFs?$AN?6?$AA@ 004e1584     formatter.obj
 0002:0000659c       ??_C@_03BCHJ@SEQ?$AA@      004e159c     formatter.obj
 0002:000065a0       ??_C@_0M@HJAH@GOP?0?5or?5SEQ?$AA@ 004e15a0     formatter.obj
 0002:000065ac       ??_C@_0BC@IMKI@video?5access?5unit?$AA@ 004e15ac     formatter.obj
 0002:000065c0       ??_C@_0BM@IBHK@slice?0?5or?5video?5access?5unit?$AA@ 004e15c0     formatter.obj
 0002:000065dc       ??_C@_0CI@EGCC@?5Format?5identifier?3?50x?$CF08x?5?$CI?$CFc?$CFc@ 004e15dc     formatter.obj
 0002:00006608       ??_C@_0FH@GMDH@?5Hierarchy?5Type?3?5?$CFs?$AN?6?5Hierarchy?5@ 004e1608     formatter.obj
 0002:00006660       ??_C@_0L@LOEN@Base?5layer?$AA@ 004e1660     formatter.obj
 0002:0000666c       ??_C@_0DE@PJOD@ITU?9T?5Rec?4?5H?4222?40?5?$HM?5ISO?1IEC?5138@ 004e166c     formatter.obj
 0002:000066a0       ??_C@_0CE@IODF@ISO?1IEC?513818?93?5Extension?5bitstr@ 004e16a0     formatter.obj
 0002:000066c4       ??_C@_0DF@ELOA@ITU?9T?5Rec?4?5H?4262?5?$HM?5ISO?1IEC?513818@ 004e16c4     formatter.obj
 0002:000066fc       ??_C@_0DI@PDFA@ITU?9T?5Rec?4?5H?4262?5?$HM?5ISO?1IEC?513818@ 004e16fc     formatter.obj
 0002:00006734       ??_C@_0DD@KPFG@ITU?9T?5Rec?4?5H?4262?5?$HM?5ISO?1IEC?513818@ 004e1734     formatter.obj
 0002:00006768       ??_C@_0DH@HHNH@ITU?9T?5Rec?4?5H?4262?5?$HM?5ISO?1IEC?513818@ 004e1768     formatter.obj
 0002:000067a0       ??_C@_0CF@GPEN@?5Variable?5rate?5audio?5indicator?3?5@ 004e17a0     formatter.obj
 0002:000067c8       ??_C@_0N@OMGA@?5Layer?3?5?$CFd?$AN?6?$AA@ 004e17c8     formatter.obj
 0002:000067d8       ??_C@_0BI@CAGK@?5Free?5format?5flag?3?5?$CFs?$AN?6?$AA@ 004e17d8     formatter.obj
 0002:000067f0       ??_C@_0BK@DEJE@?5Still?5picture?5flag?3?5?$CFs?$AN?6?$AA@ 004e17f0     formatter.obj
 0002:0000680c       ??_C@_0CB@BAEJ@?5Constrained?5paramter?5flag?3?5?$CFs?$AN?6@ 004e180c     formatter.obj
 0002:00006830       ??_C@_0BI@DPHP@?5MPEG?91?5only?5flag?3?5?$CFs?$AN?6?$AA@ 004e1830     formatter.obj
 0002:00006848       ??_C@_0BC@FLAE@?5Frame?5rate?3?5?$CFs?$AN?6?$AA@ 004e1848     formatter.obj
 0002:0000685c       ??_C@_0CA@IKAN@?5Multiple?5frame?5rate?5flag?3?5?$CFs?$AN?6?$AA@ 004e185c     formatter.obj
 0002:0000687c       ??_C@_0BF@LLON@?5Reserved?5Descriptor?$AA@ 004e187c     formatter.obj
 0002:00006894       ??_C@_0BO@KNHJ@Defined?5in?5private?5descriptor?$AA@ 004e1894     formatter.obj
 0002:000068b4       ??_C@_0O@GFMG@ATSC?5?$CI16?5VSB?$CJ?$AA@ 004e18b4     formatter.obj
 0002:000068c4       ??_C@_0N@LNLD@ATSC?5?$CI8?5VSB?$CJ?$AA@ 004e18c4     formatter.obj
 0002:000068d4       ??_C@_0M@KLKK@SCTE_mode_2?$AA@ 004e18d4     formatter.obj
 0002:000068e0       ??_C@_0M@FEBD@SCTE_mode_1?$AA@ 004e18e0     formatter.obj
 0002:000068ec       ??_C@_06PMJE@Analog?$AA@   004e18ec     formatter.obj
 0002:000068f4       ??_C@_04KIKH@none?$AA@     004e18f4     formatter.obj
 0002:000068fc       ??_C@_04NLCO@5?111?$AA@    004e18fc     formatter.obj
 0002:00006904       ??_C@_0BP@NHHM@System?5Time?5Table?5?$CISTT?5?9?5ATSC?$CJ?$AA@ 004e1904     formatter.obj
 0002:00006924       ??_C@_0CB@BFCB@Extended?5Text?5Table?5?$CIETT?5?9?5ATSC?$CJ@ 004e1924     formatter.obj
 0002:00006948       ??_C@_0CF@PFFO@Event?5Information?5Table?5?$CIEIT?5?9?5A@ 004e1948     formatter.obj
 0002:00006970       ??_C@_0CB@KOIO@Rating?5Region?5Table?5?$CIRRT?5?9?5ATSC?$CJ@ 004e1970     formatter.obj
 0002:00006994       ??_C@_0CK@FNC@Cable?5Virtual?5Channel?5Table?5?$CICVC@ 004e1994     formatter.obj
 0002:000069c0       ??_C@_0DA@DGCK@Terrestrial?5Virtual?5Channel?5Tabl@ 004e19c0     formatter.obj
 0002:000069f0       ??_C@_0CA@INPA@Master?5Guide?5Table?5?$CIMGT?5?9?5ATSC?$CJ?$AA@ 004e19f0     formatter.obj
 0002:00006a10       ??_C@_0BA@DPHE@Subtitle?5?$CIDCII?$CJ?$AA@ 004e1a10     formatter.obj
 0002:00006a20       ??_C@_0BD@KBAF@System?5Time?5?$CIDCII?$CJ?$AA@ 004e1a20     formatter.obj
 0002:00006a34       ??_C@_0BH@EFBJ@Virtual?5Channel?5?$CIDCII?$CJ?$AA@ 004e1a34     formatter.obj
 0002:00006a4c       ??_C@_0BE@NAOK@Network?5Text?5?$CIDCII?$CJ?$AA@ 004e1a4c     formatter.obj
 0002:00006a60       ??_C@_0BL@HBOD@Network?5Information?5?$CIDCII?$CJ?$AA@ 004e1a60     formatter.obj
 0002:00006a7c       ??_C@_0BE@NGKE@Program?5Name?5?$CIDCII?$CJ?$AA@ 004e1a7c     formatter.obj
 0002:00006a90       ??_C@_0BL@HDON@Program?5Information?5?$CIDCII?$CJ?$AA@ 004e1a90     formatter.obj
 0002:00006aac       ??_C@_0CC@KJPJ@Selection?5Information?5?$CISIT?5?9?5DVB@ 004e1aac     formatter.obj
 0002:00006ad0       ??_C@_0CG@MALP@Discontinuity?5Information?5?$CIDIT?5?9@ 004e1ad0     formatter.obj
 0002:00006af8       ??_C@_0BI@LCLO@Time?5Offset?5?$CITOT?5?9?5DVB?$CJ?$AA@ 004e1af8     formatter.obj
 0002:00006b10       ??_C@_0BE@PICJ@Stuffing?5?$CIST?5?9?5DVB?$CJ?$AA@ 004e1b10     formatter.obj
 0002:00006b24       ??_C@_0BL@ENBN@Running?5Status?5?$CIRST?5?9?5DVB?$CJ?$AA@ 004e1b24     formatter.obj
 0002:00006b40       ??_C@_0BG@BLNH@Time?5Date?5?$CITDT?5?9?5DVB?$CJ?$AA@ 004e1b40     formatter.obj
 0002:00006b58       ??_C@_0CB@NPHO@Event?5Schedule?5Other?5?$CIEIT?5?9?5DVB?$CJ@ 004e1b58     formatter.obj
 0002:00006b7c       ??_C@_0CC@KCMM@Event?5Schedule?5Actual?5?$CIEIT?5?9?5DVB@ 004e1b7c     formatter.obj
 0002:00006ba0       ??_C@_0CK@NCBE@Event?5Present?1Following?5Other?5?$CIE@ 004e1ba0     formatter.obj
 0002:00006bcc       ??_C@_0CL@PEMB@Event?5Present?1Following?5Actual?5?$CI@ 004e1bcc     formatter.obj
 0002:00006bf8       ??_C@_0BP@DBBM@Bouquet?5Assocation?5?$CIBAT?5?9?5DVB?$CJ?$AA@ 004e1bf8     formatter.obj
 0002:00006c18       ??_C@_0CF@JNEH@Service?5Definition?5Other?5?$CISDT?5?9?5@ 004e1c18     formatter.obj
 0002:00006c40       ??_C@_0CG@MIAL@Service?5Definition?5Actual?5?$CISDT?5?9@ 004e1c40     formatter.obj
 0002:00006c68       ??_C@_0CG@KIDC@Network?5Information?5Other?5?$CINIT?5?9@ 004e1c68     formatter.obj
 0002:00006c90       ??_C@_0CH@NBAB@Network?5Information?5Actual?5?$CINIT?5@ 004e1c90     formatter.obj
 0002:00006cb8       ??_C@_0CL@HEMM@Transport?5Stream?5Description?5?$CITS@ 004e1cb8     formatter.obj
 0002:00006ce4       ??_C@_0BP@PKHJ@Program?5Map?5Table?5?$CIPMT?5?9?5MPEG?$CJ?$AA@ 004e1ce4     formatter.obj
 0002:00006d04       ??_C@_0CG@GHKF@Conditional?5Access?5Table?5?$CICAT?5?9?5@ 004e1d04     formatter.obj
 0002:00006d2c       ??_C@_0CH@KCND@Program?5Association?5Table?5?$CIPAT?5?9@ 004e1d2c     formatter.obj
 0002:00006d54       ??_C@_07HKME@?$DM?1FONT?$DO?$AA@ 004e1d54     formatter.obj
 0002:00006d5c       ??_C@_0BB@FCDF@?$DMFONT?5SIZE?$DN?$CC?91?$CC?$DO?$AA@ 004e1d5c     formatter.obj
 0002:00006d70       ??_C@_0BI@LIFH@Current?5Network?3?5True?$AN?6?$AA@ 004e1d70     formatter.obj
 0002:00006d88       ??_C@_0IA@DALA@DVB?9T?5Frequency?5?$CF?43f?5MHz?$AN?6Bandwi@ 004e1d88     formatter.obj
 0002:00006e08       ??_C@_0GM@NGGE@DVB?9T?5Frequency?5?$CF?43f?5MHz?$AN?6Bandwi@ 004e1e08     formatter.obj
 0002:00006e78       ??_C@_0HF@DCPN@DVB?9S?5Orbital?5Position?3?5?$CF3?41f?$CFs?$AN@ 004e1e78     formatter.obj
 0002:00006ef0       ??_C@_0GC@BCOK@DVB?9C?5Frequency?3?5?$CF?43f?5MHz?$AN?6Symbo@ 004e1ef0     formatter.obj
 0002:00006f54       ??_C@_0BB@NLGE@Descriptor?3?5?$CFs?$AN?6?$AA@ 004e1f54     formatter.obj
 0002:00006f68       ??_C@_0HO@NLEN@?$CFsNetwork?5Name?3?5?$CFs?$AN?6Network?5ID?3?5@ 004e1f68     formatter.obj
 0002:00006fe8       ??_C@_0BG@GIFM@?$DMA?5NAME?$DN?$CCnit_?$CFd?$CC?$DO?$DM?1A?$DO?$AA@ 004e1fe8     formatter.obj
 0002:00007000       ??_C@_05FKBH@EIT?$CFd?$AA@ 004e2000     formatter.obj
 0002:00007008       ??_C@_0BJ@GFJD@other?5TS?0?5event?5schedule?$AA@ 004e2008     formatter.obj
 0002:00007024       ??_C@_0BK@LFDJ@actual?5TS?0?5event?5schedule?$AA@ 004e2024     formatter.obj
 0002:00007040       ??_C@_0O@LEGE@Sky?57?5day?5EPG?$AA@ 004e2040     formatter.obj
 0002:00007050       ??_C@_0BM@LCIG@other?5TS?0?5present?1following?$AA@ 004e2050     formatter.obj
 0002:0000706c       ??_C@_0BN@MACO@actual?5TS?0?5present?1following?$AA@ 004e206c     formatter.obj
 0002:0000708c       ??_C@_0M@BMDH@?5?$DM?1CHANNEL?$DO?$AA@ 004e208c     formatter.obj
 0002:00007098       ??_C@_0N@GFMG@?5?5?$DM?1EVENT?$DO?$AN?6?$AA@ 004e2098     formatter.obj
 0002:000070a8       ??_C@_0BF@MBLE@Dish?5Extended?5Event?5?$AA@ 004e20a8     formatter.obj
 0002:000070c0       ??_C@_0BC@PLAG@Dish?5Short?5Event?5?$AA@ 004e20c0     formatter.obj
 0002:000070d4       ??_C@_0BE@DEEP@DVB?5Extended?5Event?5?$AA@ 004e20d4     formatter.obj
 0002:000070e8       ??_C@_0BB@GHFH@DVB?5Short?5Event?5?$AA@ 004e20e8     formatter.obj
 0002:000070fc       ??_C@_0BH@GEK@?$AN?6Description?5Source?3?5?$AA@ 004e20fc     formatter.obj
 0002:00007118       ??_C@_0GI@KPEE@?$DMprogramme?5start?$DN?$CC?$CFs?$CC?5stop?$DN?$CC?$CFs?$CC?5@ 004e2118     formatter.obj
 0002:00007180       ??_C@_0BJ@OOPC@?$CF04d?$CF02d?$CF02d?$CF02d?$CF02d?$CF02d?$AA@ 004e2180     formatter.obj
 0002:000071a0       ??_C@_0BIC@MDOL@?5?5?$DMEVENT?$DO?$AN?6?5?5?5?5?5?$DMSTART?9UTC?9DATE?$DO@ 004e21a0     formatter.obj
 0002:00007324       ??_C@_0BB@HLGH@N?1A?5?9?5Windows?595?$AA@ 004e2324     formatter.obj
 0002:00007338       ??_C@_0P@NALF@?$CF04d?9?$CF02d?9?$CF02d?$AA@ 004e2338     formatter.obj
 0002:00007348       ??_C@_0IC@GIIE@?9?9?9?9?9?9?9?9?9?9?9?9?9?9?9?9?9?9?9?9?9?9?9?9?9?9?9?9?9?9?9?9@ 004e2348     formatter.obj
 0002:000073d0       ??_C@_0HD@KMA@?9?9?9?9?9?9?9?9?9?9?9?9?9?9?9?9?9?9?9?9?9?9?9?9?9?9?9?9?9?9?9?9@ 004e23d0     formatter.obj
 0002:00007444       ??_C@_06NBDF@?5?$CIUTC?$CJ?$AA@ 004e2444     formatter.obj
 0002:0000744c       ??_C@_0DL@GLEC@TSReader_formatter?4c?3?5LocalAlloc@ 004e244c     formatter.obj
 0002:00007488       ??_C@_0CA@BILE@?$DMchannel?5id?$DN?$CC?$CFd?$CC?$DO?$AN?6?$DM?1channel?$DO?$AN?6?$AA@ 004e2488     formatter.obj
 0002:000074a8       ??_C@_0DE@MIEP@?5?$DMCHANNEL?$DO?$AN?6?5?5?$DMSERVICE?9NUMBER?$DO?$CFd@ 004e24a8     formatter.obj
 0002:000074dc       ??_C@_0P@CNPO@Channel?5?$CFd?$AN?6?$AN?6?$AA@ 004e24dc     formatter.obj
 0002:000074f0       ??_C@_0JP@NCBI@?$DMchannel?5id?$DN?$CC?$CFd?9?$CFs?$CC?$DO?$AN?6?5?$DMdisplay?9@ 004e24f0     formatter.obj
 0002:00007590       ??_C@_0KB@MAAB@?5?$DMCHANNEL?$DO?$AN?6?5?5?$DMSERVICE?9NUMBER?$DO?$CFd@ 004e2590     formatter.obj
 0002:00007638       ??_C@_0FJ@ONEE@Channel?5?$CFs?$AN?6Service?5Name?3?5?$CFs?$AN?6Pr@ 004e2638     formatter.obj
 0002:00007694       ??_C@_05OHLK@?$CFd?1?$CFd?$AA@ 004e2694     formatter.obj
 0002:0000769c       ??_C@_0BJ@HEMK@CAT?5Version?5Number?3?5?$CFd?$AN?6?$AA@ 004e269c     formatter.obj
 0002:000076b8       ??_C@_0BA@LKHC@?5Descriptor?3?5?$CFs?$AA@ 004e26b8     formatter.obj
 0002:000076c8       ??_C@_0BJ@INOL@Additional?5descriptors?3?6?$AA@ 004e26c8     formatter.obj
 0002:000076e4       ??_C@_0BC@FPFM@?5Descriptor?3?5?$CFs?$AN?6?$AA@ 004e26e4     formatter.obj
 0002:000076f8       ??_C@_0BP@HLAG@Service?5Type?5?$CFd?5Source?5ID?5?$CFd?$AN?6?$AA@ 004e26f8     formatter.obj
 0002:00007718       ??_C@_0CJ@PBHN@Hidden?5?$CFd?5Path?5?$CFd?5OOB?5?$CFd?5Hide?5Gu@ 004e2718     formatter.obj
 0002:00007748       ??_C@_0EA@IEDN@Carrier?5?$CFd?5Modulation?5?$CFd?5ETM_loc@ 004e2748     formatter.obj
 0002:00007788       ??_C@_0DC@LALJ@Channel?3?5?$CFs?5?$CI?$CFd?4?$CFd?$CJ?5Program?5?$CFd?5T@ 004e2788     formatter.obj
 0002:000077bc       ??_C@_0DL@OLKJ@Transport?5Stream?5ID?5?$CFd?5?$CI0x?$CF04x?$CJ?5@ 004e27bc     formatter.obj
 0002:000077f8       ??_C@_0DN@BBFK@Bouquet?5Transport?5Stream?3?5?$CFd?5?$CI0x@ 004e27f8     formatter.obj
 0002:00007838       ??_C@_0CF@BFHB@Bouquet?5ID?5?$CFd?5?$CI0x?$CF04x?$CJ?5Version?3?5@ 004e2838     formatter.obj
 0002:00007860       ??_C@_0BK@HNIP@?$CFs?5?$CI?$CF04x?$CJ?5on?5PID?50x?$CF04x?$AN?6?$AA@ 004e2860     formatter.obj
 0002:0000787c       ??_C@_0BN@EFJF@Reserved?5for?5future?5ATSC?5use?$AA@ 004e287c     formatter.obj
 0002:0000789c       ??_C@_0BK@BFKC@RRT?5with?5rating_region?5?$CFd?$AA@ 004e289c     formatter.obj
 0002:000078b8       ??_C@_0N@LPBL@Event?5ETT?9?$CFd?$AA@ 004e28b8     formatter.obj
 0002:000078c8       ??_C@_06JLJM@EIT?9?$CFd?$AA@ 004e28c8     formatter.obj
 0002:000078d0       ??_C@_0M@HCIF@Channel?5ETT?$AA@ 004e28d0     formatter.obj
 0002:000078dc       ??_C@_09GHPM@Cable?5VCT?$AA@ 004e28dc     formatter.obj
 0002:000078e8       ??_C@_0BA@LGJK@Terrestrial?5VCT?$AA@ 004e28e8     formatter.obj
 0002:000078f8       ??_C@_0JM@GCMM@Satellite?5ID?3?5?$CFd?$AN?6You?5are?5here?3?5@ 004e28f8     formatter.obj
 0002:00007994       ??_C@_08NIKD@Circular?$AA@ 004e2994     formatter.obj
 0002:000079a0       ??_C@_06ILNC@Linear?$AA@   004e29a0     formatter.obj
 0002:000079a8       ??_C@_06ONEL@?$DP?$CF02x?$DP?$AA@ 004e29a8     formatter.obj
 0002:000079b0       ??_C@_0O@NPBN@Ku?5Band?5?$CIBSS?$CJ?$AA@ 004e29b0     formatter.obj
 0002:000079c0       ??_C@_0O@EKFF@Ku?5Band?5?$CIFSS?$CJ?$AA@ 004e29c0     formatter.obj
 0002:000079d0       ??_C@_06LJCL@C?5Band?$AA@  004e29d0     formatter.obj
 0002:000079d8       ??_C@_0L@HNMG@?5?$CFs?5?$CI?$CFs?$CJ?$AN?6?$AA@ 004e29d8     formatter.obj
 0002:000079e4       ??_C@_0BF@KDMA@Dimension?5Name?3?5?$CFs?$AN?6?$AA@ 004e29e4     formatter.obj
 0002:000079fc       ??_C@_0BC@HCNK@Region?5Name?3?5?$CFs?$AN?6?$AA@ 004e29fc     formatter.obj
 0002:00007a10       ??_C@_0BD@KLLM@Carrier?5?$CF?43f?5MHz?$AN?6?$AA@ 004e2a10     formatter.obj
 0002:00007a24       ??_C@_0BG@CCOH@Carriers?5defined?5?$CFd?$AN?6?$AA@ 004e2a24     formatter.obj
 0002:00007a3c       ??_C@_0BD@HPKM@?$AN?6Descriptor?3?5?$CFs?$AN?6?$AA@ 004e2a3c     formatter.obj
 0002:00007a50       ??_C@_0BD@MPDH@TOT?5Descriptors?3?$AN?6?$AA@ 004e2a50     formatter.obj
 0002:00007a68       ??_C@_0LP@HFBF@Non?9MPEG?92?5transport?$AN?6Wide?9bandw@ 004e2a68     formatter.obj
 0002:00007b28       ??_C@_0O@DCDN@matrix?5stereo?$AA@ 004e2b28     formatter.obj
 0002:00007b38       ??_C@_0BA@KDOP@discrete?5stereo?$AA@ 004e2b38     formatter.obj
 0002:00007b48       ??_C@_04MGMH@mono?$AA@     004e2b48     formatter.obj
 0002:00007b50       ??_C@_06KCCO@narrow?$AA@   004e2b50     formatter.obj
 0002:00007b58       ??_C@_04IGDC@wide?$AA@     004e2b58     formatter.obj
 0002:00007b60       ??_C@_06GBM@Leitch?$AA@    004e2b60     formatter.obj
 0002:00007b68       ??_C@_05HLAG@Orion?$AA@    004e2b68     formatter.obj
 0002:00007b70       ??_C@_07BMJ@RCA?5DSS?$AA@  004e2b70     formatter.obj
 0002:00007b78       ??_C@_0M@ENMO@VideoCipher?$AA@ 004e2b78     formatter.obj
 0002:00007b84       ??_C@_03HEF@DCI?$AA@       004e2b84     formatter.obj
 0002:00007b88       ??_C@_05DANG@C?9MAC?$AA@   004e2b88     formatter.obj
 0002:00007b90       ??_C@_05JAPD@B?9MAC?$AA@   004e2b90     formatter.obj
 0002:00007b98       ??_C@_06KBNB@D2?9MAC?$AA@  004e2b98     formatter.obj
 0002:00007ba0       ??_C@_05DBNM@SECAM?$AA@    004e2ba0     formatter.obj
 0002:00007ba8       ??_C@_07IDDE@PAL?5525?$AA@ 004e2ba8     formatter.obj
 0002:00007bb0       ??_C@_07HFAP@PAL?5625?$AA@ 004e2bb0     formatter.obj
 0002:00007bb8       ??_C@_04OMOJ@NTSC?$AA@     004e2bb8     formatter.obj
 0002:00007bc0       ??_C@_0EG@OLFI@MPEG?92?5transport?$AN?6Modulation?3?5?$CFs@ 004e2bc0     formatter.obj
 0002:00007c08       ??_C@_0O@LJJG@?$CFd?5KSps?5?$CFs?5?$CFs?$AA@ 004e2c08     formatter.obj
 0002:00007c18       ??_C@_05COIL@Combo?$AA@    004e2c18     formatter.obj
 0002:00007c20       ??_C@_05HHBN@Split?$AA@    004e2c20     formatter.obj
 0002:00007c28       ??_C@_0FF@OPEL@Satellite?5ID?3?5?$CFd?$AN?6Polarization?3?5@ 004e2c28     formatter.obj
 0002:00007c80       ??_C@_08FEMD@?$CF?43f?5MHz?$AA@ 004e2c80     formatter.obj
 0002:00007c8c       ??_C@_06OJEE@V?1RHCP?$AA@  004e2c8c     formatter.obj
 0002:00007c94       ??_C@_06MDNK@H?1LHCP?$AA@  004e2c94     formatter.obj
 0002:00007ca0       ??_C@_0HE@GBHG@Transmission?5system?3?5?$CFs?$AN?6Inner?5c@ 004e2ca0     formatter.obj
 0002:00007d14       ??_C@_08DCPB@QAM?51024?$AA@ 004e2d14     formatter.obj
 0002:00007d20       ??_C@_07PGGP@QAM?5896?$AA@ 004e2d20     formatter.obj
 0002:00007d28       ??_C@_07KHHA@QAM?5768?$AA@ 004e2d28     formatter.obj
 0002:00007d30       ??_C@_07IMIL@QAM?5640?$AA@ 004e2d30     formatter.obj
 0002:00007d38       ??_C@_07GDJO@QAM?5512?$AA@ 004e2d38     formatter.obj
 0002:00007d40       ??_C@_07HMBO@QAM?5448?$AA@ 004e2d40     formatter.obj
 0002:00007d48       ??_C@_07NDGF@QAM?5384?$AA@ 004e2d48     formatter.obj
 0002:00007d50       ??_C@_07OBDI@QAM?5320?$AA@ 004e2d50     formatter.obj
 0002:00007d58       ??_C@_07CNAJ@QAM?5256?$AA@ 004e2d58     formatter.obj
 0002:00007d60       ??_C@_07BJHC@QAM?5224?$AA@ 004e2d60     formatter.obj
 0002:00007d68       ??_C@_07JOJA@QAM?5192?$AA@ 004e2d68     formatter.obj
 0002:00007d70       ??_C@_07BPLP@QAM?5160?$AA@ 004e2d70     formatter.obj
 0002:00007d78       ??_C@_07BBKN@QAM?5128?$AA@ 004e2d78     formatter.obj
 0002:00007d80       ??_C@_07CLME@QAM?5112?$AA@ 004e2d80     formatter.obj
 0002:00007d88       ??_C@_06JKOH@QAM?596?$AA@  004e2d88     formatter.obj
 0002:00007d90       ??_C@_06HDDP@QAM?580?$AA@  004e2d90     formatter.obj
 0002:00007d98       ??_C@_06BLMI@QAM?564?$AA@  004e2d98     formatter.obj
 0002:00007da0       ??_C@_06KILK@QAM?532?$AA@  004e2da0     formatter.obj
 0002:00007da8       ??_C@_06CPLD@QAM?516?$AA@  004e2da8     formatter.obj
 0002:00007db0       ??_C@_06FFOC@VSB?516?$AA@  004e2db0     formatter.obj
 0002:00007db8       ??_C@_05POHB@VSB?58?$AA@   004e2db8     formatter.obj
 0002:00007dc0       ??_C@_05BNIA@OQPSK?$AA@    004e2dc0     formatter.obj
 0002:00007dc8       ??_C@_04EPND@BPSK?$AA@     004e2dc8     formatter.obj
 0002:00007dd0       ??_C@_06GDGF@uknown?$AA@   004e2dd0     formatter.obj
 0002:00007dd8       ??_C@_0O@COLD@ITU?9T?5annex?5D?$AA@ 004e2dd8     formatter.obj
 0002:00007de8       ??_C@_0O@HLFG@ITU?9T?5annex?5C?$AA@ 004e2de8     formatter.obj
 0002:00007df8       ??_C@_0L@KBHL@DigiCipher?$AA@ 004e2df8     formatter.obj
 0002:00007e04       ??_C@_04DMMH@ATSC?$AA@     004e2e04     formatter.obj
 0002:00007e0c       ??_C@_05PHKD@ITU?9R?$AA@   004e2e0c     formatter.obj
 0002:00007e14       ??_C@_0O@NBMB@ITU?9T?5annex?5B?$AA@ 004e2e14     formatter.obj
 0002:00007e24       ??_C@_0O@COHI@ITU?9T?5annex?5A?$AA@ 004e2e24     formatter.obj
 0002:00007e34       ??_C@_05NEME@False?$AA@    004e2e34     formatter.obj
 0002:00007e3c       ??_C@_04HIGB@True?$AA@     004e2e3c     formatter.obj
 0002:00007e44       ??_C@_0DP@DOLB@?$AN?6Stream?5Type?3?50x?$CF02x?5?$CFs?$AN?6?5Eleme@ 004e2e44     formatter.obj
 0002:00007e84       ??_C@_0BN@CKCJ@Logical?5channel?5number?3?5?$CFd?$AN?6?$AA@ 004e2e84     formatter.obj
 0002:00007ea4       ??_C@_0BD@JKHF@Service?5name?3?5?$CFs?$AN?6?$AA@ 004e2ea4     formatter.obj
 0002:00007eb8       ??_C@_0EA@PNPE@Program?5Number?3?5?$CFs?$CFd?$AN?6PCR?5on?5PID@ 004e2eb8     formatter.obj
 0002:00007ef8       ??_C@_0CN@ODAD@Network?5PMT?5Entry?5?9?5table?5on?5PID@ 004e2ef8     formatter.obj
 0002:00007f28       ??_C@_0IO@LEAB@AAC?5Audio?3?5Channels?3?5?$CFd?5Sample?5R@ 004e2f28     formatter.obj
 0002:00007fb8       ??_C@_04NFII@ADTS?$AA@     004e2fb8     formatter.obj
 0002:00007fc0       ??_C@_04OPMO@ADIF?$AA@     004e2fc0     formatter.obj
 0002:00007fc8       ??_C@_09MMGE@Low?5Delay?$AA@ 004e2fc8     formatter.obj
 0002:00007fd4       ??_C@_0CF@GFIF@Error?5Resilient?5Long?5Term?5Predic@ 004e2fd4     formatter.obj
 0002:00007ffc       ??_C@_0BP@HPBL@Error?5Resilient?5Low?5Complexity?$AA@ 004e2ffc     formatter.obj
 0002:0000801c       ??_C@_0BG@KBFL@High?5Efficiency?5?$CISBR?$CJ?$AA@ 004e301c     formatter.obj
 0002:00008034       ??_C@_0BF@IFNK@Long?5Term?5Prediction?$AA@ 004e3034     formatter.obj
 0002:0000804c       ??_C@_0BF@MBFM@Scalable?5Sample?5Rate?$AA@ 004e304c     formatter.obj
 0002:00008064       ??_C@_0P@KLJK@Low?5Complexity?$AA@ 004e3064     formatter.obj
 0002:00008074       ??_C@_04NLIF@Main?$AA@     004e3074     formatter.obj
 0002:0000807c       ??_C@_0BC@KMFD@No?5SBR?0?5upsampled?$AA@ 004e307c     formatter.obj
 0002:00008090       ??_C@_0BA@KMGN@Downsampled?5SBR?$AA@ 004e3090     formatter.obj
 0002:000080a0       ??_C@_0O@CBFG@Upsampled?5SBR?$AA@ 004e30a0     formatter.obj
 0002:000080b0       ??_C@_06PCDB@No?5SBR?$AA@  004e30b0     formatter.obj
 0002:000080b8       ??_C@_0DB@LFLM@H?4264?5Video?3?5Resolution?5?$CFd?5x?5?$CFd?5@ 004e30b8     formatter.obj
 0002:000080ec       ??_C@_0CD@OOGJ@MPEG?94?5Video?3?5Resolution?5?$CFd?5x?5?$CFd@ 004e30ec     formatter.obj
 0002:00008110       ??_C@_03EHFE@1?31?$AA@     004e3110     formatter.obj
 0002:00008114       ??_C@_05KFDA@59?494?$AA@   004e3114     formatter.obj
 0002:0000811c       ??_C@_05DKHD@29?497?$AA@   004e311c     formatter.obj
 0002:00008124       ??_C@_06HLI@23?4976?$AA@   004e3124     formatter.obj
 0002:0000812c       ??_C@_09LLNH@Forbidden?$AA@ 004e312c     formatter.obj
 0002:00008138       ??_C@_05EEOO@4?34?34?$AA@  004e3138     formatter.obj
 0002:00008140       ??_C@_05FHOL@4?32?32?$AA@  004e3140     formatter.obj
 0002:00008148       ??_C@_05CMF@4?32?30?$AA@   004e3148     formatter.obj
 0002:00008150       ??_C@_0CH@KFBD@16?39?5?$CIwith?5shoot?5?$CG?5protect?54?33?5c@ 004e3150     formatter.obj
 0002:00008178       ??_C@_0CI@OOIP@16?39?5?$CIwith?5shoot?5?$CG?5protect?514?39?5@ 004e3178     formatter.obj
 0002:000081a0       ??_C@_0CH@PNAK@4?33?5?$CIwith?5shoot?5?$CG?5protect?514?39?5c@ 004e31a0     formatter.obj
 0002:000081c8       ??_C@_0O@JODL@14?39?5?$CIcenter?$CJ?$AA@ 004e31c8     formatter.obj
 0002:000081d8       ??_C@_0O@EFOO@16?39?5?$CIcenter?$CJ?$AA@ 004e31d8     formatter.obj
 0002:000081e8       ??_C@_0N@JFKD@4?33?5?$CIcenter?$CJ?$AA@ 004e31e8     formatter.obj
 0002:000081f8       ??_C@_0CN@KNOA@Active?5format?5is?5the?5same?5as?5the@ 004e31f8     formatter.obj
 0002:00008228       ??_C@_0BE@ECAI@box?5?$DO?516?39?5?$CIcenter?$CJ?$AA@ 004e3228     formatter.obj
 0002:0000823c       ??_C@_0P@DFFH@box?514?39?5?$CItop?$CJ?$AA@ 004e323c     formatter.obj
 0002:0000824c       ??_C@_0P@LBMH@box?516?39?5?$CItop?$CJ?$AA@ 004e324c     formatter.obj
 0002:0000825c       ??_C@_0BF@HAKK@AFD?5descriptor?3?5?$CFs?$AN?6?$AA@ 004e325c     formatter.obj
 0002:00008278       ??_C@_0HE@NKGM@MPEG?5Video?3?5Bitrate?5?$CF?43f?5Mbps?5Re@ 004e3278     formatter.obj
 0002:000082ec       ??_C@_01JAP@i?$AA@         004e32ec     formatter.obj
 0002:000082f0       ??_C@_01FOFA@p?$AA@        004e32f0     formatter.obj
 0002:000082f4       ??_C@_0P@CCEF@Single?5Channel?$AA@ 004e32f4     formatter.obj
 0002:00008304       ??_C@_0N@BFNN@Dual?5Channel?$AA@ 004e3304     formatter.obj
 0002:00008314       ??_C@_0N@PECF@Joint?5Stereo?$AA@ 004e3314     formatter.obj
 0002:00008324       ??_C@_06MKLK@Stereo?$AA@   004e3324     formatter.obj
 0002:0000832c       ??_C@_02CKLK@32?$AA@       004e332c     formatter.obj
 0002:00008330       ??_C@_02EKHJ@48?$AA@       004e3330     formatter.obj
 0002:00008334       ??_C@_04HDA@44?41?$AA@     004e3334     formatter.obj
 0002:00008340       ??_C@_0FB@EBBH@MPEG1?5Audio?3?5Bitrate?5?$CFd?5Kbps?5Sam@ 004e3340     formatter.obj
 0002:00008394       ??_C@_03BFLN@III?$AA@      004e3394     formatter.obj
 0002:00008398       ??_C@_02FCLE@II?$AA@       004e3398     formatter.obj
 0002:0000839c       ??_C@_07ECAK@karaoke?$AA@  004e339c     formatter.obj
 0002:000083a4       ??_C@_0L@FGAP@voice?5over?$AA@ 004e33a4     formatter.obj
 0002:000083b0       ??_C@_09FLC@emergency?$AA@ 004e33b0     formatter.obj
 0002:000083bc       ??_C@_0L@EOJK@commentary?$AA@ 004e33bc     formatter.obj
 0002:000083c8       ??_C@_08DPIH@dialogue?$AA@ 004e33c8     formatter.obj
 0002:000083d4       ??_C@_0BB@JKEF@hearing?5impaired?$AA@ 004e33d4     formatter.obj
 0002:000083e8       ??_C@_0BC@CEAM@visually?5impaired?$AA@ 004e33e8     formatter.obj
 0002:000083fc       ??_C@_0BC@GJMB@music?5and?5effects?$AA@ 004e33fc     formatter.obj
 0002:00008410       ??_C@_0O@NGGH@complete?5main?$AA@ 004e3410     formatter.obj
 0002:00008420       ??_C@_0BG@FBOC@3?12?55?5L?0?5C?0?5R?0?5SL?0?5SR?$AA@ 004e3420     formatter.obj
 0002:00008438       ??_C@_0BB@IJII@2?12?5L?0?5R?0?5SL?0?5SR?$AA@ 004e3438     formatter.obj
 0002:0000844c       ??_C@_0P@CMFH@3?11?5L?0?5C?0?5R?0?5S?$AA@ 004e344c     formatter.obj
 0002:0000845c       ??_C@_0M@HIMP@2?11?5L?0?5R?0?5S?$AA@ 004e345c     formatter.obj
 0002:00008468       ??_C@_0M@IKOM@3?10?5L?0?5C?0?5R?$AA@ 004e3468     formatter.obj
 0002:00008474       ??_C@_08GPJA@2?10?5L?0?5R?$AA@ 004e3474     formatter.obj
 0002:00008480       ??_C@_05DACC@1?10?5C?$AA@  004e3480     formatter.obj
 0002:00008488       ??_C@_0N@GFHF@1?$CL1?5Ch1?0?5Ch2?$AA@ 004e3488     formatter.obj
 0002:00008498       ??_C@_09DHIK@Reserved?5?$AA@ 004e3498     formatter.obj
 0002:000084a4       ??_C@_08GCOM@?96?40?5dB?5?$AA@ 004e34a4     formatter.obj
 0002:000084b0       ??_C@_08BPHH@?94?45?5dB?5?$AA@ 004e34b0     formatter.obj
 0002:000084bc       ??_C@_08PGCP@?93?40?5dB?5?$AA@ 004e34bc     formatter.obj
 0002:000084c8       ??_C@_05PGII@0?5dB?5?$AA@  004e34c8     formatter.obj
 0002:000084d0       ??_C@_0BA@KGMB@Dolby?5Surround?5?$AA@ 004e34d0     formatter.obj
 0002:000084e0       ??_C@_0BE@PEAJ@Not?5Dolby?5Surround?5?$AA@ 004e34e0     formatter.obj
 0002:000084f4       ??_C@_0P@IMHA@not?5indicated?5?$AA@ 004e34f4     formatter.obj
 0002:00008508       ??_C@_0HA@GGMD@AC3?3?5Bitrate?5?$CFd?5Kbps?5Sample?5Rate@ 004e3508     formatter.obj
 0002:00008578       ??_C@_0O@GKEF@?5?$CIactually?50?$CJ?$AA@ 004e3578     formatter.obj
 0002:00008588       ??_C@_06CNG@?9?$CFd?5dB?$AA@ 004e3588     formatter.obj
 0002:00008590       ??_C@_0BF@IGIB@Dolby?5Surround?5Mode?5?$AA@ 004e3590     formatter.obj
 0002:000085a8       ??_C@_0BE@NDNL@Surround?5Mix?5Level?5?$AA@ 004e35a8     formatter.obj
 0002:000085bc       ??_C@_0BC@ILA@Center?5Mix?5Level?5?$AA@ 004e35bc     formatter.obj
 0002:000085d0       ??_C@_05HCJM@AC3?3?5?$AA@  004e35d0     formatter.obj
 0002:000085d8       ??_C@_0CG@POCL@?$CK?$CKES?5blacklisted?5?9?5no?5PES?5packet@ 004e35d8     formatter.obj
 0002:00008600       ??_C@_0CL@PMCJ@?$CK?$CKES?5blacklisted?5?9?5no?5appreciabl@ 004e3600     formatter.obj
 0002:0000862c       ??_C@_0CJ@IHIH@?$CK?$CKES?5blacklisted?5?9?5no?5traffic?5on@ 004e362c     formatter.obj
 0002:00008658       ??_C@_0CH@GMKC@Elementary?5Stream?5PID?5?$CFd?5?$CI0x?$CF04x@ 004e3658     formatter.obj
 0002:00008680       ??_C@_0BJ@DAFL@NTSC?3?5?$CF02d?5ATSC?3?5?$CF02d?5?$CFs?$AA@ 004e3680     formatter.obj
 0002:0000869c       ??_C@_0BC@NKIB@Channel?5ETT?3?5?$CFs?$AN?6?$AA@ 004e369c     formatter.obj
 0002:000086b0       ??_C@_0IH@DDNK@Channel?5?$CFd?$AN?6Service?5Name?3?5?$CFs?$AN?6TS@ 004e36b0     formatter.obj
 0002:00008738       ??_C@_0HD@JPGL@Channel?5?$CFs?$AN?6On?5Table_ID?3?50x?$CF02x?5@ 004e3738     formatter.obj
 0002:000087ac       ??_C@_0M@IDJP@another?5mux?$AA@ 004e37ac     formatter.obj
 0002:000087b8       ??_C@_0M@DKOM@current?5mux?$AA@ 004e37b8     formatter.obj
 0002:000087c8       ??_C@_0JM@CLFM@?$DMA?5NAME?$DN?$CCsdt_?$CFd?$CC?$DO?$DM?1A?$DOChannel?5?$CFd?$AN@ 004e37c8     formatter.obj
 0002:00008868       ??_C@_0JE@NIED@?$DMA?5NAME?$DN?$CCsdt_?$CFd?$CC?$DO?$DM?1A?$DOSDT?5Channel@ 004e3868     formatter.obj
 0002:000088fc       ??_C@_0BJ@HPIB@?$DMA?5HREF?$DN?$CC?$CDnit_?$CFd?$CC?$DO?$CFs?$DM?1A?$DO?$AA@ 004e38fc     formatter.obj
 0002:00008918       ??_C@_0DH@MEHD@?5?$DMFONT?5SIZE?$DN?$CC?91?$CC?$DO?$DMA?5HREF?$DN?$CC?$CDeit_?$CF@ 004e3918     formatter.obj
 0002:00008950       ??_C@_0BP@LOGC@PMT?5PID?5?$CFd?5?$CI0x?$CF04x?$CJ?5?9?5Network?5?$AA@ 004e3950     formatter.obj
 0002:00008970       ??_C@_0DC@HGFN@PMT?5PID?5?$CFd?5?$CI0x?$CF04x?$CJ?5?9?5?$DMA?5HREF?$DN?$CC?$CD@ 004e3970     formatter.obj
 0002:000089a4       ??_C@_0CE@KHNJ@PMT?5PID?5?$CFd?5?$CI0x?$CF04x?$CJ?5?9?5Program?5?$CFs@ 004e39a4     formatter.obj
 0002:000089c8       ??_C@_0DK@HAED@PMT?5PID?5?$CFd?5?$CI0x?$CF04x?$CJ?5?9?5?$DMA?5HREF?$DN?$CC?$CD@ 004e39c8     formatter.obj
 0002:00008a04       ??_C@_0BN@FEJI@Manual?5channel?5?9?5Program?5?$CFd?5?$AA@ 004e3a04     formatter.obj
 0002:00008a24       ??_C@_0DD@OIPK@Manual?5channel?5?9?5?$DMA?5HREF?$DN?$CC?$CDpmt_?$CF@ 004e3a24     formatter.obj
 0002:00008a58       ??_C@_0DL@CFBM@PAT?5Version?5Number?3?5?$CFd?$AN?6Transpor@ 004e3a58     formatter.obj
 0002:00008a94       ??_C@_0CE@JIII@TSReader?3?5H264DecoderThread?9?5?$CFd?1@ 004e3a94     H264Decoder.obj
 0002:00008ab8       ??_C@_06FBGH@ForVid?$AA@   004e3ab8     H264Decoder.obj
 0002:00008ac0       ??_C@_0FF@MIJB@TSReader?3?5H264DecoderThread?3?5Una@ 004e3ac0     H264Decoder.obj
 0002:00008b18       ??_C@_0BE@MGMP@TSReader_ForVid?4dll?$AA@ 004e3b18     H264Decoder.obj
 0002:00008b2c       ??_C@_0CE@CIGP@TSReader?3?5H264DecoderThread?$CL?5?$CFd?1@ 004e3b2c     H264Decoder.obj
 0002:00008b5c       ??_C@_0CF@KDPO@TSReader?3?5DEBUG?3?5H264DecoderThre@ 004e3b5c     H264Decoder.obj
 0002:00008b84       ??_C@_0BF@9c?3?2MPEG?9ES?2?$CF08x?4h264?$AA@ 004e3b84     H264Decoder.obj
 0002:00008b9c       ??_C@_0CF@NEAB@TSReader?3?5DEBUG?3?5H264DecoderThre@ 004e3b9c     H264Decoder.obj
 0002:00008bc4       ??_C@_01BJG@?6?$AA@        004e3bc4     MDInterface.obj
 0002:00008bc8       ??_C@_0L@IENJ@TSReader?3?5?$AA@ 004e3bc8     MDInterface.obj
 0002:00008bd4       ??_C@_0BG@NPGA@MDAPI?5DLL?5?$CFs?5unloaded?$AA@ 004e3bd4     MDInterface.obj
 0002:00008bec       ??_C@_0CO@HMCM@?5?5Function?5On_Rec_Play?5?5?5?5?5?5?5?5?5?5@ 004e3bec     MDInterface.obj
 0002:00008c1c       ??_C@_0CO@JNCH@?5?5Function?5On_Filter_Close?5?5?5?5?5?5@ 004e3c1c     MDInterface.obj
 0002:00008c4c       ??_C@_0CO@PFIH@?5?5Function?5On_Menu_Cmd?5?5?5?5?5?5?5?5?5?5@ 004e3c4c     MDInterface.obj
 0002:00008c7c       ??_C@_0CO@PHEK@?5?5Function?5On_Channel_Change?5?5?5?5@ 004e3c7c     MDInterface.obj
 0002:00008cac       ??_C@_0CO@KOBL@?5?5Function?5On_Osd_Key?5?5?5?5?5?5?5?5?5?5?5@ 004e3cac     MDInterface.obj
 0002:00008cdc       ??_C@_0CO@PBKA@?5?5Function?5On_Hot_Key?5?5?5?5?5?5?5?5?5?5?5@ 004e3cdc     MDInterface.obj
 0002:00008d0c       ??_C@_0CO@IHJN@?5?5Function?5On_Exit?5?5?5?5?5?5?5?5?5?5?5?5?5?5@ 004e3d0c     MDInterface.obj
 0002:00008d3c       ??_C@_0CO@DFJE@?5?5Function?5On_Start?5?5?5?5?5?5?5?5?5?5?5?5?5@ 004e3d3c     MDInterface.obj
 0002:00008d6c       ??_C@_0CO@BECN@?5?5Menu?5?5?5?5?5?5?5?5?5?5?5?5?5?5?5?5?5?5?5?5?5?5?5?5?5?5@ 004e3d6c     MDInterface.obj
 0002:00008d9c       ??_C@_0CO@CNCO@?5?5Function?5On_Send_Dll_ID_Name?5?5@ 004e3d9c     MDInterface.obj
 0002:00008dcc       ??_C@_0BE@NAMF@MDAPI?5DLL?5?$CFs?5loaded?$AA@ 004e3dcc     MDInterface.obj
 0002:00008de0       ??_C@_0BF@GBGB@On_Descriptor_Decode?$AA@ 004e3de0     MDInterface.obj
 0002:00008df8       ??_C@_0BD@DNCN@On_IP_Data_Receive?$AA@ 004e3df8     MDInterface.obj
 0002:00008e0c       ??_C@_0M@PEPA@Src_Restart?$AA@ 004e3e0c     MDInterface.obj
 0002:00008e18       ??_C@_0M@PKHB@On_Rec_Play?$AA@ 004e3e18     MDInterface.obj
 0002:00008e24       ??_C@_0BA@PCAP@On_Filter_Close?$AA@ 004e3e24     MDInterface.obj
 0002:00008e34       ??_C@_0P@HEEJ@On_Menu_Select?$AA@ 004e3e34     MDInterface.obj
 0002:00008e44       ??_C@_0L@FJEO@On_Osd_Key?$AA@ 004e3e44     MDInterface.obj
 0002:00008e50       ??_C@_0L@DDHA@On_Hot_Key?$AA@ 004e3e50     MDInterface.obj
 0002:00008e5c       ??_C@_07MEAK@On_Exit?$AA@  004e3e5c     MDInterface.obj
 0002:00008e64       ??_C@_0BC@MMHB@On_Channel_Change?$AA@ 004e3e64     MDInterface.obj
 0002:00008e78       ??_C@_08KNNA@On_Start?$AA@ 004e3e78     MDInterface.obj
 0002:00008e84       ??_C@_06EJFL@EXTERN?$AA@   004e3e84     MDInterface.obj
 0002:00008e8c       ??_C@_0BE@PIDC@On_Send_Dll_ID_Name?$AA@ 004e3e8c     MDInterface.obj
 0002:00008ea0       ??_C@_0BE@OKOF@MDAPI?5Scanne?5DLL?5?$CFs?$AA@ 004e3ea0     MDInterface.obj
 0002:00008eb4       ??_C@_0BA@BMHI@?$CFs?2MDPlugins?2?$CFs?$AA@ 004e3eb4     MDInterface.obj
 0002:00008ec4       ??_C@_0BD@BIBH@?$CFs?2MDPlugins?2?$CK?4dll?$AA@ 004e3ec4     MDInterface.obj
 0002:00008ed8       ??_C@_0M@MFF@DLL?5?$CFd?5Menu?$AA@ 004e3ed8     MDInterface.obj
 0002:00008ee4       ??_C@_0CI@LMDM@MDAPI?5DLL?5?$CFs?5wants?5to?5be?5unloade@ 004e3ee4     MDInterface.obj
 0002:00008f0c       ??_C@_0CA@HMJD@MD?9API?5Version?501?402?5?9?51?406?5TSR?$AA@ 004e3f0c     MDInterface.obj
 0002:00008f2c       ??_C@_0CK@KLDF@MDAPI_START_FILTER?5PID?5?$DN?50x?$CF04x?5@ 004e3f2c     MDInterface.obj
 0002:00008f58       ??_C@_0CD@KOLG@MD__StartFilters?$CI?$CJ?3?5Out?5of?5filte@ 004e3f58     MDInterface.obj
 0002:00008f7c       ??_C@_0CK@KGCE@MDAPI_STOP_FILTER?5PID?5?$DN?50x?$CF04x?5s@ 004e3f7c     MDInterface.obj
 0002:00008fa8       ??_C@_05CHG@?$CF04x?5?$AA@ 004e3fa8     MDInterface.obj
 0002:00008fb0       ??_C@_0BE@CMGH@MDAPI_DVB_COMMAND?3?5?$AA@ 004e3fb0     MDInterface.obj
 0002:00008fc4       ??_C@_0P@NAJH@MDAPI_STOP_OSD?$AA@ 004e3fc4     MDInterface.obj
 0002:00008fd4       ??_C@_0BD@JCHK@MDAPI_SEND_OSD_KEY?$AA@ 004e3fd4     MDInterface.obj
 0002:00008fe8       ??_C@_0BB@MFKD@MDAPI_OSD_TEXT?3?5?$AA@ 004e3fe8     MDInterface.obj
 0002:00008ffc       ??_C@_0BC@OOPO@MDAPI_OSD_SETFONT?$AA@ 004e3ffc     MDInterface.obj
 0002:00009010       ??_C@_0BE@CBFD@MDAPI_OSD_DRAWBLOCK?$AA@ 004e4010     MDInterface.obj
 0002:00009024       ??_C@_0BA@EAMB@MDAPI_START_OSD?$AA@ 004e4024     MDInterface.obj
 0002:00009034       ??_C@_0BH@LAKC@MDAPI_SCAN_CURRENT_CAT?$AA@ 004e4034     MDInterface.obj
 0002:0000904c       ??_C@_0BG@EGDG@MDAPI_SCAN_CURRENT_TP?$AA@ 004e404c     MDInterface.obj
 0002:00009064       ??_C@_0BE@FACO@MDAPI_SAVE_PROGRAMM?$AA@ 004e4064     MDInterface.obj
 0002:00009078       ??_C@_0BG@JOMJ@MDAPI_RESCAN_PROGRAMM?$AA@ 004e4078     MDInterface.obj
 0002:00009090       ??_C@_0BD@PPNO@MDAPI_GET_PROGRAMM?$AA@ 004e4090     MDInterface.obj
 0002:000090a4       ??_C@_0BD@JGNM@MDAPI_SET_PROGRAMM?$AA@ 004e40a4     MDInterface.obj
 0002:000090b8       ??_C@_0BG@KMFE@MDAPI_SET_TRANSPONDER?$AA@ 004e40b8     MDInterface.obj
 0002:000090d0       ??_C@_0BG@IMNA@MDAPI_GET_TRANSPONDER?$AA@ 004e40d0     MDInterface.obj
 0002:000090e8       ??_C@_0BN@MKN@MDAPI_SET_PROGRAMM_NUMMER?5?$CFd?$AA@ 004e40e8     MDInterface.obj
 0002:00009108       ??_C@_0BC@KBLH@MDAPI_GET_VERSION?$AA@ 004e4108     MDInterface.obj
 0002:0000911c       ??_C@_0BL@GBCO@MDAPI_GET_PROGRAMM_NUMMER?5?$AA@ 004e411c     MDInterface.obj
 0002:00009138       ??_C@_0CM@EKOB@MDAPI?5unknown?5?9?5wParam?50x?$CF08x?5lP@ 004e4138     MDInterface.obj
 0002:00009164       ??_C@_0DC@JHLD@MDAPI?3?5FFCSA?5decrypt?5error?5?9?50?5p@ 004e4164     MDInterface.obj
 0002:00009198       ??_C@_0CE@JJKH@NULL?5pClusters?$FLnClusterPointer?$FN?5@ 004e4198     MDInterface.obj
 0002:000091bc       ??_C@_0CE@KCFI@NULL?5pClusters?$FLnClusterPointer?$FN?5@ 004e41bc     MDInterface.obj
 0002:000091e0       ??_C@_0O@OPPO@P6?6?$CFd?5?$CFd?6255?6?$AA@ 004e41e0     MPEG2Decoder.obj
 0002:000091f0       ??_C@_0BL@GHGA@Could?5not?5open?5file?5?$CC?$CFs?$CC?4?6?$AA@ 004e41f0     MPEG2Decoder.obj
 0002:0000920c       ??_C@_02NGAF@wb?$AA@       004e420c     MPEG2Decoder.obj
 0002:00009210       ??_C@_0M@PEHO@?$CFs?9?$CF02d?4ppm?$AA@ 004e4210     MPEG2Decoder.obj
 0002:0000921c       ??_C@_0DN@DMIG@MPEG2DecoderThread?3?5Should?5never@ 004e421c     MPEG2Decoder.obj
 0002:00009260       ??_C@_0ED@LMJA@TSReader?3?5Completed?5MPEG?92?5video@ 004e4260     MPEG2Decoder.obj
 0002:000092b4       ??_C@_0BP@EHNN@TSReader?3?5MPEG4DecoderThread?9?6?$AA@ 004e42b4     MPEG4Decoder.obj
 0002:000092d4       ??_C@_05CMLA@MPEG4?$AA@    004e42d4     MPEG4Decoder.obj
 0002:000092e0       ??_C@_0EB@BNBF@TSReader?3?5MPEG4DecoderThread?3?5Un@ 004e42e0     MPEG4Decoder.obj
 0002:00009324       ??_C@_0BD@EGFJ@TSReader_MPEG4?4dll?$AA@ 004e4324     MPEG4Decoder.obj
 0002:00009338       ??_C@_0BP@DACC@TSReader?3?5MPEG4DecoderThread?$CL?6?$AA@ 004e4338     MPEG4Decoder.obj
 0002:00009364       ??_C@_0CN@GID@?$CFs?3?5unrecoverable?5frame?5level?5er@ 004e4364     MPEGAudio.obj
 0002:00009394       ??_C@_0CL@MAAA@?$CFs?3?5recoverable?5frame?5level?5erro@ 004e4394     MPEGAudio.obj
 0002:000093c0       ??_C@_08MOEG@TSReader?$AA@ 004e43c0     MPEGAudio.obj
 0002:000093cc       ??_C@_0BP@NEAM@TSReader?3?5Out?5of?5BAT?5TS?5space?6?$AA@ 004e43cc     parser.obj
 0002:000093ec       ??_C@_0BM@EPIE@TSReader?3?5Out?5of?5BAT?5space?6?$AA@ 004e43ec     parser.obj
 0002:00009408       ??_C@_0CG@CDNB@Should?5never?5get?5here?5in?5PMT?5par@ 004e4408     parser.obj
 0002:00009430       ??_C@_0DL@FCGN@TSReader?3?5PMT?5version?5change?5fro@ 004e4430     parser.obj
 0002:0000946c       ??_C@_0CM@BNPL@TSReader?3?5Ethernet?5packet?5buffer@ 004e446c     parser.obj
 0002:00009498       ??_C@_0CN@OIDB@TSReader?3?5Program?5?$DN?5?$CFd?5PMTPID?5?$DN?5@ 004e4498     parser.obj
 0002:000094c8       ??_C@_0CC@KMIN@TSReader?3?5ATSC?5PSIP?5table?50x?$CF02x@ 004e44c8     parser.obj
 0002:000094ec       ??_C@_0CI@JPGM@TSReader?3?5Out?5of?5room?5for?5channe@ 004e44ec     parser.obj
 0002:00009514       ??_C@_0CG@FCJ@TSReader?3?5No?5space?5available?5in?5@ 004e4514     parser.obj
 0002:0000953c       ??_C@_0DM@DGMP@TSReader?3?5ParseDCIIECMPacket?5ser@ 004e453c     parser.obj
 0002:00009578       ??_C@_04CIKD@ANSI?$AA@     004e4578     RokuTelnetInterface.obj
 0002:00009580       ??_C@_06CAGC@?$CFc?$CFc?$CFc?$AA@ 004e4580     RokuTelnetInterface.obj
 0002:00009588       ??_C@_01FEHD@?$AN?$AA@     004e4588     RokuTelnetInterface.obj
 0002:0000958c       ??_C@_0CM@JOJC@TSReader?3?5Roku?5Telnet?5client?5thr@ 004e458c     RokuTelnetInterface.obj
 0002:000095b8       ??_C@_08EPLI@Exiting?4?$AA@ 004e45b8     RokuTelnetInterface.obj
 0002:000095c4       ??_C@_0BC@DLCA@?$CFs?5http?3?1?1?$CFs?3?$CFd?1?$AN?$AA@ 004e45c4     RokuTelnetInterface.obj
 0002:000095d8       ??_C@_06GHIP@cd?5?$CFs?$AN?$AA@ 004e45d8     RokuTelnetInterface.obj
 0002:000095e0       ??_C@_0M@NBFG@REMOTEHOST?$DN?$AA@ 004e45e0     RokuTelnetInterface.obj
 0002:000095ec       ??_C@_0BA@EEDA@Login?5incorrect?$AA@ 004e45ec     RokuTelnetInterface.obj
 0002:000095fc       ??_C@_0L@LFBJ@Password?3?5?$AA@ 004e45fc     RokuTelnetInterface.obj
 0002:00009608       ??_C@_04CKE@set?$AN?$AA@   004e4608     RokuTelnetInterface.obj
 0002:00009610       ??_C@_02LMEN@?$CD?5?$AA@   004e4610     RokuTelnetInterface.obj
 0002:00009614       ??_C@_07HCON@login?3?5?$AA@ 004e4614     RokuTelnetInterface.obj
 0002:0000961c       ??_C@_0BE@KNMF@Game?5ShowsUndefined?$AA@ 004e461c     sky_epg.obj
 0002:00009630       ??_C@_08GGAD@Magazine?$AA@ 004e4630     sky_epg.obj
 0002:0000963c       ??_C@_09NJBM@Under?55?8s?$AA@ 004e463c     sky_epg.obj
 0002:00009648       ??_C@_0M@OGII@Educational?$AA@ 004e4648     sky_epg.obj
 0002:00009654       ??_C@_08HDBJ@Cartoons?$AA@ 004e4654     sky_epg.obj
 0002:00009660       ??_C@_02GHJ@18?$AA@        004e4660     sky_epg.obj
 0002:00009664       ??_C@_02FCAK@15?$AA@       004e4664     sky_epg.obj
 0002:00009668       ??_C@_02HOP@12?$AA@        004e4668     sky_epg.obj
 0002:0000966c       ??_C@_02DACJ@PG?$AA@       004e466c     sky_epg.obj
 0002:00009670       ??_C@_01MHL@U?$AA@         004e4670     sky_epg.obj
 0002:00009674       ??_C@_02GHFJ@NA?$AA@       004e4674     sky_epg.obj
 0002:00009678       ??_C@_05GFCE@Sport?$AA@    004e4678     sky_epg.obj
 0002:00009680       ??_C@_04LNOP@Film?$AA@     004e4680     sky_epg.obj
 0002:00009688       ??_C@_0M@GBID@Top?5Gear?$DP?$DP?$DP?$AA@ 004e4688     sky_epg.obj
 0002:00009694       ??_C@_0BH@LLLG@News?5and?5Documentaries?$AA@ 004e4694     sky_epg.obj
 0002:000096ac       ??_C@_05PHIM@Music?$AA@    004e46ac     sky_epg.obj
 0002:000096b4       ??_C@_0O@JFFK@Entertainment?$AA@ 004e46b4     sky_epg.obj
 0002:000096c4       ??_C@_04JAIL@Kids?$AA@     004e46c4     sky_epg.obj
 0002:000096cc       ??_C@_08HFCK@Shopping?$AA@ 004e46cc     sky_epg.obj
 0002:000096d8       ??_C@_03JHAO@PPV?$AA@      004e46d8     sky_epg.obj
 0002:000096dc       ??_C@_0L@IACH@Technology?$AA@ 004e46dc     sky_epg.obj
 0002:000096e8       ??_C@_06MAKO@Travel?$AA@   004e46e8     sky_epg.obj
 0002:000096f0       ??_C@_09OODK@Gardening?$AA@ 004e46f0     sky_epg.obj
 0002:000096fc       ??_C@_07MCOL@Fashion?$AA@  004e46fc     sky_epg.obj
 0002:00009704       ??_C@_07ICHA@Cooking?$AA@  004e4704     sky_epg.obj
 0002:0000970c       ??_C@_0L@HMGG@Chat?5Shows?$AA@ 004e470c     sky_epg.obj
 0002:00009718       ??_C@_04LAPE@Soap?$AA@     004e4718     sky_epg.obj
 0002:00009720       ??_C@_0L@DFGH@Game?5Shows?$AA@ 004e4720     sky_epg.obj
 0002:0000972c       ??_C@_09IFJM@Detective?$AA@ 004e472c     sky_epg.obj
 0002:00009738       ??_C@_03HIIC@War?$AA@      004e4738     sky_epg.obj
 0002:0000973c       ??_C@_09NJEE@Adventure?$AA@ 004e473c     sky_epg.obj
 0002:00009748       ??_C@_06LAPO@Erotic?$AA@   004e4748     sky_epg.obj
 0002:00009750       ??_C@_07OCKK@Fantasy?$AA@  004e4750     sky_epg.obj
 0002:00009758       ??_C@_07EEEH@Factual?$AA@  004e4758     sky_epg.obj
 0002:00009760       ??_C@_07PCEP@Western?$AA@  004e4760     sky_epg.obj
 0002:00009768       ??_C@_07GPIF@Mystery?$AA@  004e4768     sky_epg.obj
 0002:00009770       ??_C@_07EPDF@Musical?$AA@  004e4770     sky_epg.obj
 0002:00009778       ??_C@_07HHNK@Romance?$AA@  004e4778     sky_epg.obj
 0002:00009780       ??_C@_06KKNE@Horror?$AA@   004e4780     sky_epg.obj
 0002:00009788       ??_C@_08MNDP@Thriller?$AA@ 004e4788     sky_epg.obj
 0002:00009794       ??_C@_06IMAG@Sci?9Fi?$AA@  004e4794     sky_epg.obj
 0002:0000979c       ??_C@_05CGPO@Drama?$AA@    004e479c     sky_epg.obj
 0002:000097a4       ??_C@_06OJPF@Family?$AA@   004e47a4     sky_epg.obj
 0002:000097ac       ??_C@_06IGJL@Comedy?$AA@   004e47ac     sky_epg.obj
 0002:000097b4       ??_C@_09FBNK@Animation?$AA@ 004e47b4     sky_epg.obj
 0002:000097c0       ??_C@_06NMFG@Action?$AA@   004e47c0     sky_epg.obj
 0002:000097c8       ??_C@_0M@PPNA@Watersports?$AA@ 004e47c8     sky_epg.obj
 0002:000097d4       ??_C@_05POHB@Darts?$AA@    004e47d4     sky_epg.obj
 0002:000097dc       ??_C@_09OKCG@Wrestling?$AA@ 004e47dc     sky_epg.obj
 0002:000097e8       ??_C@_06IECD@Tennis?$AA@   004e47e8     sky_epg.obj
 0002:000097f0       ??_C@_0N@GCDE@Snooker?1Pool?$AA@ 004e47f0     sky_epg.obj
 0002:00009800       ??_C@_0N@FJEJ@Wintersports?$AA@ 004e4800     sky_epg.obj
 0002:00009810       ??_C@_0L@BMHA@Equestrian?$AA@ 004e4810     sky_epg.obj
 0002:0000981c       ??_C@_05NLHE@Rugby?$AA@    004e481c     sky_epg.obj
 0002:00009824       ??_C@_06DPOE@Racing?$AA@   004e4824     sky_epg.obj
 0002:0000982c       ??_C@_0M@DNFD@Motor?5Sport?$AA@ 004e482c     sky_epg.obj
 0002:00009838       ??_C@_0L@CCKN@Ice?5Hockey?$AA@ 004e4838     sky_epg.obj
 0002:00009844       ??_C@_04NPML@Golf?$AA@     004e4844     sky_epg.obj
 0002:0000984c       ??_C@_08NPEO@Football?$AA@ 004e484c     sky_epg.obj
 0002:00009858       ??_C@_07IHGP@Fishing?$AA@  004e4858     sky_epg.obj
 0002:00009860       ??_C@_07CAFD@Cricket?$AA@  004e4860     sky_epg.obj
 0002:00009868       ??_C@_06LEFE@Boxing?$AA@   004e4868     sky_epg.obj
 0002:00009870       ??_C@_0L@PKKG@Basketball?$AA@ 004e4870     sky_epg.obj
 0002:0000987c       ??_C@_08GPNH@Baseball?$AA@ 004e487c     sky_epg.obj
 0002:00009888       ??_C@_09CLEH@Athletics?$AA@ 004e4888     sky_epg.obj
 0002:00009894       ??_C@_0BC@HGAN@American?5Football?$AA@ 004e4894     sky_epg.obj
 0002:000098a8       ??_C@_0DG@LMEF@Sky_EPG?3?5PIDS?50x?$CF04x?50x?$CF04x?5New?5@ 004e48a8     sky_epg.obj
 0002:000098e0       ??_C@_0CI@BLFI@DontWarnAboutInccorectAutoRecord@ 004e48e0     TSReader.obj
 0002:00009908       ??_C@_0BD@CIGJ@ChartMaximizedFlag?$AA@ 004e4908     TSReader.obj
 0002:0000991c       ??_C@_0N@JAOB@ChartWindowH?$AA@ 004e491c     TSReader.obj
 0002:0000992c       ??_C@_0N@DIMM@ChartWindowW?$AA@ 004e492c     TSReader.obj
 0002:0000993c       ??_C@_0N@JDAG@ChartWindowY?$AA@ 004e493c     TSReader.obj
 0002:0000994c       ??_C@_0N@DJJB@ChartWindowX?$AA@ 004e494c     TSReader.obj
 0002:0000995c       ??_C@_0BB@MHOH@EPGMaximizedFlag?$AA@ 004e495c     TSReader.obj
 0002:00009970       ??_C@_0L@KPJG@EPGWindowH?$AA@ 004e4970     TSReader.obj
 0002:0000997c       ??_C@_0L@HLL@EPGWindowW?$AA@ 004e497c     TSReader.obj
 0002:00009988       ??_C@_0L@KMHB@EPGWindowY?$AA@ 004e4988     TSReader.obj
 0002:00009994       ??_C@_0L@GOG@EPGWindowX?$AA@ 004e4994     TSReader.obj
 0002:000099a0       ??_C@_0BB@NLGN@RealtimeCharting?$AA@ 004e49a0     TSReader.obj
 0002:000099b4       ??_C@_0O@OGHL@MaximizedFlag?$AA@ 004e49b4     TSReader.obj
 0002:000099c4       ??_C@_0BE@FPEE@MainWindowPositionY?$AA@ 004e49c4     TSReader.obj
 0002:000099d8       ??_C@_0BE@PFND@MainWindowPositionX?$AA@ 004e49d8     TSReader.obj
 0002:000099ec       ??_C@_0BA@DOO@MainWindowSizeY?$AA@ 004e49ec     TSReader.obj
 0002:000099fc       ??_C@_0BA@KJHJ@MainWindowSizeX?$AA@ 004e49fc     TSReader.obj
 0002:00009a0c       ??_C@_0BB@CNAK@GraphRefreshRate?$AA@ 004e4a0c     TSReader.obj
 0002:00009a20       ??_C@_0BA@NKAH@TableMonitorPID?$AA@ 004e4a20     TSReader.obj
 0002:00009a30       ??_C@_0BD@IDML@ShowEPGThisMuxOnly?$AA@ 004e4a30     TSReader.obj
 0002:00009a44       ??_C@_0BE@LENF@ShowEPGChannelsOnly?$AA@ 004e4a44     TSReader.obj
 0002:00009a58       ??_C@_0BB@KKPM@EPGChannelHeight?$AA@ 004e4a58     TSReader.obj
 0002:00009a6c       ??_C@_0BB@BGLD@EPGHalfHourWidth?$AA@ 004e4a6c     TSReader.obj
 0002:00009a80       ??_C@_0BB@KJEP@TimestampPackets?$AA@ 004e4a80     TSReader.obj
 0002:00009a94       ??_C@_0BF@HIAK@ReloadManualChannels?$AA@ 004e4a94     TSReader.obj
 0002:00009aac       ??_C@_0BC@LBJM@ControlServerPort?$AA@ 004e4aac     TSReader.obj
 0002:00009ac0       ??_C@_0BF@PHIK@ControlServerEnabled?$AA@ 004e4ac0     TSReader.obj
 0002:00009ad8       ??_C@_0BN@NDGK@SerialReceiverControlEnabled?$AA@ 004e4ad8     TSReader.obj
 0002:00009af8       ??_C@_0BA@MIIC@AudioThumbnails?$AA@ 004e4af8     TSReader.obj
 0002:00009b08       ??_C@_0BC@HJNN@EPGHiddenChannels?$AA@ 004e4b08     TSReader.obj
 0002:00009b1c       ??_C@_0BD@LHAH@SerialReceiverType?$AA@ 004e4b1c     TSReader.obj
 0002:00009b30       ??_C@_0BE@MPCK@MaximumDCIIPictures?$AA@ 004e4b30     TSReader.obj
 0002:00009b44       ??_C@_0BE@IEBC@MaximumMPEGPictures?$AA@ 004e4b44     TSReader.obj
 0002:00009b58       ??_C@_0O@PMBH@ThumbnailSize?$AA@ 004e4b58     TSReader.obj
 0002:00009b68       ??_C@_0BC@KIMH@AutoRestartNoBeep?$AA@ 004e4b68     TSReader.obj
 0002:00009b7c       ??_C@_0BI@KFGI@AutoRestartNoTuneDialog?$AA@ 004e4b7c     TSReader.obj
 0002:00009b94       ??_C@_0BL@HAPC@AutoRestartOnDataStopDelay?$AA@ 004e4b94     TSReader.obj
 0002:00009bb0       ??_C@_0BG@CFJE@AutoRestartOnDataStop?$AA@ 004e4bb0     TSReader.obj
 0002:00009bc8       ??_C@_0BO@POOJ@AutoRestartOnPATVersionChange?$AA@ 004e4bc8     TSReader.obj
 0002:00009be8       ??_C@_0M@BJFC@RecordLimit?$AA@ 004e4be8     TSReader.obj
 0002:00009bf4       ??_C@_0BE@KCHM@RecordProgramStream?$AA@ 004e4bf4     TSReader.obj
 0002:00009c08       ??_C@_0BE@PJAG@SchedulerNoDateTime?$AA@ 004e4c08     TSReader.obj
 0002:00009c1c       ??_C@_0BD@LBPD@SchedulerDirectory?$AA@ 004e4c1c     TSReader.obj
 0002:00009c30       ??_C@_0BC@EPEO@SchedulerPassword?$AA@ 004e4c30     TSReader.obj
 0002:00009c44       ??_C@_0BC@CGFC@SchedulerUsername?$AA@ 004e4c44     TSReader.obj
 0002:00009c58       ??_C@_0P@ELH@ParserDisabled?$AA@ 004e4c58     TSReader.obj
 0002:00009c68       ??_C@_0O@BLA@IncludeCAData?$AA@ 004e4c68     TSReader.obj
 0002:00009c78       ??_C@_0BA@NCHB@IgnoreTEIErrors?$AA@ 004e4c78     TSReader.obj
 0002:00009c88       ??_C@_0BE@BKDC@RecordPIDIncludePCR?$AA@ 004e4c88     TSReader.obj
 0002:00009c9c       ??_C@_0BM@EACG@ContinuousPMTParserDisabled?$AA@ 004e4c9c     TSReader.obj
 0002:00009cb8       ??_C@_0BG@MDEM@FastPMTParserDisabled?$AA@ 004e4cb8     TSReader.obj
 0002:00009cd0       ??_C@_0BG@FKDI@CountContinuityErrors?$AA@ 004e4cd0     TSReader.obj
 0002:00009ce8       ??_C@_0BJ@EAP@SchedulerDefaultPostRoll?$AA@ 004e4ce8     TSReader.obj
 0002:00009d04       ??_C@_0BI@JKOH@SchedulerDefaultPreRoll?$AA@ 004e4d04     TSReader.obj
 0002:00009d1c       ??_C@_0O@GGLC@SchedulerWake?$AA@ 004e4d1c     TSReader.obj
 0002:00009d2c       ??_C@_0CD@HIMO@ManualEPGNoSourceParametersWarni@ 004e4d2c     TSReader.obj
 0002:00009d50       ??_C@_0BD@EBLH@ExportNITINIFolder?$AA@ 004e4d50     TSReader.obj
 0002:00009d64       ??_C@_0BL@BLGF@ExportNITINIIncludeIgnored?$AA@ 004e4d64     TSReader.obj
 0002:00009d80       ??_C@_0BC@JFFC@ExportNITINITurbo?$AA@ 004e4d80     TSReader.obj
 0002:00009d94       ??_C@_0BE@KEKI@MaximumH264Pictures?$AA@ 004e4d94     TSReader.obj
 0002:00009da8       ??_C@_0BG@CNFI@ThumbnailsRightToLeft?$AA@ 004e4da8     TSReader.obj
 0002:00009dc0       ??_C@_0BA@GONM@ShowNonVideoPCR?$AA@ 004e4dc0     TSReader.obj
 0002:00009dd0       ??_C@_0BE@JHLE@HighlightedPIDColor?$AA@ 004e4dd0     TSReader.obj
 0002:00009de4       ??_C@_0BM@KLLL@UnscrambledInactivePIDColor?$AA@ 004e4de4     TSReader.obj
 0002:00009e00       ??_C@_0BK@GMGI@ScrambledInactivePIDColor?$AA@ 004e4e00     TSReader.obj
 0002:00009e1c       ??_C@_0BE@MEPJ@UnscrambledPIDColor?$AA@ 004e4e1c     TSReader.obj
 0002:00009e30       ??_C@_0BC@DCLE@ScrambledPIDColor?$AA@ 004e4e30     TSReader.obj
 0002:00009e44       ??_C@_0M@HAMA@AlwaysOnTop?$AA@ 004e4e44     TSReader.obj
 0002:00009e50       ??_C@_0P@OPJN@FullThumbnails?$AA@ 004e4e50     TSReader.obj
 0002:00009e60       ??_C@_0L@GKHE@ChartStyle?$AA@ 004e4e60     TSReader.obj
 0002:00009e6c       ??_C@_0BD@EHFE@PlainCADescriptors?$AA@ 004e4e6c     TSReader.obj
 0002:00009e80       ??_C@_0BB@KOGL@UDPMulticastPort?$AA@ 004e4e80     TSReader.obj
 0002:00009e94       ??_C@_0BD@GLJO@HideThumbnailIcons?$AA@ 004e4e94     TSReader.obj
 0002:00009ea8       ??_C@_0M@GODB@DecimalPIDs?$AA@ 004e4ea8     TSReader.obj
 0002:00009eb4       ??_C@_0N@OPIF@AudioPMTETSI?$AA@ 004e4eb4     TSReader.obj
 0002:00009ec4       ??_C@_0BF@BBPB@SDTOnlyForCurrentMux?$AA@ 004e4ec4     TSReader.obj
 0002:00009edc       ??_C@_0BJ@PCEI@KeepSpecialXMLCharacters?$AA@ 004e4edc     TSReader.obj
 0002:00009ef8       ??_C@_0BD@HJJM@WaitForCAThumbnail?$AA@ 004e4ef8     TSReader.obj
 0002:00009f0c       ??_C@_06OFK@HRCQAM?$AA@    004e4f0c     TSReader.obj
 0002:00009f14       ??_C@_0BE@M@RokuTraceAutoscroll?$AA@ 004e4f14     TSReader.obj
 0002:00009f28       ??_C@_0BC@JJFE@RokuTraceDisabled?$AA@ 004e4f28     TSReader.obj
 0002:00009f3c       ??_C@_0BM@LEB@DontShowVLCConnectionDialog?$AA@ 004e4f3c     TSReader.obj
 0002:00009f58       ??_C@_0BC@EJIE@SendBogusHTTPSize?$AA@ 004e4f58     TSReader.obj
 0002:00009f6c       ??_C@_0O@KFHP@DVHSForceATSC?$AA@ 004e4f6c     TSReader.obj
 0002:00009f7c       ??_C@_0BL@LOLP@DisableLNBFrequencyWarning?$AA@ 004e4f7c     TSReader.obj
 0002:00009f98       ??_C@_0BC@HLEB@IgnorePMT800x0ff6?$AA@ 004e4f98     TSReader.obj
 0002:00009fac       ??_C@_0P@GGFK@IgnorePMT65500?$AA@ 004e4fac     TSReader.obj
 0002:00009fbc       ??_C@_0CE@INNC@IgnoreRecordAllPIDLimitationWarn@ 004e4fbc     TSReader.obj
 0002:00009fe0       ??_C@_0BC@NACE@ThumbnailPipeSize?$AA@ 004e4fe0     TSReader.obj
 0002:00009ff4       ??_C@_0BC@CMDP@StreamingPipeSize?$AA@ 004e4ff4     TSReader.obj
 0002:0000a008       ??_C@_0BA@JIJ@AgreedToLicense?$AA@ 004e5008     TSReader.obj
 0002:0000a018       ??_C@_0P@PILC@ATSCRecordMode?$AA@ 004e5018     TSReader.obj
 0002:0000a028       ??_C@_09FJPA@VLCNoWarn?$AA@ 004e5028     TSReader.obj
 0002:0000a034       ??_C@_0BK@BOIN@EITLanguageFilterLanguage?$AA@ 004e5034     TSReader.obj
 0002:0000a050       ??_C@_0M@FBFC@DCIICSVFile?$AA@ 004e5050     TSReader.obj
 0002:0000a05c       ??_C@_0L@BHOO@DVBCSVFile?$AA@ 004e505c     TSReader.obj
 0002:0000a068       ??_C@_0BB@EGAB@SDXDefaultFolder?$AA@ 004e5068     TSReader.obj
 0002:0000a07c       ??_C@_0N@EADH@DVBCBandplan?$AA@ 004e507c     TSReader.obj
 0002:0000a08c       ??_C@_0N@CLEN@DVBTBandplan?$AA@ 004e508c     TSReader.obj
 0002:0000a09c       ??_C@_0BG@MFNJ@UDPMulticastInterface?$AA@ 004e509c     TSReader.obj
 0002:0000a0b4       ??_C@_0BE@NJBC@UDPMulticastAddress?$AA@ 004e50b4     TSReader.obj
 0002:0000a0c8       ??_C@_0N@KGJF@IPSaveFolder?$AA@ 004e50c8     TSReader.obj
 0002:0000a0d8       ??_C@_0BD@MBOA@SerialReceiverPort?$AA@ 004e50d8     TSReader.obj
 0002:0000a0ec       ??_C@_0BH@CFLC@RokuMpegPSPlayLocation?$AA@ 004e50ec     TSReader.obj
 0002:0000a104       ??_C@_0N@EEMG@RokuPassword?$AA@ 004e5104     TSReader.obj
 0002:0000a114       ??_C@_0N@CNNK@RokuUsername?$AA@ 004e5114     TSReader.obj
 0002:0000a124       ??_C@_06DHHG@RokuIP?$AA@   004e5124     TSReader.obj
 0002:0000a12c       ??_C@_0BC@COEF@SplitFormatString?$AA@ 004e512c     TSReader.obj
 0002:0000a140       ??_C@_0BE@MEMP@ThumbnailInitialDir?$AA@ 004e5140     TSReader.obj
 0002:0000a154       ??_C@_0BG@CGBP@ThumbnailBaseFilename?$AA@ 004e5154     TSReader.obj
 0002:0000a16c       ??_C@_0P@FDPF@VLCExeLocation?$AA@ 004e516c     TSReader.obj
 0002:0000a17c       ??_C@_0L@DHJL@SourceName?$AA@ 004e517c     TSReader.obj
 0002:0000a188       ??_C@_0BL@OAKP@CurrentlySelectedSatellite?$AA@ 004e5188     TSReader.obj
 0002:0000a1a4       ??_C@_0M@LGAD@RecordTitle?$AA@ 004e51a4     TSReader.obj
 0002:0000a1b0       ??_C@_0BJ@PEFD@ManualChannelsInitialDir?$AA@ 004e51b0     TSReader.obj
 0002:0000a1cc       ??_C@_0O@CAGC@XMLInitialDir?$AA@ 004e51cc     TSReader.obj
 0002:0000a1dc       ??_C@_0O@CF@HTMInitialDir?$AA@ 004e51dc     TSReader.obj
 0002:0000a1ec       ??_C@_0BK@GPKB@TransportStreamInitialDir?$AA@ 004e51ec     TSReader.obj
 0002:0000a208       ??_C@_0L@NGLK@RecordFile?$AA@ 004e5208     TSReader.obj
 0002:0000a214       ??_C@_0BA@IIFE@RecordPIDFolder?$AA@ 004e5214     TSReader.obj
 0002:0000a224       ??_C@_0BI@INCN@AutoRecordSecondsReload?$AA@ 004e5224     TSReader.obj
 0002:0000a23c       ??_C@_07PFPE@VLCPort?$AA@  004e523c     TSReader.obj
 0002:0000a244       ??_C@_0L@CLJC@VLCControl?$AA@ 004e5244     TSReader.obj
 0002:0000a250       ??_C@_0O@BGLF@XNSServerPort?$AA@ 004e5250     TSReader.obj
 0002:0000a260       ??_C@_0L@IBOF@StradisAPI?$AA@ 004e5260     TSReader.obj
 0002:0000a26c       ??_C@_0BA@NFHI@ForceStradisPAL?$AA@ 004e526c     TSReader.obj
 0002:0000a27c       ??_C@_0BB@NFKH@PIDChartDisabled?$AA@ 004e527c     TSReader.obj
 0002:0000a290       ??_C@_0BB@NNIH@DisablePSWarning?$AA@ 004e5290     TSReader.obj
 0002:0000a2a4       ??_C@_0BG@DDDG@ShowScrambledChannels?$AA@ 004e52a4     TSReader.obj
 0002:0000a2bc       ??_C@_0BI@BPGC@SavedThumbnailsFullSize?$AA@ 004e52bc     TSReader.obj
 0002:0000a2d4       ??_C@_0BK@DCJI@SaveAllThumbnailsSameName?$AA@ 004e52d4     TSReader.obj
 0002:0000a2f0       ??_C@_0BI@BDCD@ThumbnailThreadAnimated?$AA@ 004e52f0     TSReader.obj
 0002:0000a308       ??_C@_0BF@LNPA@IgnoreTableCRCErrors?$AA@ 004e5308     TSReader.obj
 0002:0000a320       ??_C@_0O@CCIK@AutoExpandIPs?$AA@ 004e5320     TSReader.obj
 0002:0000a330       ??_C@_0P@JBLM@AutoExpandPMTs?$AA@ 004e5330     TSReader.obj
 0002:0000a340       ??_C@_07EIDO@LastQAM?$AA@  004e5340     TSReader.obj
 0002:0000a348       ??_C@_0N@PADF@LastCodeRate?$AA@ 004e5348     TSReader.obj
 0002:0000a358       ??_C@_0BG@BOIL@LastADVModulationMode?$AA@ 004e5358     TSReader.obj
 0002:0000a370       ??_C@_0BG@COOO@LastSpectrumInversion?$AA@ 004e5370     TSReader.obj
 0002:0000a388       ??_C@_0O@FCHG@LastBandwidth?$AA@ 004e5388     TSReader.obj
 0002:0000a398       ??_C@_0BA@NJBG@LastDiSEqCInput?$AA@ 004e5398     TSReader.obj
 0002:0000a3a8       ??_C@_09KCOF@Last22KHz?$AA@ 004e53a8     TSReader.obj
 0002:0000a3b4       ??_C@_0BB@BBBF@LastLNBFrequency?$AA@ 004e53b4     TSReader.obj
 0002:0000a3c8       ??_C@_0P@CCNP@LastSymbolRate?$AA@ 004e53c8     TSReader.obj
 0002:0000a3d8       ??_C@_0N@OKFI@LastPolarity?$AA@ 004e53d8     TSReader.obj
 0002:0000a3e8       ??_C@_0O@FMOM@LastFrequency?$AA@ 004e53e8     TSReader.obj
 0002:0000a3f8       ??_C@_09PILB@IgnoreEIT?$AA@ 004e53f8     TSReader.obj
 0002:0000a404       ??_C@_0BD@JAHI@PowerCycleDVHSDeck?$AA@ 004e5404     TSReader.obj
 0002:0000a418       ??_C@_0BA@BKGI@ControlDVHSDeck?$AA@ 004e5418     TSReader.obj
 0002:0000a428       ??_C@_0L@JEEJ@LastFileTS?$AA@ 004e5428     TSReader.obj
 0002:0000a434       ??_C@_0P@FNBJ@PrefereredCAID?$AA@ 004e5434     TSReader.obj
 0002:0000a444       ??_C@_0BA@MLPA@UsePreferedCAID?$AA@ 004e5444     TSReader.obj
 0002:0000a454       ??_C@_0N@MGEL@CurrentBATID?$AA@ 004e5454     TSReader.obj
 0002:0000a464       ??_C@_0BJ@MLJD@DisableResolutionWarning?$AA@ 004e5464     TSReader.obj
 0002:0000a480       ??_C@_0BA@ILMG@KeepPastEITData?$AA@ 004e5480     TSReader.obj
 0002:0000a490       ??_C@_0BA@EFJE@ProcessPriority?$AA@ 004e5490     TSReader.obj
 0002:0000a4a0       ??_C@_0BP@EOPN@StreamProcessingThreadPriority?$AA@ 004e54a0     TSReader.obj
 0002:0000a4c0       ??_C@_0BE@PKNE@InputThreadPriority?$AA@ 004e54c0     TSReader.obj
 0002:0000a4d4       ??_C@_08EAHG@DontTune?$AA@ 004e54d4     TSReader.obj
 0002:0000a4e0       ??_C@_0BB@NIMI@RecordPIDsAppend?$AA@ 004e54e0     TSReader.obj
 0002:0000a4f4       ??_C@_0BC@CNEE@RecordPIDsOneFile?$AA@ 004e54f4     TSReader.obj
 0002:0000a508       ??_C@_0BA@KGAO@AllowStradisAC3?$AA@ 004e5508     TSReader.obj
 0002:0000a518       ??_C@_0BB@KOEP@EPGTimeGridOnTop?$AA@ 004e5518     TSReader.obj
 0002:0000a52c       ??_C@_0M@EEAD@EPGTimeGrid?$AA@ 004e552c     TSReader.obj
 0002:0000a538       ??_C@_0O@OFMO@EPGSearchFlag?$AA@ 004e5538     TSReader.obj
 0002:0000a548       ??_C@_0BB@KMIG@EPGTimeGridColor?$AA@ 004e5548     TSReader.obj
 0002:0000a55c       ??_C@_0BA@BIAI@EPGSubTextColor?$AA@ 004e555c     TSReader.obj
 0002:0000a56c       ??_C@_0BB@MONC@EPGMainTextColor?$AA@ 004e556c     TSReader.obj
 0002:0000a580       ??_C@_0BA@HGLC@EPGChannelColor?$AA@ 004e5580     TSReader.obj
 0002:0000a590       ??_C@_0BB@BGMP@EPGSelectedColor?$AA@ 004e5590     TSReader.obj
 0002:0000a5a4       ??_C@_0O@MFDL@EPGEventColor?$AA@ 004e55a4     TSReader.obj
 0002:0000a5b4       ??_C@_0CA@LCNG@WarnBeforeOverwritingRecordings?$AA@ 004e55b4     TSReader.obj
 0002:0000a5d4       ??_C@_0BD@IGJP@PIDDataRefreshRate?$AA@ 004e55d4     TSReader.obj
 0002:0000a5e8       ??_C@_08OCGH@DVBHMACs?$AA@ 004e55e8     TSReader.obj
 0002:0000a5f4       ??_C@_0BH@FBCP@SchedulerRequiresLogin?$AA@ 004e55f4     TSReader.obj
 0002:0000a60c       ??_C@_0BD@MEHG@DontShowBombDialog?$AA@ 004e560c     TSReader.obj
 0002:0000a620       ??_C@_0BE@IEAK@ChartGradientBitmap?$AA@ 004e5620     TSReader.obj
 0002:0000a634       ??_C@_0BD@IKHP@SortChartDecending?$AA@ 004e5634     TSReader.obj
 0002:0000a648       ??_C@_0P@DLIO@SortChartByPID?$AA@ 004e5648     TSReader.obj
 0002:0000a658       ??_C@_0BA@PDGG@DiscardNULLPIDs?$AA@ 004e5658     TSReader.obj
 0002:0000a668       ??_C@_0P@LHLP@ExportSITables?$AA@ 004e5668     TSReader.obj
 0002:0000a678       ??_C@_0BJ@OODG@EITLanguageFilterEnabled?$AA@ 004e5678     TSReader.obj
 0002:0000a694       ??_C@_0BE@OAIO@RecordPIDNoTSHeader?$AA@ 004e5694     TSReader.obj
 0002:0000a6a8       ??_C@_0BA@BODJ@HTTPContentType?$AA@ 004e56a8     TSReader.obj
 0002:0000a6b8       ??_C@_0BA@PILO@LastOrbitalWest?$AA@ 004e56b8     TSReader.obj
 0002:0000a6c8       ??_C@_0N@DIHM@LocationWest?$AA@ 004e56c8     TSReader.obj
 0002:0000a6d8       ??_C@_0O@JEHG@LocationSouth?$AA@ 004e56d8     TSReader.obj
 0002:0000a6e8       ??_C@_0M@INN@LastOrbital?$AA@ 004e56e8     TSReader.obj
 0002:0000a6f4       ??_C@_0BC@IIK@LocationLongitude?$AA@ 004e56f4     TSReader.obj
 0002:0000a708       ??_C@_0BB@KEII@LocationLatitude?$AA@ 004e5708     TSReader.obj
 0002:0000a71c       ??_C@_0BC@DDPG@EPGUpdateRealtime?$AA@ 004e571c     TSReader.obj
 0002:0000a730       ??_C@_0BJ@KJIF@DontShowSchedulerWarning?$AA@ 004e5730     TSReader.obj
 0002:0000a74c       ??_C@_0M@JLKK@EPGRecordPS?$AA@ 004e574c     TSReader.obj
 0002:0000a758       _GUID_SERENUM_BUS_ENUMERATOR 004e5758     TSReader.obj
 0002:0000a768       _GUID_CLASS_COMPORT        004e5768     TSReader.obj
 0002:0000a778       _StoragePortClassGuid      004e5778     TSReader.obj
 0002:0000a788       _CdChangerClassGuid        004e5788     TSReader.obj
 0002:0000a798       _FloppyClassGuid           004e5798     TSReader.obj
 0002:0000a7a8       _MediumChangerClassGuid    004e57a8     TSReader.obj
 0002:0000a7b8       _VolumeClassGuid           004e57b8     TSReader.obj
 0002:0000a7c8       _WriteOnceDiskClassGuid    004e57c8     TSReader.obj
 0002:0000a7d8       _TapeClassGuid             004e57d8     TSReader.obj
 0002:0000a7e8       _PartitionClassGuid        004e57e8     TSReader.obj
 0002:0000a7f8       _CdRomClassGuid            004e57f8     TSReader.obj
 0002:0000a808       _DiskClassGuid             004e5808     TSReader.obj
 0002:0000a818       ??_C@_0BM@BBOI@Switch?$CFd_AutoSelectPolarity?$AA@ 004e5818     TSReader.obj
 0002:0000a834       ??_C@_0BL@FHK@Switch?$CFd_AutoSelectNetwork?$AA@ 004e5834     TSReader.obj
 0002:0000a850       ??_C@_0BL@LIAN@Switch?$CFd_AutoSelectOrbital?$AA@ 004e5850     TSReader.obj
 0002:0000a86c       ??_C@_0BH@LLPG@Switch?$CFd_AutoSelectEnd?$AA@ 004e586c     TSReader.obj
 0002:0000a884       ??_C@_0BJ@OFIN@Switch?$CFd_AutoSelectStart?$AA@ 004e5884     TSReader.obj
 0002:0000a8a0       ??_C@_0BE@BNMA@Switch?$CFd_AutoSelect?$AA@ 004e58a0     TSReader.obj
 0002:0000a8b4       ??_C@_0BI@LLKL@Switch?$CFd_PositionerType?$AA@ 004e58b4     TSReader.obj
 0002:0000a8cc       ??_C@_0BD@KEIP@Switch?$CFd_22KHzTone?$AA@ 004e58cc     TSReader.obj
 0002:0000a8e0       ??_C@_0BB@INLH@Switch?$CFd_Voltage?$AA@ 004e58e0     TSReader.obj
 0002:0000a8f4       ??_C@_0BJ@IABE@Switch?$CFd_SwitchFrequency?$AA@ 004e58f4     TSReader.obj
 0002:0000a910       ??_C@_0BI@MBMP@Switch?$CFd_LOFrequencyLow?$AA@ 004e5910     TSReader.obj
 0002:0000a928       ??_C@_0BJ@IAMP@Switch?$CFd_LOFrequencyHigh?$AA@ 004e5928     TSReader.obj
 0002:0000a944       ??_C@_0BB@LJPB@Switch?$CFd_LNBType?$AA@ 004e5944     TSReader.obj
 0002:0000a958       ??_C@_0N@MKPF@SwitchValues?$AA@ 004e5958     TSReader.obj
 0002:0000a968       ??_C@_0BH@GENM@ESParsingCounterReload?$AA@ 004e5968     TSReader.obj
 0002:0000a980       ??_C@_0CC@MML@ThumbnailProcessingThreadPriorit@ 004e5980     TSReader.obj
 0002:0000a9a4       ??_C@_0BA@MMMH@IgnoredNetworks?$AA@ 004e59a4     TSReader.obj
 0002:0000a9b4       ??_C@_0BC@JNJP@HideWhenMinimized?$AA@ 004e59b4     TSReader.obj
 0002:0000a9c8       ??_C@_0N@HKPD@SplitSeconds?$AA@ 004e59c8     TSReader.obj
 0002:0000a9d8       ??_C@_0O@CJPI@SplitFileSize?$AA@ 004e59d8     TSReader.obj
 0002:0000a9e8       ??_C@_0M@KBJ@SplitRecord?$AA@ 004e59e8     TSReader.obj
 0002:0000a9f4       ??_C@_0BD@FGBD@VLCConfigCommand?$CFd?$AA@ 004e59f4     TSReader.obj
 0002:0000aa08       ??_C@_0BH@EEAH@VLCConfigDescription?$CFd?$AA@ 004e5a08     TSReader.obj
 0002:0000aa20       ??_C@_0DF@JOJF@TSReader?3?5Registry?5type?5requeste@ 004e5a20     TSReader.obj
 0002:0000aa58       ??_C@_0N@NPOG@NoDSSSupport?$AA@ 004e5a58     TSReader.obj
 0002:0000aa68       ??_C@_0BF@HMPB@ExtraSerialTuneDelay?$AA@ 004e5a68     TSReader.obj
 0002:0000aa80       ??_C@_0L@ENPB@TunerLoops?$AA@ 004e5a80     TSReader.obj
 0002:0000aa8c       ??_C@_0M@BOEJ@MinimumPATs?$AA@ 004e5a8c     TSReader.obj
 0002:0000aa98       ??_C@_04JHOE@?$DMIP?$DO?$AA@ 004e5a98     TSReader.obj
 0002:0000aaa0       ??_C@_04NHBG@Play?$AA@     004e5aa0     TSReader.obj
 0002:0000aaa8       ??_C@_09HCL@?$CFf_?$CF3n?4?$CFe?$AA@ 004e5aa8     TSReader.obj
 0002:0000aab4       ??_C@_0P@BMMC@GlobalSettings?$AA@ 004e5ab4     TSReader.obj
 0002:0000aac4       ??_C@_08HBKF@?$CFd?4?$CFd?4?$CFd?$AA@ 004e5ac4     TSReader.obj
 0002:0000aad0       ??_C@_0L@GDPO@?$CFd?4?$CFd?4?$CFd?$CFc?$AA@ 004e5ad0     TSReader.obj
 0002:0000aadc       ??_C@_0DG@DHPO@Parsing?5MPEG?94?5video?5stream?5from@ 004e5adc     TSReader.obj
 0002:0000ab14       ??_C@_0DF@KFBH@Parsing?5H?4264?5video?5stream?5from?5@ 004e5b14     TSReader.obj
 0002:0000ab4c       ??_C@_0DK@OPIH@Parsing?5MPEG?94?5AAC?5audio?5stream?5@ 004e5b4c     TSReader.obj
 0002:0000ab88       ??_C@_0DK@NHGA@Parsing?5MPEG?92?5AAC?5audio?5stream?5@ 004e5b88     TSReader.obj
 0002:0000abc4       ??_C@_0DG@MLLF@Parsing?5Teletext?1VBI?5stream?5from@ 004e5bc4     TSReader.obj
 0002:0000abfc       ??_C@_0DE@DHGL@Parsing?5AC?93?5audio?5stream?5from?5p@ 004e5bfc     TSReader.obj
 0002:0000ac30       ??_C@_0DE@LCGK@Parsing?5MPEG?5audio?5stream?5from?5p@ 004e5c30     TSReader.obj
 0002:0000ac64       ??_C@_0DG@BDBM@Parsing?5MPEG?92?5video?5stream?5from@ 004e5c64     TSReader.obj
 0002:0000ac9c       ??_C@_0DO@JLPI@TSReader?3?5Ignore?5program?5?$CFd?5?$CIES?5@ 004e5c9c     TSReader.obj
 0002:0000ace0       ??_C@_0FC@FLOJ@TSReader?3?5DecodeH264?3?5Bad?5data?5w@ 004e5ce0     TSReader.obj
 0002:0000ad38       ??_C@_0FD@HGND@TSReader?3?5DecodeMPEG4?3?5Bad?5data?5@ 004e5d38     TSReader.obj
 0002:0000ad90       ??_C@_0FI@NHFA@TSReader?3?5DecodeMPEG2Video?3?5Bad?5@ 004e5d90     TSReader.obj
 0002:0000ade8       ??_C@_0FM@HDKN@TSReader?3?5DecodeAC3AudioHeader?3?5@ 004e5de8     TSReader.obj
 0002:0000ae48       ??_C@_0FM@OPAD@TSReader?3?5DecodeAACAudioHeader?3?5@ 004e5e48     TSReader.obj
 0002:0000aea8       ??_C@_0FN@KDDI@TSReader?3?5DecodeMPEGAudioHeader?3@ 004e5ea8     TSReader.obj
 0002:0000af08       ??_C@_0CI@ONNC@TSReader?3?5No?5auto?5record?5program@ 004e5f08     TSReader.obj
 0002:0000af30       ??_C@_01FNHM@d?$AA@        004e5f30     TSReader.obj
 0002:0000af34       ??_C@_03KHJB@0?$CFd?$AA@   004e5f34     TSReader.obj
 0002:0000af38       ??_C@_01FCCL@?$CF?$AA@     004e5f38     TSReader.obj
 0002:0000af3c       ??_C@_0BE@NDIB@Invalid?5format?5mask?$AA@ 004e5f3c     TSReader.obj
 0002:0000af50       ??_C@_0BG@NOOD@Invalid?5argument?5?8?$CFc?8?$AA@ 004e5f50     TSReader.obj
 0002:0000af68       ??_C@_04MBMK@?$CF04d?$AA@  004e5f68     TSReader.obj
 0002:0000af70       ??_C@_02DILL@?$CFs?$AA@    004e5f70     TSReader.obj
 0002:0000af74       ??_C@_0N@EDIA@recording?4ts?$AA@ 004e5f74     TSReader.obj
 0002:0000af84       ??_C@_03CENI@?$CFs?5?$AA@  004e5f84     TSReader.obj
 0002:0000af88       ??_C@_0BN@HMOJ@Unable?5to?5open?5PID?5list?5file?$AA@ 004e5f88     TSReader.obj
 0002:0000afa8       ??_C@_03MKIM@pdl?$AA@      004e5fa8     TSReader.obj
 0002:0000afac       ??_C@_0O@CCNC@Load?5PID?5List?$AA@ 004e5fac     TSReader.obj
 0002:0000afbc       ??_C@_0DD@KAEH@PID?5List?5Files?5?$CI?$CK?4pdl?$CJ?$AA?$CK?4pdl?$AAAll@ 004e5fbc     TSReader.obj
 0002:0000aff0       ??_C@_04JEDK@?$CFx?$AN?6?$AA@ 004e5ff0     TSReader.obj
 0002:0000aff8       ??_C@_0BN@EBGI@Unable?5to?5save?5PID?5list?5file?$AA@ 004e5ff8     TSReader.obj
 0002:0000b018       ??_C@_0O@LINI@Save?5PID?5List?$AA@ 004e6018     TSReader.obj
 0002:0000b028       ??_C@_03PKBN@mpg?$AA@      004e6028     TSReader.obj
 0002:0000b02c       ??_C@_0O@JEBM@Record?5Stream?$AA@ 004e602c     TSReader.obj
 0002:0000b03c       ??_C@_0CP@PLIE@MPEG?5Files?5?$CI?$CK?4mpg?$CJ?$AA?$CK?4mpg?$AAAll?5Fil@ 004e603c     TSReader.obj
 0002:0000b06c       ??_C@_0BA@IJCC@Recording?5to?5?$CFs?$AA@ 004e606c     TSReader.obj
 0002:0000b07c       ??_C@_0BH@NPKN@Unable?5to?5open?5file?5?$CFs?$AA@ 004e607c     TSReader.obj
 0002:0000b094       ??_C@_0DI@HEJI@Record?5file?5already?5exists?4?5Sure@ 004e6094     TSReader.obj
 0002:0000b0cc       ??_C@_0DL@CLNA@Invalid?5split?5file?5size?5?9?5please@ 004e60cc     TSReader.obj
 0002:0000b108       ??_C@_0CJ@PEJJ@Please?5provide?5a?5valid?5record?5ti@ 004e6108     TSReader.obj
 0002:0000b138       ??_C@_0FE@FCJH@No?5channels?5are?5defined?4?5Use?5man@ 004e6138     TSReader.obj
 0002:0000b18c       ??_C@_0N@OELO@PID?5?$CFs?5?9?5?$CF?$CFs?$AA@ 004e618c     TSReader.obj
 0002:0000b1a0       ??_C@_0EC@FFHO@Please?5select?5a?5program?5by?5click@ 004e61a0     TSReader.obj
 0002:0000b1e4       ??_C@_0DF@GPB@Generated?5by?5TSReader?5?$CFs?5on?5?$CF04d@ 004e61e4     TSReader.obj
 0002:0000b220       ??_C@_0FE@KEBM@Launch?5your?5Media?5application?5an@ 004e6220     TSReader.obj
 0002:0000b278       ??_C@_0EA@GKMJ@Unable?5to?5start?5VLC?5?9?5check?5loca@ 004e6278     TSReader.obj
 0002:0000b2b8       ??_C@_0CN@NNLI@Please?5select?5the?5Stradis?5API?5ve@ 004e62b8     TSReader.obj
 0002:0000b2e8       ??_C@_0BE@FKBJ@http?3?1?1127?40?40?41?3?$CFd?$AA@ 004e62e8     TSReader.obj
 0002:0000b2fc       ??_C@_0BA@EEKM@ShutdownStradis?$AA@ 004e62fc     TSReader.obj
 0002:0000b30c       ??_C@_0N@FKLC@SetupStradis?$AA@ 004e630c     TSReader.obj
 0002:0000b31c       ??_C@_0DB@KEJM@Unable?5to?5start?5playback?5?9?5outpu@ 004e631c     TSReader.obj
 0002:0000b350       ??_C@_0BB@IEHD@TSReader_VLC?4dll?$AA@ 004e6350     TSReader.obj
 0002:0000b364       ??_C@_0BC@KOPM@TSReader_DVHS?4dll?$AA@ 004e6364     TSReader.obj
 0002:0000b378       ??_C@_0BH@FEJL@TSReader_Stradis16?4dll?$AA@ 004e6378     TSReader.obj
 0002:0000b390       ??_C@_0BH@NEAO@TSReader_Stradis12?4dll?$AA@ 004e6390     TSReader.obj
 0002:0000b3a8       ??_C@_0BA@MFFF@TSReader_DS?4dll?$AA@ 004e63a8     TSReader.obj
 0002:0000b3b8       ??_C@_0FF@BJLI@You?5must?5first?5set?5the?5Stradis?5A@ 004e63b8     TSReader.obj
 0002:0000b410       ??_C@_0O@LLHP@wxWindowClass?$AA@ 004e6410     TSReader.obj
 0002:0000b420       ??_C@_0BB@GDAN@VLC?5media?5player?$AA@ 004e6420     TSReader.obj
 0002:0000b434       ??_C@_0BA@BJDD@wxWindowClassNR?$AA@ 004e6434     TSReader.obj
 0002:0000b444       ??_C@_0BI@KBAH@TSReader?3?5PCR?5rollover?6?$AA@ 004e6444     TSReader.obj
 0002:0000b45c       ??_C@_0DK@EKBA@TSReader?3?5Reset?5mux?5rate?5calcula@ 004e645c     TSReader.obj
 0002:0000b498       __real@3e63e254e465d72c    004e6498     TSReader.obj
 0002:0000b4a0       ??_C@_0DK@PPBJ@TSReader?3?5Chose?5SCID?5?$CFs?5for?5bitr@ 004e64a0     TSReader.obj
 0002:0000b4dc       ??_C@_0DM@GABN@TSReader?3?5Reset?5mux?5rate?5calcula@ 004e64dc     TSReader.obj
 0002:0000b518       ??_C@_0DJ@CBLM@TSReader?3?5Chose?5PID?5?$CFs?5for?5bitra@ 004e6518     TSReader.obj
 0002:0000b558       ??_C@_0EN@DOCM@ES?5blacklisted?5?9?5nDecodeNoPESLen@ 004e6558     TSReader.obj
 0002:0000b5a8       ??_C@_0EK@MID@TSReader?3?5ES?5PID?50x?$CF04x?5blacklis@ 004e65a8     TSReader.obj
 0002:0000b5f8       ??_C@_0FD@OLHM@TSReader?3?5ES?5blacklisted?5?9?5nDeco@ 004e65f8     TSReader.obj
 0002:0000b64c       ??_C@_0O@JPIM@TSReader?3?5?$CFs?6?$AA@ 004e664c     TSReader.obj
 0002:0000b65c       ??_C@_0CO@HJKI@Parsing?5DCII?5ECM?5for?5service?5?$CFd?5@ 004e665c     TSReader.obj
 0002:0000b68c       ??_C@_0DC@OKBP@TSReader?3?5Reading?5PMT?5for?5progra@ 004e668c     TSReader.obj
 0002:0000b6c0       ??_C@_0DP@CLAL@No?5PAT?5?9?5possibly?5an?5IP?1DVB?5mux?5@ 004e66c0     TSReader.obj
 0002:0000b700       ??_C@_0BO@KEKB@Waiting?5for?5PMTs?5to?5arrive?4?4?4?$AA@ 004e6700     TSReader.obj
 0002:0000b720       ??_C@_0BL@PACG@No?5channels?5defined?5in?5mux?$AA@ 004e6720     TSReader.obj
 0002:0000b73c       ??_C@_0CN@GKEE@TSReader?3?5PAT?5Version?5changed?5fr@ 004e673c     TSReader.obj
 0002:0000b770       ??_C@_0EN@OKDK@TSReader?3?5Completed?5PMT?5for?5prog@ 004e6770     TSReader.obj
 0002:0000b7c0       ??_C@_0DF@PPED@TSReader?3?5Completed?5PMT?5for?5prog@ 004e67c0     TSReader.obj
 0002:0000b7f8       ??_C@_01KBOJ@s?$AA@        004e67f8     TSReader.obj
 0002:0000b7fc       ??_C@_0CG@CNGH@TSReader?3?5ParseIncomingTSDataThr@ 004e67fc     TSReader.obj
 0002:0000b824       ??_C@_0CF@JPAF@PMT?5timeout?5on?5program?5?$CFd?5PID?50x@ 004e6824     TSReader.obj
 0002:0000b84c       ??_C@_0CJ@JMIH@TSReader?3?5Timeout?5on?5PMT?5for?5pro@ 004e684c     TSReader.obj
 0002:0000b878       ??_C@_0CI@FHAI@TSReader?3?5Switching?5to?5DSS?5packe@ 004e6878     TSReader.obj
 0002:0000b8a0       ??_C@_0CJ@BLOH@TSReader?3?5quitting?5main?5processi@ 004e68a0     TSReader.obj
 0002:0000b8cc       ??_C@_0BG@NDFJ@Unloading?5RRT?5data?4?4?4?$AA@ 004e68cc     TSReader.obj
 0002:0000b8e4       ??_C@_0BG@JOIE@Unloading?5TOT?5data?4?4?4?$AA@ 004e68e4     TSReader.obj
 0002:0000b8fc       ??_C@_0BG@BHMH@Unloading?5BAT?5data?4?4?4?$AA@ 004e68fc     TSReader.obj
 0002:0000b914       ??_C@_0BH@CAPD@Unloading?5CVCT?5data?4?4?4?$AA@ 004e6914     TSReader.obj
 0002:0000b92c       ??_C@_0BG@PGJL@Unloading?5MGT?5data?4?4?4?$AA@ 004e692c     TSReader.obj
 0002:0000b944       ??_C@_0BG@PNEI@Unloading?5CAT?5data?4?4?4?$AA@ 004e6944     TSReader.obj
 0002:0000b95c       ??_C@_0BG@JHJE@Unloading?5NIT?5data?4?4?4?$AA@ 004e695c     TSReader.obj
 0002:0000b974       ??_C@_0BG@CLDP@Unloading?5PMT?5data?4?4?4?$AA@ 004e6974     TSReader.obj
 0002:0000b98c       ??_C@_0BG@PMHK@Unloading?5EIT?5data?4?4?4?$AA@ 004e698c     TSReader.obj
 0002:0000b9a4       ??_C@_0BM@FLIM@TSReader?3?5Image?5not?5loaded?6?$AA@ 004e69a4     TSReader.obj
 0002:0000b9c0       ??_C@_02INJB@?5?$FN?$AA@   004e69c0     TSReader.obj
 0002:0000b9c4       ??_C@_07DAJE@?$CFs?5?9?5?$CFs?$AA@ 004e69c4     TSReader.obj
 0002:0000b9cc       ??_C@_0CE@ELDB@TSReader?3?5Image?5thumbnail?5too?5bi@ 004e69cc     TSReader.obj
 0002:0000b9f0       ??_C@_0BI@DFAD@?5Record?3?5?$CF03d?3?$CF02d?3?$CF02d?$AA@ 004e69f0     TSReader.obj
 0002:0000ba08       ??_C@_0BJ@EHGF@Run?5Time?3?5?$CF03d?3?$CF02d?3?$CF02d?$AA@ 004e6a08     TSReader.obj
 0002:0000ba24       ??_C@_0BB@GIFC@Network?5Type?3?5?$CFs?$AA@ 004e6a24     TSReader.obj
 0002:0000ba38       ??_C@_04OAOI@DCII?$AA@     004e6a38     TSReader.obj
 0002:0000ba40       ??_C@_03IKON@DVB?$AA@      004e6a40     TSReader.obj
 0002:0000ba44       ??_C@_04JFN@ISDB?$AA@      004e6a44     TSReader.obj
 0002:0000ba4c       ??_C@_0BH@HPIM@Save?5All?5EPG?3?5?$CFd?5Items?$AA@ 004e6a4c     TSReader.obj
 0002:0000ba64       ??_C@_0L@KFJA@Signal?3?5?$CFs?$AA@ 004e6a64     TSReader.obj
 0002:0000ba70       ??_C@_09KFK@Tuner?3?5?$CFs?$AA@ 004e6a70     TSReader.obj
 0002:0000ba7c       ??_C@_0L@JHHK@Source?3?5?$CFs?$AA@ 004e6a7c     TSReader.obj
 0002:0000ba88       ??_C@_03KICP@?1?$CFd?$AA@  004e6a88     TSReader.obj
 0002:0000ba8c       ??_C@_04BICB@?5?$CK?$CFd?$AA@ 004e6a8c     TSReader.obj
 0002:0000ba94       ??_C@_0P@IEDE@?$CFs?5?$CI?$CF?$CF?43f?$CF?$CF?$CF?$CF?$CJ?$AA@ 004e6a94     TSReader.obj
 0002:0000baa4       ??_C@_0BL@IKMP@?$CFs?5?$CI?$CF?$CF?42f?$CF?$CF?$CF?$CF?5?$HO?5?$CF?$CF?40f?5bps?$CJ?$AA@ 004e6aa4     TSReader.obj
 0002:0000bac0       ??_C@_0BM@FDAO@?$CFs?5?$CI?$CF?$CF?42f?$CF?$CF?$CF?$CF?5?$HO?5?$CF?$CF?42f?5Kbps?$CJ?$AA@ 004e6ac0     TSReader.obj
 0002:0000badc       ??_C@_0BM@JDNB@?$CFs?5?$CI?$CF?$CF?42f?$CF?$CF?$CF?$CF?5?$HO?5?$CF?$CF?42f?5Mbps?$CJ?$AA@ 004e6adc     TSReader.obj
 0002:0000baf8       ??_C@_0BL@JIPL@?$CFs?5?$CI?$CF?$CF?42f?$CF?$CF?$CF?$CF?5?9?5?$CF?$CF?40f?5bps?$CJ?$AA@ 004e6af8     TSReader.obj
 0002:0000bb14       ??_C@_0BM@ONBM@?$CFs?5?$CI?$CF?$CF?42f?$CF?$CF?$CF?$CF?5?9?5?$CF?$CF?42f?5Kbps?$CJ?$AA@ 004e6b14     TSReader.obj
 0002:0000bb30       ??_C@_0BM@CNMD@?$CFs?5?$CI?$CF?$CF?42f?$CF?$CF?$CF?$CF?5?9?5?$CF?$CF?42f?5Mbps?$CJ?$AA@ 004e6b30     TSReader.obj
 0002:0000bb50       __real@412e848000000000    004e6b50     TSReader.obj
 0002:0000bb58       ??_C@_0CM@FCHC@?5?$CF02x?3?$CF02x?3?$CF02x?3?$CF02x?3?$CF02x?3?$CF02x?5?$CF@ 004e6b58     TSReader.obj
 0002:0000bb84       ??_C@_0BJ@PGHI@?$AN?6Top?5ten?5packet?5MACs?3?$AN?6?$AA@ 004e6b84     TSReader.obj
 0002:0000bba0       ??_C@_0CJ@PPIB@?5?$CF02x?3?$CF02x?3?$CF02x?3?$CF02x?3?$CF02x?3?$CF02x?5?$CF@ 004e6ba0     TSReader.obj
 0002:0000bbcc       ??_C@_0BH@MODM@?$AN?6Top?5ten?5data?5MACs?3?$AN?6?$AA@ 004e6bcc     TSReader.obj
 0002:0000bbe8       ??_C@_0EB@FKAB@PID?50x?$CF04x?$AN?6Packets?3?5?$CFd?$AN?6MACs?5ca@ 004e6be8     TSReader.obj
 0002:0000bc30       ??_C@_0EM@LLOK@Destination?5Address?3?5?$CFd?4?$CFd?4?$CFd?4?$CFd@ 004e6c30     TSReader.obj
 0002:0000bc7c       ??_C@_03HBHA@TCP?$AA@      004e6c7c     TSReader.obj
 0002:0000bc80       ??_C@_03ECDD@UDP?$AA@      004e6c80     TSReader.obj
 0002:0000bc88       ??_C@_0GD@ONJH@MAC?5?$CF02x?3?$CF02x?3?$CF02x?3?$CF02x?3?$CF02x?3?$CF02@ 004e6c88     TSReader.obj
 0002:0000bcec       ??_C@_0CL@MHOI@EIT?5contains?5?$CFd?5channel?$CIs?$CJ?5and?5?$CF@ 004e6cec     TSReader.obj
 0002:0000bd18       ??_C@_0BK@FPCM@SDT?5defines?5?$CFd?5channel?$CIs?$CJ?$AA@ 004e6d18     TSReader.obj
 0002:0000bd34       ??_C@_0BD@MLEL@TSReader_SendCAPMT?$AA@ 004e6d34     TSReader.obj
 0002:0000bd48       ??_C@_05MHFF@Ch?4?$CFd?$AA@ 004e6d48     TSReader.obj
 0002:0000bd50       ??_C@_0BI@EJLK@NIT?5contains?5?$CFd?5entries?$AA@ 004e6d50     TSReader.obj
 0002:0000bd68       ??_C@_0BG@KPGO@NIT?5contains?5?$CFd?5entry?$AA@ 004e6d68     TSReader.obj
 0002:0000bd80       ??_C@_0EO@DPPM@STT?3?5GPS?1UTC?5offset?3?5?$CFd?$AN?6STT?3?5DS@ 004e6d80     TSReader.obj
 0002:0000bdd0       ??_C@_0O@IGHJ@TSReader_File?$AA@ 004e6dd0     TSReader.obj
 0002:0000bde0       ??_C@_05BOKE@?$CF?41fk?$AA@ 004e6de0     TSReader.obj
 0002:0000bde8       ??_C@_05OBNG@?$CF?41fm?$AA@ 004e6de8     TSReader.obj
 0002:0000bdf0       __real@4070000000000000    004e6df0     TSReader.obj
 0002:0000bdf8       ??_C@_09BOED@?$CF?43f?5Mbit?$AA@ 004e6df8     TSReader.obj
 0002:0000be04       ??_C@_07EMD@?$CF?43f?5MB?$AA@ 004e6e04     TSReader.obj
 0002:0000be0c       ??_C@_07JMMC@?$CF?43f?5GB?$AA@ 004e6e0c     TSReader.obj
 0002:0000be14       ??_C@_04OLON@TVCT?$AA@     004e6e14     TSReader.obj
 0002:0000be1c       ??_C@_05GBJI@?$DM?1tv?$DO?$AA@ 004e6e1c     TSReader.obj
 0002:0000be24       ??_C@_0BI@OANG@XMLTV?5Export?5for?5ch?4?5?$CFd?$AA@ 004e6e24     TSReader.obj
 0002:0000be3c       ??_C@_0CE@FMKO@?$DMtv?5generator?9info?9name?$DN?$CCTSReade@ 004e6e3c     TSReader.obj
 0002:0000be60       ??_C@_0CO@CHLB@?$DM?$CB?9?9?5Created?5by?5TSReader?5from?5CO@ 004e6e60     TSReader.obj
 0002:0000be90       ??_C@_0CN@DGLH@?$DM?$DPxml?5version?$DN?$CC1?40?$CC?5encoding?$DN?$CCIS@ 004e6e90     TSReader.obj
 0002:0000bec0       ??_C@_0BB@GCIM@?$CFs?5Unknown?5usage?$AA@ 004e6ec0     TSReader.obj
 0002:0000bed4       ??_C@_0BC@PEEO@?$CFs?5IP?1DVB?5Traffic?$AA@ 004e6ed4     TSReader.obj
 0002:0000bee8       ??_C@_0DD@DJPF@?$CFs?5ECM?5for?5system?5ID?50x?$CF04x?5?$CI?$CFd?$CJ@ 004e6ee8     TSReader.obj
 0002:0000bf1c       ??_C@_0BP@GCOF@?$CFs?5MPEG?92?5PCR?5for?5program?5?$CFs?$CFd?$AA@ 004e6f1c     TSReader.obj
 0002:0000bf3c       ??_C@_0DF@ICEP@?$CFs?5ECM?5for?5system?5ID?50x?$CF04x?5?$CI?$CFd?$CJ@ 004e6f3c     TSReader.obj
 0002:0000bf74       ??_C@_0BH@GLJC@?$CFs?5?$CFs?5for?5program?5?$CFs?$CFd?$AA@ 004e6f74     TSReader.obj
 0002:0000bf8c       ??_C@_0BP@OKAO@?$CFs?5MPEG?92?5PMT?5for?5program?5?$CFs?$CFd?$AA@ 004e6f8c     TSReader.obj
 0002:0000bfac       ??_C@_0BH@JKBG@?$CFs?5DCII?5Network?5Tables?$AA@ 004e6fac     TSReader.obj
 0002:0000bfc4       ??_C@_0L@LBAB@?$CFs?5ATSC?5?$CFs?$AA@ 004e6fc4     TSReader.obj
 0002:0000bfd0       ??_C@_0CG@EMFB@?$CFs?5ATSC?5Base?5PID?5?$CITVCT?0?5MGT?0?5RT?0@ 004e6fd0     TSReader.obj
 0002:0000bff8       ??_C@_0L@LKOB@?$CFs?5DVB?5SIT?$AA@ 004e6ff8     TSReader.obj
 0002:0000c004       ??_C@_0L@CFOK@?$CFs?5DVB?5DIT?$AA@ 004e7004     TSReader.obj
 0002:0000c010       ??_C@_0BD@BIOC@?$CFs?5DVB?5Measurement?$AA@ 004e7010     TSReader.obj
 0002:0000c024       ??_C@_0BK@CP@?$CFs?5DVB?5In?9Band?5Signalling?$AA@ 004e7024     TSReader.obj
 0002:0000c040       ??_C@_0BP@ONNL@?$CFs?5DVB?5Reserved?5for?5Future?5Use?$AA@ 004e7040     TSReader.obj
 0002:0000c060       ??_C@_0BP@BFEJ@?$CFs?5DVB?5Network?5Synchronization?$AA@ 004e7060     TSReader.obj
 0002:0000c080       ??_C@_0CJ@CEPL@?$CFs?5DVB?5Time?5Definition?5and?5Offse@ 004e7080     TSReader.obj
 0002:0000c0ac       ??_C@_0BM@MBLA@?$CFs?5DVB?5Running?5Status?5Table?$AA@ 004e70ac     TSReader.obj
 0002:0000c0c8       ??_C@_0BP@GIEG@?$CFs?5DVB?5Event?5Information?5Table?$AA@ 004e70c8     TSReader.obj
 0002:0000c0e8       ??_C@_0CA@ECKL@?$CFs?5DVB?5Service?5Definition?5Table?$AA@ 004e70e8     TSReader.obj
 0002:0000c108       ??_C@_0CB@KKOO@?$CFs?5DVB?5Network?5Information?5Table@ 004e7108     TSReader.obj
 0002:0000c12c       ??_C@_0BA@DPDH@?$CFs?5DVB?5Reserved?$AA@ 004e712c     TSReader.obj
 0002:0000c13c       ??_C@_0CJ@FMIC@?$CFs?5DVB?5Transport?5Stream?5Descript@ 004e713c     TSReader.obj
 0002:0000c168       ??_C@_0CE@CKP@?$CFs?5EMM?5for?5system?5ID?50x?$CF04x?5?$CI?$CFd?$CJ@ 004e7168     TSReader.obj
 0002:0000c18c       ??_C@_0O@BDFA@?$CFs?5DSS?5Packet?$AA@ 004e718c     TSReader.obj
 0002:0000c19c       ??_C@_0BG@OJAL@?$CFs?5MPEG?92?5NULL?5Packet?$AA@ 004e719c     TSReader.obj
 0002:0000c1b4       ??_C@_0CD@ILKH@?$CFs?5MPEG?92?5Conditional?5Access?5Tab@ 004e71b4     TSReader.obj
 0002:0000c1d8       ??_C@_0BK@EKNL@?$CFs?5DSS?5Master?5Guide?5Table?$AA@ 004e71d8     TSReader.obj
 0002:0000c1f4       ??_C@_0CD@GLJG@?$CFs?5MPEG?92?5Program?5Assocation?5Tab@ 004e71f4     TSReader.obj
 0002:0000c218       ??_C@_0BD@CLCH@?$CFs?5DSS?5NULL?5Packet?$AA@ 004e7218     TSReader.obj
 0002:0000c22c       ??_C@_06KKCN@?$CFs?$CFs?$CFs?$AA@ 004e722c     TSReader.obj
 0002:0000c234       ??_C@_01KMAE@?0?$AA@       004e7234     TSReader.obj
 0002:0000c238       ??_C@_0BM@FCAM@?$DM?1AUDIO?9SAMPLES?9CHANNEL?9?$CFd?$DO?$AA@ 004e7238     TSReader.obj
 0002:0000c254       ??_C@_0BO@KBL@?5?5?5?$DMAUDIO?9SAMPLES?9CHANNEL?9?$CFd?$DO?$AA@ 004e7254     TSReader.obj
 0002:0000c274       ??_C@_0DH@BDGP@?5?5?5?$DMDIALOG?9NORMALIZATION?$DO?9?$CFd?5dB?$DM@ 004e7274     TSReader.obj
 0002:0000c2ac       ??_C@_0BL@GIN@?5?5?5?$DMLFE?9MODE?$DO?$CFs?$DM?1LFE?9MODE?$DO?$AA@ 004e72ac     TSReader.obj
 0002:0000c2c8       ??_C@_0CF@LMEA@?5?5?5?$DMSURROUND?9MODE?$DO?$CFs?$DM?1SURROUND?9M@ 004e72c8     TSReader.obj
 0002:0000c2f0       ??_C@_0CP@EOJN@?5?5?5?$DMSURROUND?9MIX?9LEVEL?$DO?$CFs?$DM?1SURRO@ 004e72f0     TSReader.obj
 0002:0000c320       ??_C@_0CL@HLEP@?5?5?5?$DMCENTER?9MIX?9LEVEL?$DO?$CFs?$DM?1CENTER?9@ 004e7320     TSReader.obj
 0002:0000c34c       ??_C@_0CB@ECCG@?5?5?5?$DMCODING?9MODE?$DO?$CFs?$DM?1CODING?9MODE?$DO@ 004e734c     TSReader.obj
 0002:0000c370       ??_C@_0CH@LPKK@?5?5?5?$DMBITSTREAM?9MODE?$DO?$CFs?$DM?1BITSTREAM@ 004e7370     TSReader.obj
 0002:0000c398       ??_C@_0CB@GFJD@?5?5?5?$DMSAMPLE?9RATE?$DO?$CFs?$DM?1SAMPLE?9RATE?$DO@ 004e7398     TSReader.obj
 0002:0000c3bc       ??_C@_0BD@EDJF@?5?5?5?$DMMODE?$DO?$CFs?$DM?1MODE?$DO?$AA@ 004e73bc     TSReader.obj
 0002:0000c3d0       ??_C@_0BF@BIEN@?5?5?5?$DMLAYER?$DO?$CFs?$DM?1LAYER?$DO?$AA@ 004e73d0     TSReader.obj
 0002:0000c3e8       ??_C@_0BB@CNGA@?5?5?5?$DMAFD?$DO?$CFs?$DM?1AFD?$DO?$AA@ 004e73e8     TSReader.obj
 0002:0000c3fc       ??_C@_0CF@MHOD@?5?5?5?$DMCHROMA?9FORMAT?$DO?$CFs?$DM?1CHROMA?9FOR@ 004e73fc     TSReader.obj
 0002:0000c424       ??_C@_0BP@HGPI@?5?5?5?$DMFRAME?9RATE?$DO?$CFs?$DM?1FRAME?9RATE?$DO?$AA@ 004e7424     TSReader.obj
 0002:0000c444       ??_C@_0CD@MEPN@?5?5?5?$DMASPECT?9RATIO?$DO?$CFs?$DM?1ASPECT?9RATI@ 004e7444     TSReader.obj
 0002:0000c468       ??_C@_0DB@CFOH@?5?5?5?$DMVERTICAL?9RESOLUTION?$DO?$CFd?$DM?1VERT@ 004e7468     TSReader.obj
 0002:0000c49c       ??_C@_0DF@CPNI@?5?5?5?$DMHORIZONTAL?9RESOLUTION?$DO?$CFd?$DM?1HO@ 004e749c     TSReader.obj
 0002:0000c4d4       ??_C@_0BJ@CLJJ@?5?5?5?$DMBITRATE?$DO?$CFd?$DM?1BITRATE?$DO?$AA@ 004e74d4     TSReader.obj
 0002:0000c4f0       ??_C@_0CB@PBGE@?5?5?5?$DMPROGRESSIVE?$DO?$CFs?$DM?1PROGRESSIVE?$DO@ 004e74f0     TSReader.obj
 0002:0000c514       ??_C@_05LLOB@FALSE?$AA@    004e7514     TSReader.obj
 0002:0000c51c       ??_C@_04LNAG@TRUE?$AA@     004e751c     TSReader.obj
 0002:0000c524       ??_C@_0CJ@MPGH@?5?5?5?$DMBLACKLIST?$DONo?5PES?5packets?$DM?1BL@ 004e7524     TSReader.obj
 0002:0000c550       ??_C@_0CO@OHPG@?5?5?5?$DMBLACKLIST?$DONo?5appreciable?5dat@ 004e7550     TSReader.obj
 0002:0000c580       ??_C@_0CM@BCAA@?5?5?5?$DMBLACKLIST?$DONo?5traffic?5on?5PID?$DM@ 004e7580     TSReader.obj
 0002:0000c5ac       ??_C@_0BP@NGMB@?5?5?5?$DMBLACKLIST?$DONone?$DM?1BLACKLIST?$DO?$AA@ 004e75ac     TSReader.obj
 0002:0000c5cc       ??_C@_0P@HEME@?$DM?1MPEG?9TABLES?$DO?$AA@ 004e75cc     TSReader.obj
 0002:0000c5dc       ??_C@_0O@LHEE@?5?$DM?1PID?9USAGE?$DO?$AA@ 004e75dc     TSReader.obj
 0002:0000c5ec       ??_C@_08EBGD@?5?5?$DM?1PID?$DO?$AA@ 004e75ec     TSReader.obj
 0002:0000c5f8       ??_C@_0BM@JLCE@?5?5?5?$DMGHOST?9PID?$DO0?$DM?1GHOST?9PID?$DO?$AA@ 004e75f8     TSReader.obj
 0002:0000c614       ??_C@_0BM@MKEJ@?5?5?5?$DMGHOST?9PID?$DO1?$DM?1GHOST?9PID?$DO?$AA@ 004e7614     TSReader.obj
 0002:0000c630       ??_C@_0O@GHMG@Unknown?5usage?$AA@ 004e7630     TSReader.obj
 0002:0000c640       ??_C@_0BP@LPOD@?5?5?5?$DMTEI?9ERRORS?$DO?$CFd?$DM?1TEI?9ERRORS?$DO?$AA@ 004e7640     TSReader.obj
 0002:0000c660       ??_C@_0CN@MIAP@?5?5?5?$DMCONTINUITY?9ERRORS?$DO?$CFd?$DM?1CONTIN@ 004e7660     TSReader.obj
 0002:0000c690       ??_C@_0CB@BLNO@?5?5?5?$DMDESCRIPTION?$DO?$CFs?$DM?1DESCRIPTION?$DO@ 004e7690     TSReader.obj
 0002:0000c6b4       ??_C@_0BP@KFHH@?5?5?5?$DMRATE?9MbPS?$DO?$CF?44f?$DM?1RATE?9MbPS?$DO?$AA@ 004e76b4     TSReader.obj
 0002:0000c6d4       ??_C@_0CP@NILO@?5?5?5?$DMPERCENTAGE?9OF?9MUX?$DO?$CF?44f?$DM?1PERC@ 004e76d4     TSReader.obj
 0002:0000c704       ??_C@_0CH@HFKE@?5?5?5?$DMNUMBER?9DECIMAL?$DO?$CFd?$DM?1NUMBER?9DE@ 004e7704     TSReader.obj
 0002:0000c72c       ??_C@_0BL@MDLB@?5?5?5?$DMNUMBER?$DO0x?$CF04x?$DM?1NUMBER?$DO?$AA@ 004e772c     TSReader.obj
 0002:0000c748       ??_C@_07HAI@?5?5?$DMPID?$DO?$AA@ 004e7748     TSReader.obj
 0002:0000c750       ??_C@_0CC@BFNG@?5?5?$DMMUXRATE?9BPS?$DO?$CF?40f?$DM?1MUXRATE?9BPS@ 004e7750     TSReader.obj
 0002:0000c774       ??_C@_0N@LMD@?5?$DMPID?9USAGE?$DO?$AA@ 004e7774     TSReader.obj
 0002:0000c784       ??_C@_07MLCD@?5?$DM?1EIT?$DO?$AA@ 004e7784     TSReader.obj
 0002:0000c78c       ??_C@_06FKCO@?5?$DMEIT?$DO?$AA@ 004e778c     TSReader.obj
 0002:0000c794       ??_C@_07OKHN@?5?$DM?1STT?$DO?$AA@ 004e7794     TSReader.obj
 0002:0000c79c       ??_C@_0CK@OMC@?5?5?$DMDAYLIGHT?9SAVINGS?$DO?$CFd?$DM?1DAYLIGHT@ 004e779c     TSReader.obj
 0002:0000c7c8       ??_C@_0BO@HPPA@?5?5?$DMGPS?9OFFSET?$DO?$CFd?$DM?1GPS?9OFFSET?$DO?$AA@ 004e77c8     TSReader.obj
 0002:0000c7e8       ??_C@_06HLHA@?5?$DMSTT?$DO?$AA@ 004e77e8     TSReader.obj
 0002:0000c7f0       ??_C@_07FHCH@?5?$DM?1TOT?$DO?$AA@ 004e77f0     TSReader.obj
 0002:0000c7f8       ??_C@_06MGCK@?5?$DMTOT?$DO?$AA@ 004e77f8     TSReader.obj
 0002:0000c800       ??_C@_07DBKJ@?5?$DM?1TDT?$DO?$AA@ 004e7800     TSReader.obj
 0002:0000c808       ??_C@_0BG@GLIP@?5?5?$DMSECOND?$DO?$CFd?$DM?1SECOND?$DO?$AA@ 004e7808     TSReader.obj
 0002:0000c820       ??_C@_0BG@EMJ@?5?5?$DMMINUTE?$DO?$CFd?$DM?1MINUTE?$DO?$AA@ 004e7820     TSReader.obj
 0002:0000c838       ??_C@_0BC@HAAE@?5?5?$DMHOUR?$DO?$CFd?$DM?1HOUR?$DO?$AA@ 004e7838     TSReader.obj
 0002:0000c84c       ??_C@_0BA@NFBC@?5?5?$DMDAY?$DO?$CFd?$DM?1DAY?$DO?$AA@ 004e784c     TSReader.obj
 0002:0000c85c       ??_C@_0BE@IENA@?5?5?$DMMONTH?$DO?$CFd?$DM?1MONTH?$DO?$AA@ 004e785c     TSReader.obj
 0002:0000c870       ??_C@_0BC@DOIB@?5?5?$DMYEAR?$DO?$CFd?$DM?1YEAR?$DO?$AA@ 004e7870     TSReader.obj
 0002:0000c884       ??_C@_06KAKE@?5?$DMTDT?$DO?$AA@ 004e7884     TSReader.obj
 0002:0000c88c       ??_C@_08ONBD@?5?$DM?1TVCT?$DO?$AA@ 004e788c     TSReader.obj
 0002:0000c898       ??_C@_0N@KBGG@?5?5?$DM?1CHANNEL?$DO?$AA@ 004e7898     TSReader.obj
 0002:0000c8a8       ??_C@_0CN@HEFK@?5?5?5?$DMCARRIER?9FREQUENCY?$DO?$CFd?$DM?1CARRIE@ 004e78a8     TSReader.obj
 0002:0000c8d8       ??_C@_0BN@DPGN@?5?5?5?$DMSOURCE?9ID?$DO?$CFd?$DM?1SOURCE?9ID?$DO?$AA@ 004e78d8     TSReader.obj
 0002:0000c8f8       ??_C@_0CF@GIBE@?5?5?5?$DMMINOR?9CHANNEL?$DO?$CFd?$DM?1MINOR?9CHAN@ 004e78f8     TSReader.obj
 0002:0000c920       ??_C@_0CF@OANJ@?5?5?5?$DMMAJOR?9CHANNEL?$DO?$CFd?$DM?1MAJOR?9CHAN@ 004e7920     TSReader.obj
 0002:0000c948       ??_C@_0BH@KECH@?5?5?5?$DMLOCALE?$DO?$CFs?$DM?1LOCALE?$DO?$AA@ 004e7948     TSReader.obj
 0002:0000c960       ??_C@_0CD@NBPD@?5?5?5?$DMATSC?9CHANNEL?$DO?$CFd?$DM?1ATSC?9CHANNE@ 004e7960     TSReader.obj
 0002:0000c984       ??_C@_0CD@NPOF@?5?5?5?$DMNTSC?9CHANNEL?$DO?$CFd?$DM?1NTSC?9CHANNE@ 004e7984     TSReader.obj
 0002:0000c9a8       ??_C@_0BD@MMBE@?5?5?5?$DMTSID?$DO?$CFd?$DM?1TSID?$DO?$AA@ 004e79a8     TSReader.obj
 0002:0000c9bc       ??_C@_0BJ@JFJD@?5?5?5?$DMPROGRAM?$DO?$CFd?$DM?1PROGRAM?$DO?$AA@ 004e79bc     TSReader.obj
 0002:0000c9d8       ??_C@_0M@MDFC@?5?5?$DMCHANNEL?$DO?$AA@ 004e79d8     TSReader.obj
 0002:0000c9e4       ??_C@_07CLIC@?5?$DMTVCT?$DO?$AA@ 004e79e4     TSReader.obj
 0002:0000c9ec       ??_C@_07IOEF@?5?$DM?1NIT?$DO?$AA@ 004e79ec     TSReader.obj
 0002:0000c9f4       ??_C@_0O@LFJB@?5?$DM?1NIT?9ENTRY?$DO?$AA@ 004e79f4     TSReader.obj
 0002:0000ca04       ??_C@_0BE@MFOG@?5?5?$DM?1TS?9DESCRIPTORS?$DO?$AA@ 004e7a04     TSReader.obj
 0002:0000ca18       ??_C@_0BD@EKKA@?5?5?$DMTS?9DESCRIPTORS?$DO?$AA@ 004e7a18     TSReader.obj
 0002:0000ca2c       ??_C@_0CF@ONNH@?5?5?5?$DMINNER?9FEC?9RAW?$DO?$CFd?$DM?1INNER?9FEC?9@ 004e7a2c     TSReader.obj
 0002:0000ca54       ??_C@_0BN@KPAD@?5?5?5?$DMINNER?9FEC?$DO?$CFs?$DM?1INNER?9FEC?$DO?$AA@ 004e7a54     TSReader.obj
 0002:0000ca74       ??_C@_0CF@JIHO@?5?5?5?$DMOUTER?9FEC?9RAW?$DO?$CFd?$DM?1OUTER?9FEC?9@ 004e7a74     TSReader.obj
 0002:0000ca9c       ??_C@_0BN@NKJ@?5?5?5?$DMOUTER?9FEC?$DO?$CFs?$DM?1OUTER?9FEC?$DO?$AA@ 004e7a9c     TSReader.obj
 0002:0000cabc       ??_C@_0CG@EAJN@?5?5?5?$DMNETWORK?9TYPE?$DODVB?9C?$DM?1NETWORK?9@ 004e7abc     TSReader.obj
 0002:0000cae4       ??_C@_0DD@PLEF@?5?5?5?$DMOTHER?9FREQUENCY?9FLAG?$DO?$CFd?$DM?1OTH@ 004e7ae4     TSReader.obj
 0002:0000cb18       ??_C@_0DF@FJOC@?5?5?5?$DMTRANSMISSION?9MODE?9RAW?$DO?$CFd?$DM?1TR@ 004e7b18     TSReader.obj
 0002:0000cb50       ??_C@_0CN@JCBP@?5?5?5?$DMTRANSMISSION?9MODE?$DO?$CFs?$DM?1TRANSM@ 004e7b50     TSReader.obj
 0002:0000cb80       ??_C@_0CP@JHEH@?5?5?5?$DMGUARD?9INTERVAL?9RAW?$DO?$CFd?$DM?1GUARD@ 004e7b80     TSReader.obj
 0002:0000cbb0       ??_C@_0CH@COIK@?5?5?5?$DMGUARD?9INTERVAL?$DO?$CFs?$DM?1GUARD?9INT@ 004e7bb0     TSReader.obj
 0002:0000cbd8       ??_C@_0BP@PHFN@?5?5?5?$DMFEC?9LP?9RAW?$DO?$CFd?$DM?1FEC?9LP?9RAW?$DO?$AA@ 004e7bd8     TSReader.obj
 0002:0000cbf8       ??_C@_0BH@EAML@?5?5?5?$DMFEC?9LP?$DO?$CFs?$DM?1FEC?9LP?$DO?$AA@ 004e7bf8     TSReader.obj
 0002:0000cc10       ??_C@_0BP@CHEK@?5?5?5?$DMFEC?9HP?9RAW?$DO?$CFd?$DM?1FEC?9HP?9RAW?$DO?$AA@ 004e7c10     TSReader.obj
 0002:0000cc30       ??_C@_0BH@IJNE@?5?5?5?$DMFEC?9HP?$DO?$CFs?$DM?1FEC?9HP?$DO?$AA@ 004e7c30     TSReader.obj
 0002:0000cc48       ??_C@_0DN@NKDP@?5?5?5?$DMHIERARCHY?9INFORMATION?9RAW?$DO?$CFd@ 004e7c48     TSReader.obj
 0002:0000cc88       ??_C@_0DF@JMFD@?5?5?5?$DMHIERARCHY?9INFORMATION?$DO?$CFs?$DM?1HI@ 004e7c88     TSReader.obj
 0002:0000ccc0       ??_C@_0CL@MKNG@?5?5?5?$DMCONSTELATION?9RAW?$DO?$CFd?$DM?1CONSTEL@ 004e7cc0     TSReader.obj
 0002:0000ccec       ??_C@_0CD@CFIG@?5?5?5?$DMCONSTELATION?$DO?$CFs?$DM?1CONSTELATIO@ 004e7cec     TSReader.obj
 0002:0000cd10       ??_C@_0CF@COG@?5?5?5?$DMBANDWIDTH?9RAW?$DO?$CFd?$DM?1BANDWIDTH?9@ 004e7d10     TSReader.obj
 0002:0000cd38       ??_C@_0BN@MMPO@?5?5?5?$DMBANDWIDTH?$DO?$CFs?$DM?1BANDWIDTH?$DO?$AA@ 004e7d38     TSReader.obj
 0002:0000cd58       ??_C@_0CG@LJPK@?5?5?5?$DMNETWORK?9TYPE?$DODVB?9T?$DM?1NETWORK?9@ 004e7d58     TSReader.obj
 0002:0000cd80       ??_C@_0CF@GJPG@?5?5?5?$DMCODE?9RATE?9RAW?$DO?$CFd?$DM?1CODE?9RATE?9@ 004e7d80     TSReader.obj
 0002:0000cda8       ??_C@_0BN@GCPF@?5?5?5?$DMCODE?9RATE?$DO?$CFs?$DM?1CODE?9RATE?$DO?$AA@ 004e7da8     TSReader.obj
 0002:0000cdc8       ??_C@_0CJ@CFLL@?5?5?5?$DMRAW?9SYMBOL?9RATE?$DO?$CFd?$DM?1RAW?9SYMB@ 004e7dc8     TSReader.obj
 0002:0000cdf4       ??_C@_0CB@PMDC@?5?5?5?$DMSYMBOL?9RATE?$DO?$CFd?$DM?1SYMBOL?9RATE?$DO@ 004e7df4     TSReader.obj
 0002:0000ce18       ??_C@_0CH@JJDC@?5?5?5?$DMMODULATION?9RAW?$DO?$CFd?$DM?1MODULATIO@ 004e7e18     TSReader.obj
 0002:0000ce40       ??_C@_0BP@EJHG@?5?5?5?$DMMODULATION?$DO?$CFs?$DM?1MODULATION?$DO?$AA@ 004e7e40     TSReader.obj
 0002:0000ce60       ??_C@_0CD@GALJ@?5?5?5?$DMPOLARITY?9RAW?$DO?$CFd?$DM?1POLARITY?9RA@ 004e7e60     TSReader.obj
 0002:0000ce84       ??_C@_0BL@MLDN@?5?5?5?$DMPOLARITY?$DO?$CFs?$DM?1POLARITY?$DO?$AA@ 004e7e84     TSReader.obj
 0002:0000cea0       ??_C@_0DD@BBEN@?5?5?5?$DMORBITAL?9POSITION?9RAW?$DO?$CFd?$DM?1ORB@ 004e7ea0     TSReader.obj
 0002:0000ced4       ??_C@_0CL@KFGN@?5?5?5?$DMORBITAL?9POSITION?$DO?$CFs?$DM?1ORBITAL@ 004e7ed4     TSReader.obj
 0002:0000cf00       ??_C@_0CH@IIFK@?5?5?5?$DMEAST?9WEST?9FLAG?$DO?$CFd?$DM?1EAST?9WEST@ 004e7f00     TSReader.obj
 0002:0000cf28       ??_C@_07KOPA@?$CF3?41f?5W?$AA@ 004e7f28     TSReader.obj
 0002:0000cf30       ??_C@_07FCKO@?$CF3?41f?5E?$AA@ 004e7f30     TSReader.obj
 0002:0000cf38       ??_C@_0CG@LDNO@?5?5?5?$DMRAW?9FREQUENCY?$DO?$CFlu?$DM?1RAW?9FREQU@ 004e7f38     TSReader.obj
 0002:0000cf60       ??_C@_0BN@NIKE@?5?5?5?$DMFREQUENCY?$DO?$CFs?$DM?1FREQUENCY?$DO?$AA@ 004e7f60     TSReader.obj
 0002:0000cf80       ??_C@_05MPII@?$CF5?42f?$AA@ 004e7f80     TSReader.obj
 0002:0000cf88       ??_C@_0CG@FMLH@?5?5?5?$DMNETWORK?9TYPE?$DODVB?9S?$DM?1NETWORK?9@ 004e7f88     TSReader.obj
 0002:0000cfb0       ??_C@_0BJ@MPMB@?5?5?$DM?1NETWORK?9DESCRIPTORS?$DO?$AA@ 004e7fb0     TSReader.obj
 0002:0000cfcc       ??_C@_0BI@DAIG@?5?5?$DMNETWORK?9DESCRIPTORS?$DO?$AA@ 004e7fcc     TSReader.obj
 0002:0000cfe4       ??_C@_0CD@HMFA@?5?5?5?$DMNETWORK?9NAME?$DO?$CFs?$DM?1NETWORK?9NAM@ 004e7fe4     TSReader.obj
 0002:0000d008       ??_C@_0DH@JIBL@?5?5?5?$DMTHIS?9NETWORK?9INDICATOR?$DO?$CFd?$DM?1T@ 004e8008     TSReader.obj
 0002:0000d040       ??_C@_0BP@PBLH@?5?5?5?$DMNETWORK?9ID?$DO?$CFd?$DM?1NETWORK?9ID?$DO?$AA@ 004e8040     TSReader.obj
 0002:0000d060       ??_C@_0N@JBG@?5?$DMNIT?9ENTRY?$DO?$AA@ 004e8060     TSReader.obj
 0002:0000d070       ??_C@_0BI@NLCE@?5?5?$DMNIT?9PID?$DO16?$DM?1NIT?9PID?$DO?$AA@ 004e8070     TSReader.obj
 0002:0000d088       ??_C@_06BPEI@?5?$DMNIT?$DO?$AA@ 004e8088     TSReader.obj
 0002:0000d090       ??_C@_07KBCI@?5?$DM?1BAT?$DO?$AA@ 004e8090     TSReader.obj
 0002:0000d098       ??_C@_0P@OMOG@?5?5?$DM?1BAT?9ENTRY?$DO?$AA@ 004e8098     TSReader.obj
 0002:0000d0a8       ??_C@_0BL@OCIG@?5?5?5?$DM?1BAT?9TRANSPORT?9STREAM?$DO?$AA@ 004e80a8     TSReader.obj
 0002:0000d0c4       ??_C@_0BD@NHFM@?5?5?5?$DM?1SERVICE?9LIST?$DO?$AA@ 004e80c4     TSReader.obj
 0002:0000d0d8       ??_C@_0BB@MLJB@?5?5?5?5?5?$DMID?$DO?$CFd?$DM?1ID?$DO?$AA@ 004e80d8     TSReader.obj
 0002:0000d0ec       ??_C@_0BC@LJLL@?5?5?5?$DMSERVICE?9LIST?$DO?$AA@ 004e80ec     TSReader.obj
 0002:0000d100       ??_C@_0DC@JKEK@?5?5?5?5?$DMORIGINAL?9NETWORK?9ID?$DO?$CFd?$DM?1ORI@ 004e8100     TSReader.obj
 0002:0000d134       ??_C@_0DC@IOI@?5?5?5?5?$DMTRANSPORT?9STREAM?9ID?$DO?$CFd?$DM?1TRA@ 004e8134     TSReader.obj
 0002:0000d168       ??_C@_0BK@CDPH@?5?5?5?$DMBAT?9TRANSPORT?9STREAM?$DO?$AA@ 004e8168     TSReader.obj
 0002:0000d184       ??_C@_0BP@FHEN@?5?5?5?$DMBOUQUET?9ID?$DO?$CFd?$DM?1BOUQUET?9ID?$DO?$AA@ 004e8184     TSReader.obj
 0002:0000d1a4       ??_C@_0O@HHPB@?5?5?$DMBAT?9ENTRY?$DO?$AA@ 004e81a4     TSReader.obj
 0002:0000d1b4       ??_C@_0BI@MEGP@?5?5?$DMBAT?9PID?$DO17?$DM?1BAT?9PID?$DO?$AA@ 004e81b4     TSReader.obj
 0002:0000d1cc       ??_C@_06DACF@?5?$DMBAT?$DO?$AA@ 004e81cc     TSReader.obj
 0002:0000d1d4       ??_C@_07MLBH@?5?$DM?1SDT?$DO?$AA@ 004e81d4     TSReader.obj
 0002:0000d1dc       ??_C@_0P@FEGI@?5?5?$DM?1SDT?9ENTRY?$DO?$AA@ 004e81dc     TSReader.obj
 0002:0000d1ec       ??_C@_0DJ@LEJA@?5?5?5?$DMACTUAL?9TRANSPORT?9STREAM?$DO?$CFd?$DM?1@ 004e81ec     TSReader.obj
 0002:0000d228       ??_C@_0DB@MPOJ@?5?5?5?$DMORIGINAL?9NETWORK?9ID?$DO?$CFd?$DM?1ORIG@ 004e8228     TSReader.obj
 0002:0000d25c       ??_C@_0DB@FNEL@?5?5?5?$DMTRANSPORT?9STREAM?9ID?$DO?$CFd?$DM?1TRAN@ 004e825c     TSReader.obj
 0002:0000d290       ??_C@_0BP@EHHD@?5?5?5?$DMSERVICE?9ID?$DO?$CFd?$DM?1SERVICE?9ID?$DO?$AA@ 004e8290     TSReader.obj
 0002:0000d2b0       ??_C@_0O@MPHP@?5?5?$DMSDT?9ENTRY?$DO?$AA@ 004e82b0     TSReader.obj
 0002:0000d2c0       ??_C@_0BI@OADG@?5?5?$DMSDT?9PID?$DO17?$DM?1SDT?9PID?$DO?$AA@ 004e82c0     TSReader.obj
 0002:0000d2d8       ??_C@_06FKBK@?5?$DMSDT?$DO?$AA@ 004e82d8     TSReader.obj
 0002:0000d2e0       ??_C@_07IEHK@?5?$DM?1CAT?$DO?$AA@ 004e82e0     TSReader.obj
 0002:0000d2e8       ??_C@_0P@GDCE@?5?5?$DM?1CAT?9ENTRY?$DO?$AA@ 004e82e8     TSReader.obj
 0002:0000d2f8       ??_C@_0BD@BKGL@?5?5?5?$DMNAME?$DO?$CFs?$DM?1NAME?$DO?$AA@ 004e82f8     TSReader.obj
 0002:0000d30c       ??_C@_0O@PIDD@?5?5?$DMCAT?9ENTRY?$DO?$AA@ 004e830c     TSReader.obj
 0002:0000d31c       ??_C@_06BFHH@?5?$DMCAT?$DO?$AA@ 004e831c     TSReader.obj
 0002:0000d324       ??_C@_08FGMN@?5?$DM?1PMTs?$DO?$AA@ 004e8324     TSReader.obj
 0002:0000d330       ??_C@_0BA@NKDM@?5?5?$DM?1DESCRIPTOR?$DO?$AA@ 004e8330     TSReader.obj
 0002:0000d340       ??_C@_0BE@BENG@?5?5?5?5?$DMDATA?$DO?$CFs?$DM?1DATA?$DO?$AA@ 004e8340     TSReader.obj
 0002:0000d354       ??_C@_0BI@EKNL@?5?5?5?5?$DMLENGTH?$DO?$CFd?$DM?1LENGTH?$DO?$AA@ 004e8354     TSReader.obj
 0002:0000d36c       ??_C@_0BG@CKH@?5?5?5?5?$DMTAG?$DO0x?$CF02x?$DM?1TAG?$DO?$AA@ 004e836c     TSReader.obj
 0002:0000d384       ??_C@_0P@DOKH@?5?5?$DMDESCRIPTOR?$DO?$AA@ 004e8384     TSReader.obj
 0002:0000d394       ??_C@_0BH@GAK@?5?5?$DM?1ELEMENTARY?9STREAM?$DO?$AA@ 004e8394     TSReader.obj
 0002:0000d3ac       ??_C@_0BB@OCGI@?5?5?5?$DM?1DESCRIPTOR?$DO?$AA@ 004e83ac     TSReader.obj
 0002:0000d3c0       ??_C@_0BA@GKKN@?5?5?5?$DMDESCRIPTOR?$DO?$AA@ 004e83c0     TSReader.obj
 0002:0000d3d0       ??_C@_0BB@CBOG@?5?5?5?$DMPID?$DO?$CFd?$DM?1PID?$DO?$AA@ 004e83d0     TSReader.obj
 0002:0000d3e4       ??_C@_0CB@IINH@?5?5?5?$DMSTREAM?9TYPE?$DO?$CFd?$DM?1STREAM?9TYPE?$DO@ 004e83e4     TSReader.obj
 0002:0000d408       ??_C@_0CB@MEGJ@?5?5?5?$DMAUDIO?9TYPE?$DOMPEG?$DM?1AUDIO?9TYPE?$DO@ 004e8408     TSReader.obj
 0002:0000d42c       ??_C@_0CA@HINJ@?5?5?5?$DMAUDIO?9TYPE?$DOPCM?$DM?1AUDIO?9TYPE?$DO?$AA@ 004e842c     TSReader.obj
 0002:0000d44c       ??_C@_0CA@ECOH@?5?5?5?$DMAUDIO?9TYPE?$DODTS?$DM?1AUDIO?9TYPE?$DO?$AA@ 004e844c     TSReader.obj
 0002:0000d46c       ??_C@_0CA@JNDN@?5?5?5?$DMAUDIO?9TYPE?$DOAC3?$DM?1AUDIO?9TYPE?$DO?$AA@ 004e846c     TSReader.obj
 0002:0000d48c       ??_C@_0CH@LKBO@?5?5?5?$DMAUDIO?9LANGUAGE?$DO?$CFs?$DM?1AUDIO?9LAN@ 004e848c     TSReader.obj
 0002:0000d4b4       ??_C@_0CE@NGKF@?5?5?5?$DMSTREAM?9TYPE?$DOAUDIO?$DM?1STREAM?9TY@ 004e84b4     TSReader.obj
 0002:0000d4d8       ??_C@_0CH@JNHI@?5?5?5?$DMSTREAM?9TYPE?$DOTELETEXT?$DM?1STREAM@ 004e84d8     TSReader.obj
 0002:0000d500       ??_C@_0CE@ODLP@?5?5?5?$DMSTREAM?9TYPE?$DOVIDEO?$DM?1STREAM?9TY@ 004e8500     TSReader.obj
 0002:0000d524       ??_C@_0CJ@GEAM@?5?5?5?$DMSTREAM?9TYPE?9RAW?$DO?$CFd?$DM?1STREAM?9T@ 004e8524     TSReader.obj
 0002:0000d550       ??_C@_0BN@BPLI@?5?5?5?$DMSCRAMBLED?$DO?$CFd?$DM?1SCRAMBLED?$DO?$AA@ 004e8550     TSReader.obj
 0002:0000d570       ??_C@_0BF@OKMO@?5?5?5?$DMINDEX?$DO?$CFd?$DM?1INDEX?$DO?$AA@ 004e8570     TSReader.obj
 0002:0000d588       ??_C@_0BG@JIIK@?5?5?$DMELEMENTARY?9STREAM?$DO?$AA@ 004e8588     TSReader.obj
 0002:0000d5a0       ??_C@_0BG@NNGM@?5?5?5?$DM?1SDT?9DESCRIPTORS?$DO?$AA@ 004e85a0     TSReader.obj
 0002:0000d5b8       ??_C@_0BC@GGFA@?5?5?5?5?$DM?1DESCRIPTOR?$DO?$AA@ 004e85b8     TSReader.obj
 0002:0000d5cc       ??_C@_0BF@GLBE@?5?5?5?5?5?$DMDATA?$DO?$CFs?$DM?1DATA?$DO?$AA@ 004e85cc     TSReader.obj
 0002:0000d5e4       ??_C@_0BJ@BGKA@?5?5?5?5?5?$DMLENGTH?$DO?$CFd?$DM?1LENGTH?$DO?$AA@ 004e85e4     TSReader.obj
 0002:0000d600       ??_C@_0BH@FAKP@?5?5?5?5?5?$DMTAG?$DO0x?$CF02x?$DM?1TAG?$DO?$AA@ 004e8600     TSReader.obj
 0002:0000d618       ??_C@_0BB@FCPJ@?5?5?5?5?$DMDESCRIPTOR?$DO?$AA@ 004e8618     TSReader.obj
 0002:0000d62c       ??_C@_0P@LGNL@?5?5?5?5?$DM?1SERVICE?$DO?$AA@ 004e862c     TSReader.obj
 0002:0000d63c       ??_C@_0BN@FDPI@?5?5?5?5?5?$DMTYPE?9RAW?$DO?$CFd?$DM?1TYPE?9RAW?$DO?$AA@ 004e863c     TSReader.obj
 0002:0000d65c       ??_C@_0BF@IBDC@?5?5?5?5?5?$DMTYPE?$DO?$CFs?$DM?1TYPE?$DO?$AA@ 004e865c     TSReader.obj
 0002:0000d674       ??_C@_0O@GDJD@?5?5?5?5?$DMSERVICE?$DO?$AA@ 004e8674     TSReader.obj
 0002:0000d684       ??_C@_0BF@CMFO@?5?5?5?$DMSDT?9DESCRIPTORS?$DO?$AA@ 004e8684     TSReader.obj
 0002:0000d69c       ??_C@_0CD@LNOL@?5?5?5?$DMFREE?9CA?9MODE?$DO?$CFd?$DM?1FREE?9CA?9MOD@ 004e869c     TSReader.obj
 0002:0000d6c0       ??_C@_0DF@GODO@?5?5?5?$DMEIT?9PRESENT?9FOLLOWING?$DO?$CFd?$DM?1EI@ 004e86c0     TSReader.obj
 0002:0000d6f8       ??_C@_0CD@NBCP@?5?5?5?$DMEIT?9SCHEDULE?$DO?$CFd?$DM?1EIT?9SCHEDUL@ 004e86f8     TSReader.obj
 0002:0000d71c       ??_C@_0CH@CIDD@?5?5?5?$DMRUNNING?9STATUS?$DO?$CFd?$DM?1RUNNING?9S@ 004e871c     TSReader.obj
 0002:0000d744       ??_C@_0BN@ILIN@?5?5?5?$DMLONG?9NAME?$DO?$CFs?$DM?1LONG?9NAME?$DO?$AA@ 004e8744     TSReader.obj
 0002:0000d764       ??_C@_0BP@PFFK@?5?5?5?$DMSHORT?9NAME?$DO?$CFs?$DM?1SHORT?9NAME?$DO?$AA@ 004e8764     TSReader.obj
 0002:0000d784       ??_C@_0BJ@MPNL@?5?5?5?$DMPCR?9PID?$DO?$CFd?$DM?1PCR?9PID?$DO?$AA@ 004e8784     TSReader.obj
 0002:0000d7a0       ??_C@_0BJ@KJCA@?5?5?5?$DMPMT?9PID?$DO?$CFd?$DM?1PMT?9PID?$DO?$AA@ 004e87a0     TSReader.obj
 0002:0000d7bc       ??_C@_0BB@IBCH@?5?5?5?$DMLCN?$DO?$CFd?$DM?1LCN?$DO?$AA@ 004e87bc     TSReader.obj
 0002:0000d7d0       ??_C@_0BJ@FNHJ@?5?5?5?$DMVERSION?$DO?$CFd?$DM?1VERSION?$DO?$AA@ 004e87d0     TSReader.obj
 0002:0000d7ec       ??_C@_0CH@LECP@?5?5?5?$DMSERVICE?9NUMBER?$DO?$CFd?$DM?1SERVICE?9N@ 004e87ec     TSReader.obj
 0002:0000d814       ??_C@_0L@JCKK@?5?$DMCHANNEL?$DO?$AA@ 004e8814     TSReader.obj
 0002:0000d820       ??_C@_0CA@JBPJ@?5?5?$DMSDT?9VERSION?$DO?$CFd?$DM?1SDT?9VERSION?$DO?$AA@ 004e8820     TSReader.obj
 0002:0000d840       ??_C@_0CG@OJHA@?5?5?$DMSDT?9CRC?9ERRORS?$DO?$CFd?$DM?1SDT?9CRC?9ER@ 004e8840     TSReader.obj
 0002:0000d868       ??_C@_07JAFM@?5?$DMPMTs?$DO?$AA@ 004e8868     TSReader.obj
 0002:0000d870       ??_C@_07LOKN@?5?$DM?1PAT?$DO?$AA@ 004e8870     TSReader.obj
 0002:0000d878       ??_C@_0CA@EGIF@?5?5?$DMNETWORK?9PID?$DO?$CFd?$DM?1NETWORK?9PID?$DO?$AA@ 004e8878     TSReader.obj
 0002:0000d898       ??_C@_0CI@KLBN@?5?5?$DMSERVICE?9NUMBERS?$DO?$CFs?$DM?1SERVICE?9N@ 004e8898     TSReader.obj
 0002:0000d8c0       ??_C@_03NBMA@?$CFd?0?$AA@  004e88c0     TSReader.obj
 0002:0000d8c4       ??_C@_0DA@POLE@?5?5?$DMTRANSPORT?9STREAM?9ID?$DO?$CFd?$DM?1TRANS@ 004e88c4     TSReader.obj
 0002:0000d8f4       ??_C@_0BO@DMIP@?5?5?$DMCRC?9ERRORS?$DO?$CFd?$DM?1CRC?9ERRORS?$DO?$AA@ 004e88f4     TSReader.obj
 0002:0000d914       ??_C@_0BI@BAC@?5?5?$DMVERSION?$DO?$CFd?$DM?1VERSION?$DO?$AA@ 004e8914     TSReader.obj
 0002:0000d92c       ??_C@_06CPKA@?5?$DMPAT?$DO?$AA@ 004e892c     TSReader.obj
 0002:0000d934       ??_C@_0BE@FGHP@?5?$DM?1TUNED?9MULTIPLEX?$DO?$AA@ 004e8934     TSReader.obj
 0002:0000d948       ??_C@_0BK@LPNC@?5?5?$DMPOLARITY?$DO?$CFd?$DM?1POLARITY?$DO?$AA@ 004e8948     TSReader.obj
 0002:0000d964       ??_C@_0CA@NEN@?5?5?$DMSYMBOL?9RATE?$DO?$CFd?$DM?1SYMBOL?9RATE?$DO?$AA@ 004e8964     TSReader.obj
 0002:0000d984       ??_C@_0BM@PICM@?5?5?$DMFREQUENCY?$DO?$CFd?$DM?1FREQUENCY?$DO?$AA@ 004e8984     TSReader.obj
 0002:0000d9a0       ??_C@_0CE@CCDA@?5?5?$DMLNB?9FREQUENCY?$DO?$CFd?$DM?1LNB?9FREQUEN@ 004e89a0     TSReader.obj
 0002:0000d9c4       ??_C@_0CC@OPJM@?5?5?$DMDISEQC?9INPUT?$DO?$CFd?$DM?1DISEQC?9INPUT@ 004e89c4     TSReader.obj
 0002:0000d9e8       ??_C@_0CC@LEMC@?5?5?$DMTONE?9ENABLED?$DO?$CFd?$DM?1TONE?9ENABLED@ 004e89e8     TSReader.obj
 0002:0000da0c       ??_C@_0BD@GNIM@?5?$DMTUNED?9MULTIPLEX?$DO?$AA@ 004e8a0c     TSReader.obj
 0002:0000da20       ??_C@_0N@INPP@?5?$DM?1TSREADER?$DO?$AA@ 004e8a20     TSReader.obj
 0002:0000da30       ??_C@_0BO@GBEP@?5?5?$DMEDITION?$DOSTANDARD?$DM?1EDITION?$DO?$AA@ 004e8a30     TSReader.obj
 0002:0000da50       ??_C@_0BI@DMFB@?5?5?$DMVERSION?$DO?$CFs?$DM?1VERSION?$DO?$AA@ 004e8a50     TSReader.obj
 0002:0000da68       ??_C@_0M@KHB@?5?$DMTSREADER?$DO?$AA@ 004e8a68     TSReader.obj
 0002:0000da74       ??_C@_0O@BNFJ@?$DMMPEG?9TABLES?$DO?$AA@ 004e8a74     TSReader.obj
 0002:0000da84       ??_C@_0L@KKLL@XML?5Export?$AA@ 004e8a84     TSReader.obj
 0002:0000da90       ??_C@_0BP@DNNA@Unable?5to?5open?5file?5for?5output?$AA@ 004e8a90     TSReader.obj
 0002:0000dab0       ??_C@_03PJMH@xml?$AA@      004e8ab0     TSReader.obj
 0002:0000dab4       ??_C@_0BL@HPCF@Export?5XMLTV?5Program?5Guide?$AA@ 004e8ab4     TSReader.obj
 0002:0000dad0       ??_C@_0BF@LNJP@Export?5Tables?5in?5XML?$AA@ 004e8ad0     TSReader.obj
 0002:0000dae8       ??_C@_0CO@OJHK@XML?5Files?5?$CI?$CK?4xml?$CJ?$AA?$CK?4xml?$AAAll?5File@ 004e8ae8     TSReader.obj
 0002:0000db18       ??_C@_05JJKG@?4xml?$AA?$AA@ 004e8b18     TSReader.obj
 0002:0000db20       ??_C@_07MKAF@?5?5?$DM?1TR?$DO?$AA@ 004e8b20     TSReader.obj
 0002:0000db28       ??_C@_0EJ@MGKL@?5?5?5?$DMTD?5WIDTH?$DN?$CC33?$CF?$CC?$DO?$CFs?$DM?1TD?$DO?$DMTD?5WI@ 004e8b28     TSReader.obj
 0002:0000db74       ??_C@_06KBIM@?5?5?$DMTR?$DO?$AA@ 004e8b74     TSReader.obj
 0002:0000db7c       ??_C@_07ICLA@?$DM?1HTML?$DO?$AA@ 004e8b7c     TSReader.obj
 0002:0000db84       ??_C@_07DHJN@?$DM?1BODY?$DO?$AA@ 004e8b84     TSReader.obj
 0002:0000db8c       ??_C@_08LBGF@?$DM?1TABLE?$DO?$AA@ 004e8b8c     TSReader.obj
 0002:0000db98       ??_C@_06BILB@?5?$DM?1TR?$DO?$AA@ 004e8b98     TSReader.obj
 0002:0000dba0       ??_C@_0EC@CFFO@?5?5?$DMTD?5WIDTH?$DN?$CC20?$CF?$CF?$CC?5HEIGHT?$DN?$CC1?$CC?$DO?$DMF@ 004e8ba0     TSReader.obj
 0002:0000dbe8       ??_C@_0IA@DGIM@?5?5?5?$DMTD?5WIDTH?$DN?$CC60?$CF?$CF?$CC?5HEIGHT?$DN?$CC1?$CC?$DO?$DM@ 004e8be8     TSReader.obj
 0002:0000dc68       ??_C@_0IA@IKEO@?5?5?5?$DMTD?5WIDTH?$DN?$CC60?$CF?$CF?$CC?5HEIGHT?$DN?$CC1?$CC?$DO?$DM@ 004e8c68     TSReader.obj
 0002:0000dce8       ??_C@_0EC@EKOO@?5?5?$DMTD?5WIDTH?$DN?$CC20?$CF?$CF?$CC?5HEIGHT?$DN?$CC1?$CC?$DO?$DMF@ 004e8ce8     TSReader.obj
 0002:0000dd2c       ??_C@_07HEL@?5?$CK?$CFd?1?$CFd?$AA@ 004e8d2c     TSReader.obj
 0002:0000dd34       ??_C@_05BFII@?5?$DMTR?$DO?$AA@ 004e8d34     TSReader.obj
 0002:0000dd40       ??_C@_0EB@KLBH@?$DMTABLE?5WIDTH?$DN?$CC100?$CF?$CC?5BORDER?$DN?$CC0?$CC?5C@ 004e8d40     TSReader.obj
 0002:0000dd84       ??_C@_0BJ@HBBI@?$DMH3?$DOPID?5Usage?5Chart?$DM?1H3?$DO?$AA@ 004e8d84     TSReader.obj
 0002:0000dda0       ??_C@_06EENP@?$CFs?$DMBR?$DO?$AA@ 004e8da0     TSReader.obj
 0002:0000dda8       ??_C@_0BN@BBJL@?$DMH3?$DOGeneral?5Information?$DM?1H3?$DO?$AA@ 004e8da8     TSReader.obj
 0002:0000ddc8       ??_C@_0CC@LKBM@Calculated?5multiplex?5rate?3?5?$CFs?$DMBR@ 004e8dc8     TSReader.obj
 0002:0000ddec       ??_C@_0BA@KEED@Retunes?3?5?$CFd?$DMBR?$DO?$AA@ 004e8dec     TSReader.obj
 0002:0000ddfc       ??_C@_0BE@JOBL@Sync?5Losses?3?5?$CFd?$DMBR?$DO?$AA@ 004e8dfc     TSReader.obj
 0002:0000de10       ??_C@_0BD@KODG@TEI?5errors?3?5?$CFd?$DMBR?$DO?$AA@ 004e8e10     TSReader.obj
 0002:0000de24       ??_C@_0BK@CPCI@Continuity?5errors?3?5?$CFd?$DMBR?$DO?$AA@ 004e8e24     TSReader.obj
 0002:0000de40       ??_C@_05NIJF@?5?$DMBR?$DO?$AA@ 004e8e40     TSReader.obj
 0002:0000de48       ??_C@_09PIGA@?5?$DM?1TABLE?$DO?$AA@ 004e8e48     TSReader.obj
 0002:0000de58       ??_C@_0HJ@JHIF@?5?5?5?$DMTD?5WIDTH?$DN?$CC33?$CF?$CC?$DO?$DMB?$DOTable?$DM?1B?$DO?$DM@ 004e8e58     TSReader.obj
 0002:0000ded4       ??_C@_0DE@HMLM@?5?$DMTABLE?5BORDER?$DN?$CC1?$CC?5CELLSPACING?$DN?$CC@ 004e8ed4     TSReader.obj
 0002:0000df08       ??_C@_0BL@LGIB@?$DMH3?$DOMPEG?92?5Statistics?$DM?1H3?$DO?$AA@ 004e8f08     TSReader.obj
 0002:0000df24       ??_C@_0BG@LBDH@?$DMA?5NAME?$DN?$CCeit_?$CFd?$CC?$DO?$DM?1A?$DO?$AA@ 004e8f24     TSReader.obj
 0002:0000df3c       ??_C@_0CB@HKJJ@?$DMH3?$DOEvent?5Information?5Table?$DM?1H3?$DO@ 004e8f3c     TSReader.obj
 0002:0000df60       ??_C@_0CL@COBK@?$DMH3?$DOTerrestrial?5Virtual?5Channel?5@ 004e8f60     TSReader.obj
 0002:0000df8c       ??_C@_0CD@KIIL@?$DMH3?$DOService?5Description?5Table?$DM?1H@ 004e8f8c     TSReader.obj
 0002:0000dfb0       ??_C@_0BA@BFCA@?$DMHR?5ALIGN?$DNLEFT?$DO?$AA@ 004e8fb0     TSReader.obj
 0002:0000dfc0       ??_C@_0CD@PKAE@?$DMH3?$DONetwork?5Information?5Table?$DM?1H@ 004e8fc0     TSReader.obj
 0002:0000dfe4       ??_C@_0P@JLIG@?$DMA?5NAME?$DN?$CCnit?$CC?$DO?$AA@ 004e8fe4     TSReader.obj
 0002:0000dff4       ??_C@_0CC@JABP@?$DMH3?$DOConditional?5Access?5Table?$DM?1H3@ 004e8ff4     TSReader.obj
 0002:0000e018       ??_C@_0CL@KJKK@?$AN?6Stream?5Type?3?50x?$CF02x?5?$CFs?5PID?5?$CFd?5@ 004e9018     TSReader.obj
 0002:0000e044       ??_C@_0BF@IHII@?$DMBR?$DO?$DMIMG?5SRC?$DN?$CC?$CFs?$CC?$DO?$AN?6?$AA@ 004e9044     TSReader.obj
 0002:0000e05c       ??_C@_0L@GBDB@_?$CFd_?$CFd?4jpg?$AA@ 004e905c     TSReader.obj
 0002:0000e068       ??_C@_0N@BKFL@?$DM?1FONT?5SIZE?$DO?$AA@ 004e9068     TSReader.obj
 0002:0000e078       ??_C@_0BD@HDCM@Descriptor?3?5?$CFs?$DMBR?$DO?$AA@ 004e9078     TSReader.obj
 0002:0000e08c       ??_C@_03HKGO@?5?$CFs?$AA@  004e908c     TSReader.obj
 0002:0000e090       ??_C@_0BK@BEOB@?5?$DMA?5HREF?$DN?$CC?$CDsdt_?$CFd?$CC?$DO?$CFs?$DM?1A?$DO?$AA@ 004e9090     TSReader.obj
 0002:0000e0ac       ??_C@_0CK@HINB@?$DMA?5NAME?$DN?$CCpmt_?$CFd?$CC?$DO?$DM?1A?$DOProgram?5Num@ 004e90ac     TSReader.obj
 0002:0000e0d8       ??_C@_0CP@ODM@Network?5PMT?5Entry?5?9?5carried?5on?5P@ 004e90d8     TSReader.obj
 0002:0000e108       ??_C@_0BN@GODL@?$DMHR?5ALIGN?$DNLEFT?5WIDTH?$DN?$CC100?$CF?$CC?$DO?$AA@ 004e9108     TSReader.obj
 0002:0000e128       ??_C@_0BO@EFID@?$DMH3?$DOProgram?5Map?5Table?$CIs?$CJ?$DM?1H3?$DO?$AA@ 004e9128     TSReader.obj
 0002:0000e148       ??_C@_0CD@IKEE@?$DMH3?$DOProgram?5Association?5Table?$DM?1H@ 004e9148     TSReader.obj
 0002:0000e16c       ??_C@_06CGGK@?$DMBODY?$DO?$AA@ 004e916c     TSReader.obj
 0002:0000e174       ??_C@_0CJ@OAB@?$DMTITLE?$DOSI?5Parsing?5by?5TSReader?5?$CFs@ 004e9174     TSReader.obj
 0002:0000e1a0       ??_C@_06JDEH@?$DMHTML?$DO?$AA@ 004e91a0     TSReader.obj
 0002:0000e1a8       ??_C@_03LLGN@htm?$AA@      004e91a8     TSReader.obj
 0002:0000e1ac       ??_C@_09OF@Export?5SI?$AA@ 004e91ac     TSReader.obj
 0002:0000e1b8       ??_C@_0CP@JCJP@HTML?5Files?5?$CI?$CK?4htm?$CJ?$AA?$CK?4htm?$AAAll?5Fil@ 004e91b8     TSReader.obj
 0002:0000e1e8       ??_C@_05DJOE@?4htm?$AA?$AA@ 004e91e8     TSReader.obj
 0002:0000e1f0       ??_C@_0CM@CBPM@TSReader?3?5Thumbnail?5decoder?5thre@ 004e91f0     TSReader.obj
 0002:0000e21c       ??_C@_0CO@GKPB@TSReader?3?5Thumbnail?5decoder?5thre@ 004e921c     TSReader.obj
 0002:0000e24c       ??_C@_0BD@MKPJ@Retuning?5to?5?$CFd?5MHz?$AA@ 004e924c     TSReader.obj
 0002:0000e260       ??_C@_03CLAG@?$DMP?$DO?$AA@ 004e9260     TSReader.obj
 0002:0000e264       ??_C@_04NMDP@?$DMBR?$DO?$AA@ 004e9264     TSReader.obj
 0002:0000e26c       ??_C@_05CLLK@?$CI?$CFs?$CJ?5?$AA@ 004e926c     TSReader.obj
 0002:0000e274       ??_C@_06HCJP@?$CIDTS?$CJ?5?$AA@ 004e9274     TSReader.obj
 0002:0000e27c       ??_C@_07COPM@?$CILPCM?$CJ?5?$AA@ 004e927c     TSReader.obj
 0002:0000e284       ??_C@_06DKMP@?$CIAC3?$CJ?5?$AA@ 004e9284     TSReader.obj
 0002:0000e28c       ??_C@_0P@NCPE@A?5?$CFd?5?$CI?$CF?43f?$CF?$CF?$CJ?5?$AA@ 004e928c     TSReader.obj
 0002:0000e29c       ??_C@_0P@LGFE@V?5?$CFd?5?$CI?$CF?43f?$CF?$CF?$CJ?5?$AA@ 004e929c     TSReader.obj
 0002:0000e2ac       ??_C@_0BE@JPND@ES?$CF02x?5?$CFd?5?$CI?$CF?43f?$CF?$CF?$CJ?5?$AA@ 004e92ac     TSReader.obj
 0002:0000e2c0       ??_C@_0BD@KHIJ@?$DMFONT?5COLOR?$DNGREEN?$DO?$AA@ 004e92c0     TSReader.obj
 0002:0000e2d4       ??_C@_0BB@BPEP@?$DMFONT?5COLOR?$DNRED?$DO?$AA@ 004e92d4     TSReader.obj
 0002:0000e2e8       ??_C@_07CABH@?$CFs?5?$CI?$CFs?$CJ?$AA@ 004e92e8     TSReader.obj
 0002:0000e2f0       ??_C@_04BEBG@?$CF5d?5?$AA@ 004e92f0     TSReader.obj
 0002:0000e2f8       ??_C@_0BO@NIBL@Waiting?5for?5PID?5percentage?4?4?4?$AA@ 004e92f8     TSReader.obj
 0002:0000e318       ??_C@_0CJ@LBCB@?$CF?43f?5GHz?5?$CFs?5?$CF5d?5?$CFs?5NID?5?$DN?5?$CFd?5TID?5@ 004e9318     TSReader.obj
 0002:0000e344       ??_C@_0CC@PPOJ@?$DMB?$DODVB?5Network?5Scan?5for?5?$CFs?$DM?1B?$DO?$DMP@ 004e9344     TSReader.obj
 0002:0000e368       ??_C@_0DD@GHKE@Failed?5to?5lock?5?$CF?43f?5GHz?5?$CFd?5?$CFs?5NI@ 004e9368     TSReader.obj
 0002:0000e39c       ??_C@_0CC@PGNP@This?5function?5is?5currently?5broke@ 004e939c     TSReader.obj
 0002:0000e3c0       ??_C@_0DA@JNBH@This?5function?5is?5only?5supported?5@ 004e93c0     TSReader.obj
 0002:0000e3f0       ??_C@_03NHMH@?$CFX?3?$AA@  004e93f0     TSReader.obj
 0002:0000e3f4       ??_C@_0P@OOCF@?$CFs?3?$CFd?4?$CFd?4?$CFd?4?$CFd?$AA@ 004e93f4     TSReader.obj
 0002:0000e404       ??_C@_01KGOM@T?$AA@        004e9404     TSReader.obj
 0002:0000e408       ??_C@_0CC@DAJ@MAC?5?$CF02x?3?$CF02x?3?$CF02x?3?$CF02x?3?$CF02x?3?$CF02@ 004e9408     TSReader.obj
 0002:0000e42c       ??_C@_06CBPD@PID?5?$CFs?$AA@ 004e942c     TSReader.obj
 0002:0000e434       ??_C@_0BB@FPEE@BAT?5PID?5?$CFs?5?$DM?$CF?$CFd?$DO?$AA@ 004e9434     TSReader.obj
 0002:0000e448       ??_C@_0N@GEI@BAT?5?$CFs?5?$CIv?$CFd?$CJ?$AA@ 004e9448     TSReader.obj
 0002:0000e458       ??_C@_0L@OFOE@BAT?5PID?5?$CFs?$AA@ 004e9458     TSReader.obj
 0002:0000e464       ??_C@_0N@LGI@CVCT?5TSID?5?$CFs?$AA@ 004e9464     TSReader.obj
 0002:0000e474       ??_C@_0M@DODJ@CVCT?5PID?5?$CFs?$AA@ 004e9474     TSReader.obj
 0002:0000e480       ??_C@_0L@LJAJ@MGT?5PID?5?$CFs?$AA@ 004e9480     TSReader.obj
 0002:0000e48c       ??_C@_0BA@PHDE@Sat?4?5?$CFd?5txp?4?5?$CFd?$AA@ 004e948c     TSReader.obj
 0002:0000e49c       ??_C@_0L@HJOI@STT?5PID?5?$CFs?$AA@ 004e949c     TSReader.obj
 0002:0000e4a8       ??_C@_0L@KGLM@TOT?5PID?5?$CFs?$AA@ 004e94a8     TSReader.obj
 0002:0000e4b4       ??_C@_0L@PCCF@TDT?5PID?5?$CFs?$AA@ 004e94b4     TSReader.obj
 0002:0000e4c0       ??_C@_0BO@LEEA@?$CF04d?1?$CF02d?1?$CF02d?5?$CF02d?3?$CF02d?3?$CF02d?$AA@ 004e94c0     TSReader.obj
 0002:0000e4e0       ??_C@_0P@JPEE@?$CFd?5?$EA?5?$CF?43f?5deg?5?$AA@ 004e94e0     TSReader.obj
 0002:0000e4f0       ??_C@_0L@IEED@SIT?5PID?5?$CFs?$AA@ 004e94f0     TSReader.obj
 0002:0000e4fc       ??_C@_0L@KBEO@CDT?5PID?5?$CFs?$AA@ 004e94fc     TSReader.obj
 0002:0000e508       ??_C@_09OPAM@Region?5?$CFd?$AA@ 004e9508     TSReader.obj
 0002:0000e514       ??_C@_0L@HLJK@RRT?5PID?5?$CFs?$AA@ 004e9514     TSReader.obj
 0002:0000e520       ??_C@_0L@CPNI@MMT?5PID?5?$CFs?$AA@ 004e9520     TSReader.obj
 0002:0000e52c       ??_C@_03DMDD@?5?9?5?$AA@   004e952c     TSReader.obj
 0002:0000e530       ??_C@_0L@GKCG@CAT?5PID?5?$CFs?$AA@ 004e9530     TSReader.obj
 0002:0000e53c       ??_C@_0BB@KPAL@EIT?5PID?5?$CFs?5?$DM?$CF?$CFd?$DO?$AA@ 004e953c     TSReader.obj
 0002:0000e550       ??_C@_07DDFH@EIT?1ETT?$AA@ 004e9550     TSReader.obj
 0002:0000e558       ??_C@_0L@FIOK@EIT?5PID?5?$CFs?$AA@ 004e9558     TSReader.obj
 0002:0000e564       ??_C@_0BB@KKIN@SDT?5PID?5?$CFs?5?$DM?$CF?$CFd?$DO?$AA@ 004e9564     TSReader.obj
 0002:0000e578       ??_C@_05DFPL@?$CFd?5?$CFs?$AA@ 004e9578     TSReader.obj
 0002:0000e580       ??_C@_0M@DGK@TVCT?5PID?5?$CFs?$AA@ 004e9580     TSReader.obj
 0002:0000e58c       ??_C@_0L@FNGK@SDT?5PID?5?$CFs?$AA@ 004e958c     TSReader.obj
 0002:0000e598       ??_C@_0BB@MDFJ@NIT?5PID?5?$CFs?5?$DM?$CF?$CFd?$DO?$AA@ 004e9598     TSReader.obj
 0002:0000e5ac       ??_C@_0N@GJBG@?$CFs?$CFs?5?$CF?43f?5?$CFs?$AA@ 004e95ac     TSReader.obj
 0002:0000e5bc       ??_C@_01PLJA@0?$AA@        004e95bc     TSReader.obj
 0002:0000e5c0       ??_C@_05CLJL@?$CF3?41f?$AA@ 004e95c0     TSReader.obj
 0002:0000e5c8       ??_C@_0L@LGLO@NIT?5PID?5?$CFs?$AA@ 004e95c8     TSReader.obj
 0002:0000e5d4       ??_C@_0L@DCDD@PCR?5PID?5?$CFs?$AA@ 004e95d4     TSReader.obj
 0002:0000e5e0       ??_C@_09PLBL@ES?5PID?5?$CFs?$AA@ 004e95e0     TSReader.obj
 0002:0000e5ec       ??_C@_07BDAL@VCT?3?5?$CFs?$AA@ 004e95ec     TSReader.obj
 0002:0000e5f4       ??_C@_07GPKI@SDT?3?5?$CFs?$AA@ 004e95f4     TSReader.obj
 0002:0000e5fc       ??_C@_0BF@PMHB@PMT?5PID?5?$CFs?5?9?5Network?$AA@ 004e95fc     TSReader.obj
 0002:0000e614       ??_C@_0BJ@JCJO@PMT?5PID?5?$CFs?5?9?5Program?5?$CF?$CFd?$AA@ 004e9614     TSReader.obj
 0002:0000e630       ??_C@_0L@GEE@PAT?5PID?5?$CFs?$AA@ 004e9630     TSReader.obj
 0002:0000e63c       ??_C@_0O@GEBK@Output?5Folder?$AA@ 004e963c     TSReader.obj
 0002:0000e64c       ??_C@_0BA@BNLO@Output?5Filename?$AA@ 004e964c     TSReader.obj
 0002:0000e65c       ??_C@_0O@GKCF@Record?5PID?$CIs?$CJ?$AA@ 004e965c     TSReader.obj
 0002:0000e66c       ??_C@_0CO@GAMI@Select?5output?5folder?5for?5recorde@ 004e966c     TSReader.obj
 0002:0000e6a0       ??_C@_0LI@NJKG@Warning?5?9?5PID?50x1ffe?5is?5already?5@ 004e96a0     TSReader.obj
 0002:0000e758       ??_C@_0MM@MPDL@This?5application?5is?5currently?5li@ 004e9758     TSReader.obj
 0002:0000e828       ??_C@_0NA@EBDJ@This?5application?5is?5currently?5li@ 004e9828     TSReader.obj
 0002:0000e8f8       ??_C@_0BH@BLID@Active?5antenna?5power?0?5?$AA@ 004e98f8     TSReader.obj
 0002:0000e910       ??_C@_0BD@INCO@Tunes?5by?5channel?0?5?$AA@ 004e9910     TSReader.obj
 0002:0000e924       ??_C@_0BB@LKKB@CI?9CAM?5support?0?5?$AA@ 004e9924     TSReader.obj
 0002:0000e938       ??_C@_0BF@HCOH@Multi?9card?5support?0?5?$AA@ 004e9938     TSReader.obj
 0002:0000e950       ??_C@_0BI@FPKG@Can?5timestamp?5packets?0?5?$AA@ 004e9950     TSReader.obj
 0002:0000e968       ??_C@_0BG@EMMK@Dish?5Network?5switch?0?5?$AA@ 004e9968     TSReader.obj
 0002:0000e980       ??_C@_0BI@FFIE@DiSEqC?51?42?5positioner?0?5?$AA@ 004e9980     TSReader.obj
 0002:0000e998       ??_C@_0P@DOEE@Uniprocessor?0?5?$AA@ 004e9998     TSReader.obj
 0002:0000e9a8       ??_C@_0BK@JONM@Serial?5receiver?5control?0?5?$AA@ 004e99a8     TSReader.obj
 0002:0000e9c4       ??_C@_0BB@DAPH@Supplies?5power?0?5?$AA@ 004e99c4     TSReader.obj
 0002:0000e9d8       ??_C@_0BD@OBOE@ToneBurst?5switch?0?5?$AA@ 004e99d8     TSReader.obj
 0002:0000e9ec       ??_C@_0BA@FPME@DiSEqC?5switch?0?5?$AA@ 004e99ec     TSReader.obj
 0002:0000e9fc       ??_C@_0BD@KNNF@?5Expires?5?$CF02d?1?$CF04d?$AA@ 004e99fc     TSReader.obj
 0002:0000ea10       ??_C@_0M@FMNF@Built?5?$CFs?5?$CFs?$AA@ 004e9a10     TSReader.obj
 0002:0000ea1c       ??_C@_0M@IAPC@Jan?530?52008?$AA@ 004e9a1c     TSReader.obj
 0002:0000ea28       ??_C@_08DNIK@17?307?327?$AA@ 004e9a28     TSReader.obj
 0002:0000ea34       ??_C@_0O@LEC@?$CFs?5version?5?$CFs?$AA@ 004e9a34     TSReader.obj
 0002:0000ea48       ??_C@_0MG@FKEF@Please?5contact?5Digital?5River?5to?5@ 004e9a48     TSReader.obj
 0002:0000eb10       ??_C@_0BL@BB@?$FLEnd?5of?5license?5agreement?$FN?$AA@ 004e9b10     TSReader.obj
 0002:0000eb30       ??_C@_0JKE@NMMO@IMPORTANT?4?5This?5license?5agreemen@ 004e9b30     TSReader.obj
 0002:0000f4d4       ??_C@_0BJ@BFMA@Shutdown?5stream?5decoder?6?$AA@ 004ea4d4     TSReader.obj
 0002:0000f4f0       ??_C@_0BL@OPHM@Unable?5to?5open?5output?5file?$AA@ 004ea4f0     TSReader.obj
 0002:0000f50c       ??_C@_06PPDD@?9?9?9?9?$AN?6?$AA@ 004ea50c     TSReader.obj
 0002:0000f514       ??_C@_07CEFA@?$CFd?0?$CFd?$AN?6?$AA@ 004ea514     TSReader.obj
 0002:0000f51c       ??_C@_03CAHF@tmc?$AA@      004ea51c     TSReader.obj
 0002:0000f520       ??_C@_0BF@HFBJ@Save?5Manual?5Channels?$AA@ 004ea520     TSReader.obj
 0002:0000f538       ??_C@_0DI@IJIG@Manual?5Channel?5Files?$CI?$CK?4tmc?$CJ?$AA?$CK?4tm@ 004ea538     TSReader.obj
 0002:0000f570       ??_C@_0EG@DEPM@Manual?5channels?5have?5not?5been?5sa@ 004ea570     TSReader.obj
 0002:0000f5b8       ??_C@_08OBII@?7Ctrl?$CL?$CFd?$AA@ 004ea5b8     TSReader.obj
 0002:0000f5c4       ??_C@_0M@JMF@Reading?5PAT?$AA@ 004ea5c4     TSReader.obj
 0002:0000f5d0       ??_C@_0BH@KDGI@No?5thumbnails?5exported?$AA@ 004ea5d0     TSReader.obj
 0002:0000f5e8       ??_C@_0BJ@PNNO@?$CFd?5Thumbnail?$CIs?$CJ?5exported?$AA@ 004ea5e8     TSReader.obj
 0002:0000f608       ??_C@_0FF@MBCH@TSReader?3?5Thumbnail?5v?9?$DOpat?4pmt?$FLn@ 004ea608     TSReader.obj
 0002:0000f660       ??_C@_0DP@LOPK@TSReader?3?5Thumbnail?5current?5file@ 004ea660     TSReader.obj
 0002:0000f6a0       ??_C@_06DOFD@_?$CFd?4?$CFs?$AA@ 004ea6a0     TSReader.obj
 0002:0000f6a8       ??_C@_0CC@PCEB@TSReader?3?5Thumbnail?5base?5file?5?$CFs@ 004ea6a8     TSReader.obj
 0002:0000f6cc       ??_C@_03EEHM@jpg?$AA@      004ea6cc     TSReader.obj
 0002:0000f6d0       ??_C@_0BC@LNCI@Export?5Thumbnails?$AA@ 004ea6d0     TSReader.obj
 0002:0000f6e4       ??_C@_0CO@FIAF@JPG?5Files?5?$CI?$CK?4jpg?$CJ?$AA?$CK?4jpg?$AAAll?5File@ 004ea6e4     TSReader.obj
 0002:0000f714       ??_C@_09KEEF@I?5CONFIRM?$AA@ 004ea714     TSReader.obj
 0002:0000f720       ??_C@_0CK@DGIK@Select?5output?5folder?5for?5recorde@ 004ea720     TSReader.obj
 0002:0000f74c       ??_C@_0BK@EDNK@PID?5List?5?9?5?$CFd?5PIDs?5active?$AA@ 004ea74c     TSReader.obj
 0002:0000f768       ??_C@_0EK@CIFL@You?5need?5to?5quit?5and?5launch?5TSRe@ 004ea768     TSReader.obj
 0002:0000f7b4       ??_C@_0BD@CPNG@TSReader_SkySeeker?$AA@ 004ea7b4     TSReader.obj
 0002:0000f7c8       ??_C@_0FB@MIPG@Too?5many?5source?5modules?4?5Please?5@ 004ea7c8     TSReader.obj
 0002:0000f81c       ??_C@_0M@HLIB@Courier?5New?$AA@ 004ea81c     TSReader.obj
 0002:0000f828       ??_C@_0M@DKEL@Description?$AA@ 004ea828     TSReader.obj
 0002:0000f834       ??_C@_04EFNI@Name?$AA@     004ea834     TSReader.obj
 0002:0000f83c       ??_C@_0L@BBD@PCR?5?$DN?5?$CF04x?$AA@ 004ea83c     TSReader.obj
 0002:0000f848       ??_C@_0N@OOAM@APID?5?$DN?5?$CF04x?5?$AA@ 004ea848     TSReader.obj
 0002:0000f858       ??_C@_0N@DBDB@VPID?5?$DN?5?$CF04x?5?$AA@ 004ea858     TSReader.obj
 0002:0000f868       ??_C@_0CD@FDLE@Select?5an?5ES?5entry?5to?5delete?5fir@ 004ea868     TSReader.obj
 0002:0000f88c       ??_C@_0DC@JBHF@Not?5enough?5room?5for?5this?5many?5el@ 004ea88c     TSReader.obj
 0002:0000f8c0       ??_C@_0BJ@PPGB@The?5ES?5Type?5is?5not?5valid?$AA@ 004ea8c0     TSReader.obj
 0002:0000f8dc       ??_C@_0BI@NBLB@The?5ES?5PID?5is?5not?5valid?$AA@ 004ea8dc     TSReader.obj
 0002:0000f8f4       ??_C@_0DG@COD@Set?5the?5ES?5type?5and?5ES?5PID?5befor@ 004ea8f4     TSReader.obj
 0002:0000f92c       ??_C@_0DE@CJJC@This?5program?5number?5already?5exis@ 004ea92c     TSReader.obj
 0002:0000f960       ??_C@_0CA@IBMA@The?5program?5number?5is?5not?5valid?$AA@ 004ea960     TSReader.obj
 0002:0000f980       ??_C@_0BJ@NAHO@The?5PCR?5PID?5is?5not?5valid?$AA@ 004ea980     TSReader.obj
 0002:0000f99c       ??_C@_02FLKI@81?$AA@       004ea99c     TSReader.obj
 0002:0000f9a0       ??_C@_02LLNC@03?$AA@       004ea9a0     TSReader.obj
 0002:0000f9a4       ??_C@_02BBEF@02?$AA@       004ea9a4     TSReader.obj
 0002:0000f9a8       ??_C@_0BB@BLKA@Stream?5PID?5?$CIdec?$CJ?$AA@ 004ea9a8     TSReader.obj
 0002:0000f9bc       ??_C@_0O@ODNF@PCR?5PID?5?$CIdec?$CJ?$AA@ 004ea9bc     TSReader.obj
 0002:0000f9cc       ??_C@_0L@CCPL@?$CF02x?3?5?$CF04x?$AA@ 004ea9cc     TSReader.obj
 0002:0000f9d8       ??_C@_08IEMD@?$CF02x?3?5?$CFd?$AA@ 004ea9d8     TSReader.obj
 0002:0000f9e4       ??_C@_0CK@DEHN@Please?5select?5the?5channel?5to?5del@ 004ea9e4     TSReader.obj
 0002:0000fa10       ??_C@_0CG@OEMA@Please?5select?5a?5channel?5to?5edit?5@ 004eaa10     TSReader.obj
 0002:0000fa38       ??_C@_07GAIE@Details?$AA@  004eaa38     TSReader.obj
 0002:0000fa40       ??_C@_09PFEH@Program?5?$CD?$AA@ 004eaa40     TSReader.obj
 0002:0000fa4c       ??_C@_0DD@FMOE@Program?5?$CFd?5already?5exists?5?9?5manu@ 004eaa4c     TSReader.obj
 0002:0000fa80       ??_C@_05BBIB@?$CFd?0?$CFd?$AA@ 004eaa80     TSReader.obj
 0002:0000fa88       ??_C@_0BK@HKDI@Unable?5to?5open?5input?5file?$AA@ 004eaa88     TSReader.obj
 0002:0000faa4       ??_C@_0BF@KIIO@Load?5Manual?5Channels?$AA@ 004eaaa4     TSReader.obj
 0002:0000fabc       ??_C@_0BO@DKCE@Hardware?2Devicemap?2Serialcomm?$AA@ 004eaabc     TSReader.obj
 0002:0000fadc       ??_C@_0BA@NBOG@GetReceiverName?$AA@ 004eaadc     TSReader.obj
 0002:0000faec       ??_C@_0CA@LKN@Please?5select?5a?5receiver?5to?5use?$AA@ 004eaaec     TSReader.obj
 0002:0000fb10       ??_C@_0EH@JOKO@You?5need?5to?5close?5and?5restart?5TS@ 004eab10     TSReader.obj
 0002:0000fb58       ??_C@_0CD@EFHB@Please?5select?5a?5serial?5port?5to?5u@ 004eab58     TSReader.obj
 0002:0000fb7c       ??_C@_03IKNC@exe?$AA@      004eab7c     TSReader.obj
 0002:0000fb80       ??_C@_0P@KKED@Locate?5VLC?4EXE?$AA@ 004eab80     TSReader.obj
 0002:0000fb90       ??_C@_0BM@LDLB@Executables?5?$CI?$CK?4exe?$CJ?$AA?$CK?4exe?$AA?$AA?$AA@ 004eab90     TSReader.obj
 0002:0000fbb0       ??_C@_0JP@GEDC@Warning?3?5One?5or?5more?5of?5the?5VLC?5@ 004eabb0     TSReader.obj
 0002:0000fc50       ??_C@_0CG@EDNH@C?3?2Program?5Files?2VideoLAN?2VLC?2vl@ 004eac50     TSReader.obj
 0002:0000fc78       ??_C@_0BB@FNBH@tooltips_class32?$AA@ 004eac78     TSReader.obj
 0002:0000fc8c       ??_C@_0BF@LBPI@Input?5Data?5Indicator?$AA@ 004eac8c     TSReader.obj
 0002:0000fca4       ??_C@_0BI@GCFE@Record?1Stream?5Indicator?$AA@ 004eaca4     TSReader.obj
 0002:0000fcbc       ??_C@_0O@CMLD@Decoder?5State?$AA@ 004eacbc     TSReader.obj
 0002:0000fccc       ??_C@_0O@BGCM@Record?5Output?$AA@ 004eaccc     TSReader.obj
 0002:0000fcdc       ??_C@_06IOLI@Status?$AA@   004eacdc     TSReader.obj
 0002:0000fce4       ??_C@_08ICLI@ATSC?9MGT?$AA@ 004eace4     TSReader.obj
 0002:0000fcf0       ??_C@_08JPPG@ATSC?9VCT?$AA@ 004eacf0     TSReader.obj
 0002:0000fcfc       ??_C@_07BNPB@DVB?9TOT?$AA@ 004eacfc     TSReader.obj
 0002:0000fd04       ??_C@_08GDCN@DCII?9NIT?$AA@ 004ead04     TSReader.obj
 0002:0000fd10       ??_C@_07HPPM@DVB?9NIT?$AA@ 004ead10     TSReader.obj
 0002:0000fd18       ??_C@_08NAKG@ATSC?9EIT?$AA@ 004ead18     TSReader.obj
 0002:0000fd24       ??_C@_07BJHC@DVB?9EIT?$AA@ 004ead24     TSReader.obj
 0002:0000fd2c       ??_C@_07CNDL@DVB?9SDT?$AA@ 004ead2c     TSReader.obj
 0002:0000fd34       ??_C@_07BCEH@DVB?9BAT?$AA@ 004ead34     TSReader.obj
 0002:0000fd3c       ??_C@_08MNOF@MPEG?9PMT?$AA@ 004ead3c     TSReader.obj
 0002:0000fd48       ??_C@_08PFEK@MPEG?9CAT?$AA@ 004ead48     TSReader.obj
 0002:0000fd54       ??_C@_0L@JEJA@?$CF02x?5?9?5?$CFs?6?$AA@ 004ead54     TSReader.obj
 0002:0000fd60       ??_C@_0M@LIMC@Descriptors?$AA@ 004ead60     TSReader.obj
 0002:0000fd6c       ??_C@_05FELB@Table?$AA@    004ead6c     TSReader.obj
 0002:0000fd74       ??_C@_06CPLI@Tahoma?$AA@   004ead74     TSReader.obj
 0002:0000fd7c       ??_C@_0BH@LKOC@TSReader?3?5Source?5?$CC?$CFs?$CC?6?$AA@ 004ead7c     TSReader.obj
 0002:0000fd94       ??_C@_0BI@NCNP@TSReader_GetRetuneCount?$AA@ 004ead94     TSReader.obj
 0002:0000fdac       ??_C@_0BK@MMHB@TSReader_GetSyncLossCount?$AA@ 004eadac     TSReader.obj
 0002:0000fdc8       ??_C@_0BJ@FKCF@TSReader_GetSignalString?$AA@ 004eadc8     TSReader.obj
 0002:0000fde4       ??_C@_0BI@NDOE@TSReader_GetTunerString?$AA@ 004eade4     TSReader.obj
 0002:0000fdfc       ??_C@_0BF@MMPH@TSReader_IsPIDActive?$AA@ 004eadfc     TSReader.obj
 0002:0000fe14       ??_C@_0BH@NEDL@TSReader_PIDManagement?$AA@ 004eae14     TSReader.obj
 0002:0000fe2c       ??_C@_0BE@EDBE@TSReader_TuneDialog?$AA@ 004eae2c     TSReader.obj
 0002:0000fe40       ??_C@_0O@ENCM@TSReader_Tune?$AA@ 004eae40     TSReader.obj
 0002:0000fe50       ??_C@_0O@FKJF@TSReader_Stop?$AA@ 004eae50     TSReader.obj
 0002:0000fe60       ??_C@_0P@OIMB@TSReader_Start?$AA@ 004eae60     TSReader.obj
 0002:0000fe70       ??_C@_0BA@ICFM@TSReader_DeInit?$AA@ 004eae70     TSReader.obj
 0002:0000fe80       ??_C@_0O@KHNB@TSReader_Init?$AA@ 004eae80     TSReader.obj
 0002:0000fe90       ??_C@_0FJ@KNAC@The?5source?5module?5can?8t?5be?5loade@ 004eae90     TSReader.obj
 0002:0000feec       ??_C@_08CDGB@?2Sources?$AA@ 004eaeec     TSReader.obj
 0002:0000fef8       ??_C@_0BN@KGJJ@Unable?5to?5open?5output?5device?$AA@ 004eaef8     TSReader.obj
 0002:0000ff18       ??_C@_0DK@CGED@No?5compatible?5network?5adapters?5f@ 004eaf18     TSReader.obj
 0002:0000ff54       ??_C@_0BL@FLNI@TSReader?3?5?$CFs?6TSReader?3?5?$CFs?6?$AA@ 004eaf54     TSReader.obj
 0002:0000ff70       ??_C@_01HAF@?8?$AA@        004eaf70     TSReader.obj
 0002:0000ff74       ??_C@_0BK@KGNJ@http?3?1?1winpcap?4polito?4it?1?$AA@ 004eaf74     TSReader.obj
 0002:0000ff90       ??_C@_0IA@PCFF@WinPcap?5is?5required?5for?5this?5fun@ 004eaf90     TSReader.obj
 0002:00010010       ??_C@_0CA@BMMI@Unable?5to?5create?5output?5file?5?$CFs?$AA@ 004eb010     TSReader.obj
 0002:00010030       ??_C@_0P@GBIP@?$CFd?4?$CFd?4?$CFd?4?$CFd?4ip?$AA@ 004eb030     TSReader.obj
 0002:00010040       ??_C@_01PCFE@?2?$AA@       004eb040     TSReader.obj
 0002:00010044       ??_C@_0BC@CMED@?$CFd?5?$CFd?5?$CFd?5?$CFd?5?$CFd?5?$CFd?$AA@ 004eb044     TSReader.obj
 0002:00010058       ??_C@_0BI@JNFD@?$CFd?5?$CFd?5?$CFd?5?$CFd?5?$CFd?5?$CFd?5?$CFd?5?$CFd?$AA@ 004eb058     TSReader.obj
 0002:00010070       ??_C@_04KIGG@DVBT?$AA@     004eb070     TSReader.obj
 0002:00010078       ??_C@_04KIBJ@?$CF?43f?$AA@ 004eb078     TSReader.obj
 0002:00010080       ??_C@_09GMBM@?2dvbt?4ini?$AA@ 004eb080     TSReader.obj
 0002:0001008c       ??_C@_0CC@GDND@TSReader?3?5New?5command?5line?3?5?8?$CFs?8@ 004eb08c     TSReader.obj
 0002:000100b0       ??_C@_0DO@JHMF@CreateWindow?5for?5the?5EPG?5Grid?5fa@ 004eb0b0     TSReader.obj
 0002:000100f0       ??_C@_08MGLG@EPG?5Grid?$AA@ 004eb0f0     TSReader.obj
 0002:000100fc       ??_C@_0DL@KIHA@CreateWindow?5for?5the?5Chart?5faile@ 004eb0fc     TSReader.obj
 0002:00010138       ??_C@_05LCH@CHART?$AA@     004eb138     TSReader.obj
 0002:00010140       ??_C@_06BCG@0x?$CF02x?$AA@ 004eb140     TSReader.obj
 0002:00010148       ??_C@_0CE@EJAP@Channel?5?$CFd?5requested?5by?5?$CFd?4?$CFd?4?$CFd@ 004eb148     TSReader.obj
 0002:00010170       ??_C@_0EH@BIEI@You?5need?5to?5quit?5and?5relaunch?5TS@ 004eb170     TSReader.obj
 0002:000101b8       ??_C@_05IMKO@Start?$AA@    004eb1b8     TSReader.obj
 0002:000101c0       ??_C@_04DFLL@Stop?$AA@     004eb1c0     TSReader.obj
 0002:000101c8       ??_C@_0CL@PJCD@Invalid?5PID?5value?50x?$CFx?5?$CI0?5?9?51ffe@ 004eb1c8     TSReader.obj
 0002:000101f4       ??_C@_0CJ@DMNI@Invalid?5PID?5value?5?$CFd?5?$CI0?5?9?58192?5a@ 004eb1f4     TSReader.obj
 0002:00010220       ??_C@_0CM@FPAO@TSReader?3?5Invalid?5PID?5value?5?8?$CFs?8@ 004eb220     TSReader.obj
 0002:0001024c       ??_C@_05CB@?$CIhex?$CJ?$AA@ 004eb24c     TSReader.obj
 0002:00010254       ??_C@_09JFGI@?$CIdecimal?$CJ?$AA@ 004eb254     TSReader.obj
 0002:00010260       ??_C@_0M@MEFK@Cycle?5?$CImax?$CJ?$AA@ 004eb260     TSReader.obj
 0002:0001026c       ??_C@_0M@EJLJ@Cycle?5?$CImin?$CJ?$AA@ 004eb26c     TSReader.obj
 0002:00010278       ??_C@_0M@FKCB@Cycle?5?$CIavg?$CJ?$AA@ 004eb278     TSReader.obj
 0002:00010284       ??_C@_08FLOI@Sections?$AA@ 004eb284     TSReader.obj
 0002:00010290       ??_C@_05IDIG@_File?$AA@    004eb290     TSReader.obj
 0002:00010298       ??_C@_03NEHB@ADV?$AA@      004eb298     TSReader.obj
 0002:0001029c       ??_C@_0BC@JJKF@?$CFd?0?$CFc?0?$CFd?0?$CFd?0?$CFd?0?$CFs?$AA@ 004eb29c     TSReader.obj
 0002:000102b0       ??_C@_0P@LJF@?$CFd?0?$CFc?0?$CFd?0?$CFs?0?$CFs?$AA@ 004eb2b0     TSReader.obj
 0002:000102c0       ??_C@_02EEGL@00?$AA@       004eb2c0     TSReader.obj
 0002:000102c4       ??_C@_02HBIG@78?$AA@       004eb2c4     TSReader.obj
 0002:000102c8       ??_C@_02PHBJ@56?$AA@       004eb2c8     TSReader.obj
 0002:000102cc       ??_C@_02NFMI@34?$AA@       004eb2cc     TSReader.obj
 0002:000102d0       ??_C@_02JGIH@23?$AA@       004eb2d0     TSReader.obj
 0002:000102d4       ??_C@_0BM@ECDK@?$FLSATTYPE?$FN?$AN?61?$DN?$CF04d?$AN?62?$DN?$CFs?$AN?6?$AN?6?$AA@ 004eb2d4     TSReader.obj
 0002:000102f0       ??_C@_0L@JLID@?$CFs?$CF04d?4bak?$AA@ 004eb2f0     TSReader.obj
 0002:000102fc       ??_C@_0L@HMCC@?$CFs?$CF04d?4ini?$AA@ 004eb2fc     TSReader.obj
 0002:00010308       ??_C@_0BO@GDEP@Unable?5to?5record?5to?5D?9VHS?6?6?$CFs?$AA@ 004eb308     TSReader.obj
 0002:00010328       ??_C@_0DA@MEFM@TSReader?3?5Waiting?5for?5thumbnail?5@ 004eb328     TSReader.obj
 0002:00010358       ??_C@_06PCIG@?9Stop?6?$AA@ 004eb358     TSReader.obj
 0002:00010360       ??_C@_06IPEG@?$CLStop?6?$AA@ 004eb360     TSReader.obj
 0002:00010368       ??_C@_0BE@GJNK@Shutdown?5recording?6?$AA@ 004eb368     TSReader.obj
 0002:0001037c       ??_C@_04KHCO@roku?$AA@     004eb37c     TSReader.obj
 0002:00010384       ??_C@_04NGM@Roku?$AA@      004eb384     TSReader.obj
 0002:0001038c       ??_C@_05NMIL@d?9vhs?$AA@   004eb38c     TSReader.obj
 0002:00010394       ??_C@_0CL@GNNK@?$CF02d?3?$CF02d?3?$CF02d?5remaining?5in?5auto@ 004eb394     TSReader.obj
 0002:000103c0       ??_C@_0CD@BKOF@?$CF02d?3?$CF02d?3?$CF02d?5remaining?5in?5reco@ 004eb3c0     TSReader.obj
 0002:000103e4       ??_C@_0CI@LJEI@?$CF02d?3?$CF02d?3?$CF02d?5remaining?5in?5auto@ 004eb3e4     TSReader.obj
 0002:0001040c       ??_C@_0DO@IFGK@TSReader?3?5Unable?5to?5open?5HTML?1XM@ 004eb40c     TSReader.obj
 0002:0001044c       ??_C@_0BF@KAHJ@Auto?5exporting?5XMLTV?$AA@ 004eb44c     TSReader.obj
 0002:00010464       ??_C@_0BD@GFBF@Auto?5exporting?5XML?$AA@ 004eb464     TSReader.obj
 0002:00010478       ??_C@_0BE@OGAD@Auto?5exporting?5HTML?$AA@ 004eb478     TSReader.obj
 0002:0001048c       ??_C@_0BJ@DONO@Auto?5export?5counter?5?9?5?$CFd?$AA@ 004eb48c     TSReader.obj
 0002:000104a8       ??_C@_0L@PIJC@MDTeleText?$AA@ 004eb4a8     TSReader.obj
 0002:000104b4       ??_C@_0BO@MJHM@?$CFd?5muxes?5written?5to?5INI?5files?$AA@ 004eb4b4     TSReader.obj
 0002:000104d8       ??_C@_0EO@COCI@No?5muxes?5were?5written?5?9?5perhaps?5@ 004eb4d8     TSReader.obj
 0002:00010528       ??_C@_0CD@LEMN@TSReader?3?5WM_DESTROY?5done?5for?5dl@ 004eb528     TSReader.obj
 0002:00010550       ??_C@_0KP@BNPG@The?5source?5module?5you?5selected?5d@ 004eb550     TSReader.obj
 0002:00010600       ??_C@_0GI@BBLH@?9?9?9?9?9?9?9?9?9?9?9?9?9?9?9?9?9?9?9?9?9?9?9?9?9?9?9?9?9?9?9?9@ 004eb600     TSReader.obj
 0002:00010668       ??_C@_0BF@HGMM@sn?3?5?$CF05d?5epg?3?5?$CF05d?$AN?6?$AA@ 004eb668     TSReader.obj
 0002:00010680       ??_C@_07MGMC@?$CFs?5?$CF5d?3?$AA@ 004eb680     TSReader.obj
 0002:00010688       ??_C@_0N@GNCM@?$CFs?5?$CF5d?5?$CI?$CFs?$CJ?3?$AA@ 004eb688     TSReader.obj
 0002:00010698       ??_C@_03ELMM@?5?$CL?5?$AA@ 004eb698     TSReader.obj
 0002:0001069c       ??_C@_03MCBF@LCN?$AA@      004eb69c     TSReader.obj
 0002:000106a0       ??_C@_08ICJA@BAT?5?$CFs?$AN?6?$AA@ 004eb6a0     TSReader.obj
 0002:000106ac       ??_C@_0BE@DEGN@c?3?2tsreader?9bat?4txt?$AA@ 004eb6ac     TSReader.obj
 0002:000106c0       ??_C@_0BK@OGBD@Video?5stream?5is?5scrambled?$AA@ 004eb6c0     TSReader.obj
 0002:000106dc       ??_C@_0CN@PIBJ@No?5MPEG?92?5video?5stream?5found?5in?5@ 004eb6dc     TSReader.obj
 0002:0001070c       ??_C@_0CH@GLE@Please?5select?5a?5video?5program?5to@ 004eb70c     TSReader.obj
 0002:00010734       ??_C@_03HLIC@GET?$AA@      004eb734     TSReader.obj
 0002:00010738       ??_C@_0BI@BIMI@?1tsreader?1versions?1std?1?$AA@ 004eb738     TSReader.obj
 0002:00010750       ??_C@_0BA@OCJH@www?4coolstf?4com?$AA@ 004eb750     TSReader.obj
 0002:00010760       ??_C@_0BP@LBNB@http?3?1?1www?4coolstf?4com?1support?$AA@ 004eb760     TSReader.obj
 0002:00010780       ??_C@_0EO@CCHO@A?5new?5version?5available?4?5Would?5y@ 004eb780     TSReader.obj
 0002:000107d0       ??_C@_0DA@OIML@You?5already?5have?5the?5most?5curren@ 004eb7d0     TSReader.obj
 0002:00010800       ??_C@_0FH@GNHH@Unable?5to?5retreive?5current?5versi@ 004eb800     TSReader.obj
 0002:00010858       ??_C@_06HGNJ@0x?$CF04x?$AA@ 004eb858     TSReader.obj
 0002:00010860       ??_C@_0EB@GFAI@This?5function?5can?5only?5be?5used?5f@ 004eb860     TSReader.obj
 0002:000108a8       ??_C@_0FM@MNGP@http?3?1?1www?4digitalriver?4com?1dr?1v@ 004eb8a8     TSReader.obj
 0002:00010904       ??_C@_0CF@KAFF@Unable?5to?5open?5PID?$CIs?$CJ?5record?5fil@ 004eb904     TSReader.obj
 0002:0001092c       ??_C@_0DP@DMPL@Unable?5to?5open?5PID?5record?5file?5?$CF@ 004eb92c     TSReader.obj
 0002:0001096c       ??_C@_0L@LALD@PID_?$CFs?4bin?$AA@ 004eb96c     TSReader.obj
 0002:00010978       ??_C@_0CN@EMJH@VLC?5Command?5not?5set?5?9?5defaulting@ 004eb978     TSReader.obj
 0002:000109a8       ??_C@_0EL@DCIN@The?5VLC?5executable?5location?5is?5n@ 004eb9a8     TSReader.obj
 0002:000109f8       ??_C@_0GN@KNJF@Either?5the?5Roku?5HD1000?5IP?0?5usern@ 004eb9f8     TSReader.obj
 0002:00010a68       ??_C@_0BM@GLKG@?2documentation?2support?4html?$AA@ 004eba68     TSReader.obj
 0002:00010a88       ??_C@_0FE@OFJC@The?5current?5source?5doesn?8t?5repor@ 004eba88     TSReader.obj
 0002:00010adc       ??_C@_0DA@EIKC@This?5mux?5doesn?8t?5appear?5to?5conta@ 004ebadc     TSReader.obj
 0002:00010b0c       ??_C@_0DF@PNBA@This?5mux?5doesn?8t?5appear?5to?5conta@ 004ebb0c     TSReader.obj
 0002:00010b44       ??_C@_0DP@NOGO@Recording?5program?5?$CFs?6Recording?5t@ 004ebb44     TSReader.obj
 0002:00010b84       ??_C@_0BE@GPOC@TSReader?3?5Running?$CB?6?$AA@ 004ebb84     TSReader.obj
 0002:00010b98       ??_C@_0CM@LKBI@TSReader?3?5Past?5tune?5section?5?9?5re@ 004ebb98     TSReader.obj
 0002:00010bc4       ??_C@_0DM@EEAN@TSReader?3?5TuneLoop?5?$DN?5?$CFd?5fLocked?5@ 004ebbc4     TSReader.obj
 0002:00010c00       ??_C@_0CH@FNCP@TSReader?3?5TuneDialog?$CI?$CJ?5returned?5@ 004ebc00     TSReader.obj
 0002:00010c28       ??_C@_0P@NOHN@TaskbarCreated?$AA@ 004ebc28     TSReader.obj
 0002:00010c38       ??_C@_0BF@COIK@UDPSender_SendPacket?$AA@ 004ebc38     TSReader.obj
 0002:00010c50       ??_C@_0BG@JDOP@UDPSender_CloseDevice?$AA@ 004ebc50     TSReader.obj
 0002:00010c68       ??_C@_0BF@HFMH@UDPSender_OpenDevice?$AA@ 004ebc68     TSReader.obj
 0002:00010c80       ??_C@_0BF@IGDO@UDPSender_GetDevices?$AA@ 004ebc80     TSReader.obj
 0002:00010c98       ??_C@_0BH@LIHJ@TSReader_UDPSender?4dll?$AA@ 004ebc98     TSReader.obj
 0002:00010cb0       ??_C@_09DHFI@wpcap?4dll?$AA@ 004ebcb0     TSReader.obj
 0002:00010cbc       ??_C@_0P@CLOA@?2scrambled?4bmp?$AA@ 004ebcbc     TSReader.obj
 0002:00010ccc       ??_C@_0BB@NNMM@c?3?2tsreader?4h264?$AA@ 004ebccc     TSReader.obj
 0002:00010ce0       ??_C@_0BJ@HNFG@application?1octet?9stream?$AA@ 004ebce0     TSReader.obj
 0002:00010cfc       ??_C@_0CK@IAJN@TSReader?3?5Variable?5storage?5requi@ 004ebcfc     TSReader.obj
 0002:00010d28       ??_C@_01HMO@?$CC?$AA@      004ebd28     TSReader.obj
 0002:00010d2c       ??_C@_0BE@NNNH@Invalid?5?9X?5filename?$AA@ 004ebd2c     TSReader.obj
 0002:00010d40       ??_C@_0BE@CFJO@Invalid?5?9x?5filename?$AA@ 004ebd40     TSReader.obj
 0002:00010d58       ??_C@_0JF@CFBP@Invalid?5?9V?5parameters?6?6service?5?$DN@ 004ebd58     TSReader.obj
 0002:00010df0       ??_C@_0GP@ININ@Invalid?5?9v?5parameters?6?6service?5?$DN@ 004ebdf0     TSReader.obj
 0002:00010e60       ??_C@_0BE@JMMM@Invalid?5?9T?5filename?$AA@ 004ebe60     TSReader.obj
 0002:00010e74       ??_C@_02JAFN@?$CFi?$AA@    004ebe74     TSReader.obj
 0002:00010e78       ??_C@_0LJ@OJCD@Invalid?5?9r?5parameters?6?6?$HLfile?9siz@ 004ebe78     TSReader.obj
 0002:00010f38       ??_C@_0EA@EHLE@Invalid?5positioner?5parameters?5?9?5@ 004ebf38     TSReader.obj
 0002:00010f78       ??_C@_0ED@CJLM@Invalid?5positioner?5parameters?5?9?5@ 004ebf78     TSReader.obj
 0002:00010fbc       ??_C@_0BE@GJHB@Invalid?5?9m?5filename?$AA@ 004ebfbc     TSReader.obj
 0002:00010fd0       ??_C@_0BG@NBBD@Invalid?5?9I?5parameters?$AA@ 004ebfd0     TSReader.obj
 0002:00010fe8       ??_C@_0BE@CBPD@Invalid?5?9H?5filename?$AA@ 004ebfe8     TSReader.obj
 0002:00010ffc       ??_C@_0CJ@CCAC@Invalid?5?9H?$CL?5switch?5?9?5a?5space?5is?5@ 004ebffc     TSReader.obj
 0002:00011028       ??_C@_0BN@BPPG@Invalid?5serial?5receiver?5type?$AA@ 004ec028     TSReader.obj
 0002:00011048       ??_C@_03CMJG@OFF?$AA@      004ec048     TSReader.obj
 0002:0001104c       ??_C@_0BG@JJL@Invalid?5receiver?9type?$AA@ 004ec04c     TSReader.obj
 0002:00011068       ??_C@_0LJ@KLNN@Invalid?5?9a?5parameters?6?6?$HLfile?9siz@ 004ec068     TSReader.obj
 0002:00011124       ??_C@_0BD@GEJ@Invalid?5switch?5?9?$CFc?$AA@ 004ec124     TSReader.obj
 0002:00011138       ??_C@_0BD@PIKI@StradisDecoder?4dll?$AA@ 004ec138     TSReader.obj
 0002:0001114c       ??_C@_0P@JAH@ShutdownSocket?$AA@ 004ec14c     TSReader.obj
 0002:0001115c       ??_C@_0M@BHFC@SetupSocket?$AA@ 004ec15c     TSReader.obj
 0002:00011168       ??_C@_0BB@DOLG@TSReader_XNS?4dll?$AA@ 004ec168     TSReader.obj
 0002:0001117c       ??_C@_0BA@OKJB@decrypt_packets?$AA@ 004ec17c     TSReader.obj
 0002:0001118c       ??_C@_0BC@CJKF@set_control_words?$AA@ 004ec18c     TSReader.obj
 0002:000111a0       ??_C@_0BA@PLAF@get_parallelism?$AA@ 004ec1a0     TSReader.obj
 0002:000111b0       ??_C@_0BA@NJNO@get_keyset_size?$AA@ 004ec1b0     TSReader.obj
 0002:000111c0       ??_C@_0BO@BHIK@?2MDPlugins?2FFDecsa_64_MMX?4dll?$AA@ 004ec1c0     TSReader.obj
 0002:000111e0       ??_C@_0BD@IPJD@FFDecsa_64_MMX?4dll?$AA@ 004ec1e0     TSReader.obj
 0002:000111f4       ??_C@_07BLJA@decrypt?$AA@  004ec1f4     TSReader.obj
 0002:000111fc       ??_C@_07EIAH@set_cws?$AA@  004ec1fc     TSReader.obj
 0002:00011204       ??_C@_0BD@JOKH@?2MDPlugins?2csa?4dll?$AA@ 004ec204     TSReader.obj
 0002:00011218       ??_C@_07NIIA@csa?4dll?$AA@ 004ec218     TSReader.obj
 0002:00011220       ??_C@_05BAJM@?5BETA?$AA@   004ec220     TSReader.obj
 0002:00011228       ??_C@_08FLOM@?$CFs?5?9?9?5?$CFs?$AA@ 004ec228     TSReader.obj
 0002:00011234       ??_C@_07IOPL@Default?$AA@  004ec234     TSReader.obj
 0002:0001123c       ??_C@_01A@?$AA?$AA@        004ec23c     TSReader.obj
 0002:00011240       ??_C@_0CK@KPKN@TSReader?3?5Main?5GetMessage?$CI?$CJ?5loop@ 004ec240     TSReader.obj
 0002:00011270       ??_C@_0FL@IDLM@Too?5many?5receiver?5control?5module@ 004ec270     TSReader.obj
 0002:000112cc       ??_C@_0BO@DBF@?$CFs?2Sources?2ReceiverControl?2?$CFs?$AA@ 004ec2cc     TSReader.obj
 0002:000112ec       ??_C@_0CB@NEHI@?$CFs?2Sources?2ReceiverControl?2?$CK?4dll@ 004ec2ec     TSReader.obj
 0002:00011310       ??_C@_0CH@BOEJ@?$HL4E3E4954?9F9B5?911d2?9A085?90050040@ 004ec310     TSReader.obj
 0002:00011338       ??_C@_0HE@PLAI@This?5beta?5release?5has?5expired?4?6?6@ 004ec338     TSReader.obj
 0002:000113ac       ??_C@_0BL@JJP@TSReader?3?5Commandline?3?5?$CFs?6?$AA@ 004ec3ac     TSReader.obj
 0002:000113c8       ??_C@_0BM@IPCC@?$CFs?3?5Version?5?$CFs?5Built?5?$CFs?5?$CFs?6?$AA@ 004ec3c8     TSReader.obj
 0002:000113e4       ??_C@_0M@IBML@?$CFd?4?$CFd?4?$CFd?4?$CFd?$AA@ 004ec3e4     util.obj
 0002:000113f0       ??_C@_04CKGJ@AC?93?$AA@    004ec3f0     util.obj
 0002:000113f8       ??_C@_03MECJ@PCM?$AA@      004ec3f8     util.obj
 0002:000113fc       ??_C@_04LILF@BSSD?$AA@     004ec3fc     util.obj
 0002:00011404       ??_C@_04NCIN@DTS3?$AA@     004ec404     util.obj
 0002:0001140c       ??_C@_04HIBK@DTS2?$AA@     004ec40c     util.obj
 0002:00011414       ??_C@_04IHKD@DTS1?$AA@     004ec414     util.obj
 0002:0001141c       ??_C@_0O@JIKL@?$FLUnsupported?$FN?$AA@ 004ec41c     util.obj
 0002:0001142c       ??_C@_04HJKA@?$CF08x?$AA@  004ec42c     util.obj
 0002:00011434       __real@4669b000            004ec434     util.obj
 0002:00011438       __real@41f4cd01            004ec438     util.obj
 0002:0001143c       __real@4669b066            004ec43c     util.obj
 0002:00011440       __real@43b6a000            004ec440     util.obj
 0002:00011444       __real@466b98cd            004ec444     util.obj
 0002:00011448       ??_C@_0N@PPGC@?$CF02d?$CF02d?$CF02d?$AA@ 004ec448     util.obj
 0002:00011458       ??_C@_04LLAL@?$CF06x?$AA@  004ec458     util.obj
 0002:00011460       ??_C@_01POCP@?7?$AA@       004ec460     util.obj
 0002:00011464       ??_C@_03IIBH@?$CFs?7?$AA@  004ec464     util.obj
 0002:00011468       ??_C@_02FNNB@?7?7?$AA@     004ec468     util.obj
 0002:0001146c       ??_C@_06BPDF@?$CFs?7?$CFs?7?$AA@ 004ec46c     util.obj
 0002:00011474       ??_C@_03IDOL@?$CFd?7?$AA@  004ec474     util.obj
 0002:00011478       ??_C@_0CE@LIDF@?$CF04d?1?$CF02d?1?$CF02d?5?$CF02d?3?$CF02d?7?$CF02d?3?$CF0@ 004ec478     util.obj
 0002:0001149c       ??_C@_05HGFG@?$CF08x?7?$AA@ 004ec49c     util.obj
 0002:000114a4       ??_C@_0BF@FFFP@EPG_?$CF04d?$CF02d?$CF02d?4txt?$AA@ 004ec4a4     util.obj
 0002:000114bc       ??_C@_04BDNF@?$CGgt?$DL?$AA@ 004ec4bc     util.obj
 0002:000114c4       ??_C@_04HFFL@?$CGlt?$DL?$AA@ 004ec4c4     util.obj
 0002:000114cc       ??_C@_05BHKJ@?$CGamp?$DL?$AA@ 004ec4cc     util.obj
 0002:000114d4       ??_C@_06ILHI@?$CGquot?$DL?$AA@ 004ec4d4     util.obj
 0002:000114dc       ??_C@_0CG@IEHC@TSReader?3?5WriteHTMLLine?5write?5er@ 004ec4dc     util.obj
 0002:00011504       ??_C@_0BA@PIEO@?2videocrash?4bmp?$AA@ 004ec504     util.obj
 0002:00011514       ??_C@_0BG@KNKL@?2videocrash_small?4bmp?$AA@ 004ec514     util.obj
 0002:00011530       __real@40002339c0ebedfa    004ec530     util.obj
 0002:00011538       __real@3fea04189374bc6a    004ec538     util.obj
 0002:00011540       __real@3fd913404ea4a8c1    004ec540     util.obj
 0002:00011548       __real@3ff989374bc6a7f0    004ec548     util.obj
 0002:00011550       __real@3ff2a161e4f765fe    004ec550     util.obj
 0002:00011558       __real@3f34000000000000    004ec558     util.obj
 0002:00011560       ??_C@_0CB@DAGE@_?$CFd_?$CF04d?$CF02d?$CF02d_?$CF02d?$CF02d?$CF02d?4?$CFs@ 004ec560     util.obj
 0002:00011584       ??_C@_09EMPI@?5?9?5saving?$AA@ 004ec584     util.obj
 0002:00012564       __real@40000000            004ed564     liba52:parse.obj
 0002:00012568       __real@00000000            004ed568     liba52:parse.obj
 0002:00012570       __real@3fe6a09e667f3bcd    004ed570     liba52:parse.obj
 0002:00012578       ??_C@_0CG@ICLB@No?5accelerated?5IMDCT?5transform?5f@ 004ed578     liba52:imdct.obj
 0002:000125a0       __real@3f9921fb54442d18    004ed5a0     liba52:imdct.obj
 0002:000125a8       __real@3f8921fb54442d18    004ed5a8     liba52:imdct.obj
 0002:000125b0       __real@3fd0000000000000    004ed5b0     liba52:imdct.obj
 0002:000125b8       __real@3fa921fb54442d18    004ed5b8     liba52:imdct.obj
 0002:000125c0       __real@3fb921fb54442d18    004ed5c0     liba52:imdct.obj
 0002:000125c8       __real@3fc921fb54442d18    004ed5c8     liba52:imdct.obj
 0002:000125d0       __real@3fd921fb54442d18    004ed5d0     liba52:imdct.obj
 0002:000125d8       __real@3faf6a7a2955385e    004ed5d8     liba52:imdct.obj
 0002:000125e0       __real@3fd4810f8b2341f0    004ed5e0     liba52:downmix.obj
 0002:000125e8       __real@3fda827999fcef33    004ed5e8     liba52:downmix.obj
 0002:000125f0       __real@3fe2bec333018867    004ed5f0     liba52:downmix.obj
 0002:000125f8       __real@3ff6a09e667f3bcd    004ed5f8     liba52:downmix.obj
 0002:00012600       __real@3fda827999fcef34    004ed600     liba52:downmix.obj
 0002:00012608       __real@3f800000            004ed608     liba52:downmix.obj
 0002:0001260c       ??_C@_05PIME@float?$AA@    004ed60c     libao:audio_out.obj
 0002:00012614       ??_C@_05FMIM@null6?$AA@    004ed614     libao:audio_out.obj
 0002:0001261c       ??_C@_05JKC@null4?$AA@     004ed61c     libao:audio_out.obj
 0002:00012624       ??_C@_09EBAF@peakdolby?$AA@ 004ed624     libao:audio_out.obj
 0002:00012630       ??_C@_04EDKJ@peak?$AA@     004ed630     libao:audio_out.obj
 0002:00012638       ??_C@_08IELP@aifdolby?$AA@ 004ed638     libao:audio_out.obj
 0002:00012644       ??_C@_03EBDC@aif?$AA@      004ed644     libao:audio_out.obj
 0002:00012648       ??_C@_08JIBO@wavdolby?$AA@ 004ed648     libao:audio_out.obj
 0002:00012654       ??_C@_03JAAL@wav?$AA@      004ed654     libao:audio_out.obj
 0002:00012658       ??_C@_08BLLA@windolby?$AA@ 004ed658     libao:audio_out.obj
 0002:00012664       ??_C@_03NIJH@win?$AA@      004ed664     libao:audio_out.obj
 0002:00012668       ??_C@_0BO@MDLF@peak?5level?5?$DN?5?$CF?44f?5?$CI?$CF?$CL?42f?5dB?$CJ?6?$AA@ 004ed668     libao:audio_out_peak.obj
 0002:00012688       ??_C@_0BF@PMPG@waveOutWrite?5failed?6?$AA@ 004ed688     libao:audio_out_win.obj
 0002:000126a0       ??_C@_0BN@BPPN@waveOutPrepareHeader?5failed?6?$AA@ 004ed6a0     libao:audio_out_win.obj
 0002:000126c0       ??_C@_0BP@JEIN@waveOutUnprepareHeader?5failed?6?$AA@ 004ed6c0     libao:audio_out_win.obj
 0002:000126e0       ??_C@_0CJ@GPA@Switching?5from?5dolby?5surround?5to@ 004ed6e0     libao:audio_out_win.obj
 0002:0001270c       ??_C@_0CJ@NIHK@Switching?5from?5stereo?5to?5dolby?5s@ 004ed70c     libao:audio_out_win.obj
 0002:00012738       ??_C@_0BN@GOID@Can?5not?5open?5waveOut?5device?6?$AA@ 004ed738     libao:audio_out_win.obj
 0002:00012758       _mad_timer_zero            004ed758     libmad:timer.obj
 0002:00012760       ??_C@_0L@OMNL@denom?5?$CB?$DN?50?$AA@ 004ed760     libmad:timer.obj
 0002:0001276c       ??_C@_0DN@KBCJ@c?3?2documents?5and?5settings?2rod?2de@ 004ed76c     libmad:timer.obj
 0002:000127ac       ??_C@_0M@BACL@factor?5?$CB?$DN?50?$AA@ 004ed7ac     libmad:timer.obj
 0002:0001317c       ??_C@_0BP@DDNK@incompatible?5block_type?5for?5JS?$AA@ 004ee17c     libmad:stream.obj
 0002:0001319c       ??_C@_0BF@GAMA@Huffman?5data?5overrun?$AA@ 004ee19c     libmad:stream.obj
 0002:000131b4       ??_C@_0BJ@LCHC@bad?5Huffman?5table?5select?$AA@ 004ee1b4     libmad:stream.obj
 0002:000131d0       ??_C@_0BG@OFHG@bad?5audio?5data?5length?$AA@ 004ee1d0     libmad:stream.obj
 0002:000131e8       ??_C@_0BM@BPIF@bad?5main_data_begin?5pointer?$AA@ 004ee1e8     libmad:stream.obj
 0002:00013204       ??_C@_0BP@PLN@bad?5scalefactor?5selection?5info?$AA@ 004ee204     libmad:stream.obj
 0002:00013224       ??_C@_0BE@BEHE@reserved?5block_type?$AA@ 004ee224     libmad:stream.obj
 0002:00013238       ??_C@_0BF@NIOO@bad?5big_values?5count?$AA@ 004ee238     libmad:stream.obj
 0002:00013250       ??_C@_0BB@GEN@bad?5frame?5length?$AA@ 004ee250     libmad:stream.obj
 0002:00013264       ??_C@_0BN@MIJP@bad?5bitrate?1mode?5combination?$AA@ 004ee264     libmad:stream.obj
 0002:00013284       ??_C@_0BG@MPBA@bad?5scalefactor?5index?$AA@ 004ee284     libmad:stream.obj
 0002:0001329c       ??_C@_0BP@PJNH@forbidden?5bit?5allocation?5value?$AA@ 004ee29c     libmad:stream.obj
 0002:000132bc       ??_C@_0BB@PHBK@CRC?5check?5failed?$AA@ 004ee2bc     libmad:stream.obj
 0002:000132d0       ??_C@_0BI@HEOO@reserved?5emphasis?5value?$AA@ 004ee2d0     libmad:stream.obj
 0002:000132e8       ??_C@_0CA@FALM@reserved?5sample?5frequency?5value?$AA@ 004ee2e8     libmad:stream.obj
 0002:00013308       ??_C@_0BI@JHLC@forbidden?5bitrate?5value?$AA@ 004ee308     libmad:stream.obj
 0002:00013320       ??_C@_0BM@FLAP@reserved?5header?5layer?5value?$AA@ 004ee320     libmad:stream.obj
 0002:0001333c       ??_C@_0BF@GCBG@lost?5synchronization?$AA@ 004ee33c     libmad:stream.obj
 0002:00013354       ??_C@_0BC@DCAJ@not?5enough?5memory?$AA@ 004ee354     libmad:stream.obj
 0002:00013368       ??_C@_0BO@MDNG@invalid?5?$CInull?$CJ?5buffer?5pointer?$AA@ 004ee368     libmad:stream.obj
 0002:00013388       ??_C@_0CA@OCPK@input?5buffer?5too?5small?5?$CIor?5EOF?$CJ?$AA@ 004ee388     libmad:stream.obj
 0002:000133a8       ??_C@_08KPMF@no?5error?$AA@ 004ee3a8     libmad:stream.obj
 0002:00023a90       ??_C@_0EB@JPEB@stream?9?$DOmd_len?5?$CL?5md_len?5?9?5si?4mai@ 004fea90     libmad:layer3.obj
 0002:00023ad4       ??_C@_0DO@HEOI@c?3?2documents?5and?5settings?2rod?2de@ 004fead4     libmad:layer3.obj
 0002:00023b14       ??_C@_0CK@FGPJ@?9bits_left?5?$DM?$DN?5MAD_BUFFER_GUARD?5?$CK@ 004feb14     libmad:layer3.obj
 0002:00023b40       ??_C@_0CB@CLHI@requantize?5overflow?5?$CI?$CFf?5?$CK?52?$FO?$CFd?$CJ?6@ 004feb40     libmad:layer3.obj
 0002:00023b68       __real@41b0000000000000    004feb68     libmad:layer3.obj
 0002:000251e4       _mad_huff_quad_table       005001e4     libmad:huffman.obj
 0002:000251f0       _mad_huff_pair_table       005001f0     libmad:huffman.obj
 0002:00026080       ??_C@_0O@FHMD@i386?2chkesp?4c?$AA@ 00501080     LIBCMTD:chkesp.obj
 0002:00026090       ??_C@_0NM@ELEE@The?5value?5of?5ESP?5was?5not?5properl@ 00501090     LIBCMTD:chkesp.obj
 0002:0002616c       ??_C@_0P@LNLA@format?5?$CB?$DN?5NULL?$AA@ 0050116c     LIBCMTD:sscanf.obj
 0002:0002617c       ??_C@_08EJDA@sscanf?4c?$AA@ 0050117c     LIBCMTD:sscanf.obj
 0002:00026188       ??_C@_0P@OOIN@string?5?$CB?$DN?5NULL?$AA@ 00501188     LIBCMTD:sscanf.obj
 0002:00026198       ??_C@_09NEAG@sprintf?4c?$AA@ 00501198     LIBCMTD:sprintf.obj
 0002:000261a4       ??_C@_08PHBD@fclose?4c?$AA@ 005011a4     LIBCMTD:fclose.obj
 0002:000261b0       ??_C@_0P@FHEA@stream?5?$CB?$DN?5NULL?$AA@ 005011b0     LIBCMTD:fclose.obj
 0002:000261c0       ??_C@_0M@KJPK@str?5?$CB?$DN?5NULL?$AA@ 005011c0     LIBCMTD:fclose.obj
 0002:000261cc       ??_C@_09DLOM@fprintf?4c?$AA@ 005011cc     LIBCMTD:fprintf.obj
 0002:000261d8       ??_C@_07HPAH@_file?4c?$AA@ 005011d8     LIBCMTD:_file.obj
 0002:000261e0       ??_C@_0BC@IPFL@?$CKmode?5?$CB?$DN?5_T?$CI?8?20?8?$CJ?$AA@ 005011e0     LIBCMTD:fopen.obj
 0002:000261f4       ??_C@_0N@BKPP@mode?5?$CB?$DN?5NULL?$AA@ 005011f4     LIBCMTD:fopen.obj
 0002:00026204       ??_C@_0BC@GOED@?$CKfile?5?$CB?$DN?5_T?$CI?8?20?8?$CJ?$AA@ 00501204     LIBCMTD:fopen.obj
 0002:00026218       ??_C@_07OMGG@fopen?4c?$AA@ 00501218     LIBCMTD:fopen.obj
 0002:00026220       ??_C@_0N@MCKG@file?5?$CB?$DN?5NULL?$AA@ 00501220     LIBCMTD:fopen.obj
 0002:00026230       ??_C@_08LLGM@gmtime?4c?$AA@ 00501230     LIBCMTD:gmtime.obj
 0002:0002624c       ??_C@_06DPMO@Client?$AA@   0050124c     LIBCMTD:dbgheap.obj
 0002:00026254       ??_C@_06BAFM@Ignore?$AA@   00501254     LIBCMTD:dbgheap.obj
 0002:0002625c       ??_C@_03DICE@CRT?$AA@      0050125c     LIBCMTD:dbgheap.obj
 0002:00026260       ??_C@_06BILL@Normal?$AA@   00501260     LIBCMTD:dbgheap.obj
 0002:00026268       ??_C@_04NEN@Free?$AA@      00501268     LIBCMTD:dbgheap.obj
 0002:0002627c       ??_C@_0DC@CGID@Error?3?5memory?5allocation?3?5bad?5me@ 0050127c     LIBCMTD:dbgheap.obj
 0002:000262b0       ??_C@_0CE@FMIA@Invalid?5allocation?5size?3?5?$CFu?5byte@ 005012b0     LIBCMTD:dbgheap.obj
 0002:000262d4       ??_C@_0CB@CPBI@Client?5hook?5allocation?5failure?4?6@ 005012d4     LIBCMTD:dbgheap.obj
 0002:000262f8       ??_C@_0DF@DKHF@Client?5hook?5allocation?5failure?5a@ 005012f8     LIBCMTD:dbgheap.obj
 0002:00026330       ??_C@_09IMJC@dbgheap?4c?$AA@ 00501330     LIBCMTD:dbgheap.obj
 0002:0002633c       ??_C@_0BC@EPKL@_CrtCheckMemory?$CI?$CJ?$AA@ 0050133c     LIBCMTD:dbgheap.obj
 0002:0002635c       ??_C@_0BK@JDHA@_pFirstBlock?5?$DN?$DN?5pOldBlock?$AA@ 0050135c     LIBCMTD:dbgheap.obj
 0002:00026378       ??_C@_0BJ@NMEF@_pLastBlock?5?$DN?$DN?5pOldBlock?$AA@ 00501378     LIBCMTD:dbgheap.obj
 0002:00026394       ??_C@_0DC@BOCN@fRealloc?5?$HM?$HM?5?$CI?$CBfRealloc?5?$CG?$CG?5pNewBl@ 00501394     LIBCMTD:dbgheap.obj
 0002:000263c8       ??_C@_0DK@DKOM@_BLOCK_TYPE?$CIpOldBlock?9?$DOnBlockUse@ 005013c8     LIBCMTD:dbgheap.obj
 0002:00026404       ??_C@_0EF@EDKM@pOldBlock?9?$DOnLine?5?$DN?$DN?5IGNORE_LINE?5@ 00501404     LIBCMTD:dbgheap.obj
 0002:0002644c       ??_C@_0CC@GPMO@_CrtIsValidHeapPointer?$CIpUserData@ 0050144c     LIBCMTD:dbgheap.obj
 0002:00026470       ??_C@_0CN@FHGE@Allocation?5too?5large?5or?5negative@ 00501470     LIBCMTD:dbgheap.obj
 0002:000264a0       ??_C@_0CE@EAMN@Client?5hook?5re?9allocation?5failur@ 005014a0     LIBCMTD:dbgheap.obj
 0002:000264c4       ??_C@_0DI@KKMM@Client?5hook?5re?9allocation?5failur@ 005014c4     LIBCMTD:dbgheap.obj
 0002:0002651c       ??_C@_0BG@JCEC@_pFirstBlock?5?$DN?$DN?5pHead?$AA@ 0050151c     LIBCMTD:dbgheap.obj
 0002:00026534       ??_C@_0BF@NLNN@_pLastBlock?5?$DN?$DN?5pHead?$AA@ 00501534     LIBCMTD:dbgheap.obj
 0002:0002654c       ??_C@_0BO@PLHH@pHead?9?$DOnBlockUse?5?$DN?$DN?5nBlockUse?$AA@ 0050154c     LIBCMTD:dbgheap.obj
 0002:0002656c       ??_C@_0DN@KKIO@pHead?9?$DOnLine?5?$DN?$DN?5IGNORE_LINE?5?$CG?$CG?5p@ 0050156c     LIBCMTD:dbgheap.obj
 0002:000265ac       ??_C@_0CK@OJNB@DAMAGE?3?5after?5?$CFhs?5block?5?$CI?$CD?$CFd?$CJ?5at@ 005015ac     LIBCMTD:dbgheap.obj
 0002:000265d8       ??_C@_0CL@IJIL@DAMAGE?3?5before?5?$CFhs?5block?5?$CI?$CD?$CFd?$CJ?5a@ 005015d8     LIBCMTD:dbgheap.obj
 0002:00026604       ??_C@_0CH@PHOC@_BLOCK_TYPE_IS_VALID?$CIpHead?9?$DOnBlo@ 00501604     LIBCMTD:dbgheap.obj
 0002:0002662c       ??_C@_0BL@MBNA@Client?5hook?5free?5failure?4?6?$AA@ 0050162c     LIBCMTD:dbgheap.obj
 0002:00026664       ??_C@_0DK@EKKL@memory?5check?5error?5at?50x?$CF08X?5?$DN?50@ 00501664     LIBCMTD:dbgheap.obj
 0002:000266a0       ??_C@_0CJ@GCII@?$CFhs?5located?5at?50x?$CF08X?5is?5?$CFu?5byte@ 005016a0     LIBCMTD:dbgheap.obj
 0002:000266cc       ??_C@_0CA@EJPI@?$CFhs?5allocated?5at?5file?5?$CFhs?$CI?$CFd?$CJ?4?6?$AA@ 005016cc     LIBCMTD:dbgheap.obj
 0002:000266ec       ??_C@_0CJ@LHHG@DAMAGE?3?5on?5top?5of?5Free?5block?5at?5@ 005016ec     LIBCMTD:dbgheap.obj
 0002:00026718       ??_C@_07GJHM@DAMAGED?$AA@  00501718     LIBCMTD:dbgheap.obj
 0002:00026720       ??_C@_0CL@ODIE@_heapchk?5fails?5with?5unknown?5retu@ 00501720     LIBCMTD:dbgheap.obj
 0002:0002674c       ??_C@_0CC@EHNC@_heapchk?5fails?5with?5_HEAPBADPTR?4@ 0050174c     LIBCMTD:dbgheap.obj
 0002:00026770       ??_C@_0CC@JNDP@_heapchk?5fails?5with?5_HEAPBADEND?4@ 00501770     LIBCMTD:dbgheap.obj
 0002:00026794       ??_C@_0CD@DNMG@_heapchk?5fails?5with?5_HEAPBADNODE@ 00501794     LIBCMTD:dbgheap.obj
 0002:000267b8       ??_C@_0CE@JMCB@_heapchk?5fails?5with?5_HEAPBADBEGI@ 005017b8     LIBCMTD:dbgheap.obj
 0002:0002680c       ??_C@_0CD@MEMI@Bad?5memory?5block?5found?5at?50x?$CF08X@ 0050180c     LIBCMTD:dbgheap.obj
 0002:00026830       ??_C@_0CI@GMAO@_CrtMemCheckPoint?3?5NULL?5state?5po@ 00501830     LIBCMTD:dbgheap.obj
 0002:00026864       ??_C@_0CI@MNAE@_CrtMemDifference?3?5NULL?5state?5po@ 00501864     LIBCMTD:dbgheap.obj
 0002:0002688c       ??_C@_0BH@PKIJ@Object?5dump?5complete?4?6?$AA@ 0050188c     LIBCMTD:dbgheap.obj
 0002:000268a4       ??_C@_0DB@DBPF@crt?5block?5at?50x?$CF08X?0?5subtype?5?$CFx?0@ 005018a4     LIBCMTD:dbgheap.obj
 0002:000268d8       ??_C@_0CI@JLM@normal?5block?5at?50x?$CF08X?0?5?$CFu?5bytes@ 005018d8     LIBCMTD:dbgheap.obj
 0002:00026900       ??_C@_0DE@PFEA@client?5block?5at?50x?$CF08X?0?5subtype?5@ 00501900     LIBCMTD:dbgheap.obj
 0002:00026934       ??_C@_06MBCE@?$HL?$CFld?$HN?5?$AA@ 00501934     LIBCMTD:dbgheap.obj
 0002:0002693c       ??_C@_0L@BLDJ@?$CFhs?$CI?$CFd?$CJ?5?3?5?$AA@ 0050193c     LIBCMTD:dbgheap.obj
 0002:00026948       ??_C@_0BE@FEMA@?$CDFile?5Error?$CD?$CI?$CFd?$CJ?5?3?5?$AA@ 00501948     LIBCMTD:dbgheap.obj
 0002:0002695c       ??_C@_0BE@FPPM@Dumping?5objects?5?9?$DO?6?$AA@ 0050195c     LIBCMTD:dbgheap.obj
 0002:0002697c       ??_C@_0BA@POLM@?5Data?3?5?$DM?$CFs?$DO?5?$CFs?6?$AA@ 0050197c     LIBCMTD:dbgheap.obj
 0002:0002698c       ??_C@_05JLAO@?$CF?42X?5?$AA@ 0050198c     LIBCMTD:dbgheap.obj
 0002:00026994       ??_C@_0BI@KONA@Detected?5memory?5leaks?$CB?6?$AA@ 00501994     LIBCMTD:dbgheap.obj
 0002:000269ac       ??_C@_0BP@LCCN@Total?5allocations?3?5?$CFld?5bytes?4?6?$AA@ 005019ac     LIBCMTD:dbgheap.obj
 0002:000269cc       ??_C@_0CB@COID@Largest?5number?5used?3?5?$CFld?5bytes?4?6@ 005019cc     LIBCMTD:dbgheap.obj
 0002:000269f0       ??_C@_0BO@MEJD@?$CFld?5bytes?5in?5?$CFld?5?$CFhs?5Blocks?4?6?$AA@ 005019f0     LIBCMTD:dbgheap.obj
 0002:00026a10       __real@8@3fff8000000000000000 00501a10     LIBCMTD:fabs.obj
 0002:00026a18       ??_C@_08GNFC@printf?4c?$AA@ 00501a18     LIBCMTD:printf.obj
 0002:00026a24       ??_C@_07HFEM@fseek?4c?$AA@ 00501a24     LIBCMTD:fseek.obj
 0002:00026a2c       ??_C@_02JJJH@?6?6?$AA@     00501a2c     LIBCMTD:assert.obj
 0002:00026a30       ??_C@_03NAME@?4?4?4?$AA@   00501a30     LIBCMTD:assert.obj
 0002:00026a34       ??_C@_0CF@JPDF@Microsoft?5Visual?5C?$CL?$CL?5Runtime?5Lib@ 00501a34     LIBCMTD:assert.obj
 0002:00026a5c       ??_C@_0DN@MHHJ@?$CIPress?5Retry?5to?5debug?5the?5applic@ 00501a5c     LIBCMTD:assert.obj
 0002:00026a9c       ??_C@_0HA@EJLJ@For?5information?5on?5how?5your?5prog@ 00501a9c     LIBCMTD:assert.obj
 0002:00026b0c       ??_C@_0N@NOAB@Expression?3?5?$AA@ 00501b0c     LIBCMTD:assert.obj
 0002:00026b1c       ??_C@_06JMOL@Line?3?5?$AA@ 00501b1c     LIBCMTD:assert.obj
 0002:00026b24       ??_C@_06FAAO@File?3?5?$AA@ 00501b24     LIBCMTD:assert.obj
 0002:00026b2c       ??_C@_0BH@NNCD@?$DMprogram?5name?5unknown?$DO?$AA@ 00501b2c     LIBCMTD:assert.obj
 0002:00026b44       ??_C@_09PIFG@Program?3?5?$AA@ 00501b44     LIBCMTD:assert.obj
 0002:00026b50       ??_C@_0BC@OIMC@Assertion?5failed?$CB?$AA@ 00501b50     LIBCMTD:assert.obj
 0002:00026b64       ??_C@_0BB@BLL@Assertion?5Failed?$AA@ 00501b64     LIBCMTD:dbgrpt.obj
 0002:00026b78       ??_C@_05CKBG@Error?$AA@    00501b78     LIBCMTD:dbgrpt.obj
 0002:00026b80       ??_C@_07JCGI@Warning?$AA@  00501b80     LIBCMTD:dbgrpt.obj
 0002:00026b88       ??_C@_0M@ODEP@?$CFs?$CI?$CFd?$CJ?5?3?5?$CFs?$AA@ 00501b88     LIBCMTD:dbgrpt.obj
 0002:00026b94       ??_C@_0BD@BEAK@Assertion?5failed?3?5?$AA@ 00501b94     LIBCMTD:dbgrpt.obj
 0002:00026ba8       ??_C@_0CL@LCCP@_CrtDbgReport?3?5String?5too?5long?5o@ 00501ba8     LIBCMTD:dbgrpt.obj
 0002:00026bd4       ??_C@_0DC@EMDK@Second?5Chance?5Assertion?5Failed?3?5@ 00501bd4     LIBCMTD:dbgrpt.obj
 0002:00026c08       ??_C@_09NJAK@wsprintfA?$AA@ 00501c08     LIBCMTD:dbgrpt.obj
 0002:00026c14       ??_C@_0L@HKL@user32?4dll?$AA@ 00501c14     LIBCMTD:dbgrpt.obj
 0002:00026c20       ??_C@_0CD@GCMD@Microsoft?5Visual?5C?$CL?$CL?5Debug?5Libra@ 00501c20     LIBCMTD:dbgrpt.obj
 0002:00026c44       ??_C@_0FD@EBDD@Debug?5?$CFs?$CB?6?6Program?3?5?$CFs?$CFs?$CFs?$CFs?$CFs?$CFs@ 00501c44     LIBCMTD:dbgrpt.obj
 0002:00026c98       ??_C@_09DCKN@?6Module?3?5?$AA@ 00501c98     LIBCMTD:dbgrpt.obj
 0002:00026ca4       ??_C@_07HJII@?6File?3?5?$AA@ 00501ca4     LIBCMTD:dbgrpt.obj
 0002:00026cac       ??_C@_07LFGN@?6Line?3?5?$AA@ 00501cac     LIBCMTD:dbgrpt.obj
 0002:00026cb4       ??_C@_0HD@BHFH@?6?6For?5information?5on?5how?5your?5pr@ 00501cb4     LIBCMTD:dbgrpt.obj
 0002:00026d28       ??_C@_08GFHP@dbgrpt?4c?$AA@ 00501d28     LIBCMTD:dbgrpt.obj
 0002:00026d34       ??_C@_0BG@FBEA@szUserMessage?5?$CB?$DN?5NULL?$AA@ 00501d34     LIBCMTD:dbgrpt.obj
 0002:00026d4c       ??_C@_0BK@JEGK@IsProcessorFeaturePresent?$AA@ 00501d4c     LIBCMTD:testfdiv.obj
 0002:00026d68       ??_C@_08OBID@KERNEL32?$AA@ 00501d68     LIBCMTD:testfdiv.obj
 0002:00026d78       __real@8@00000000000000000000 00501d78     LIBCMTD:cvt.obj
 0002:00026d80       ??_C@_05OFLO@e?$CL000?$AA@ 00501d80     LIBCMTD:cvt.obj
 0002:00026d88       ??_C@_07IEFA@input?4c?$AA@ 00501d88     LIBCMTD:input.obj
 0002:00026d90       ??_C@_0DP@IHIN@?$CI?$CCinconsistent?5IOB?5fields?$CC?0?5stre@ 00501d90     LIBCMTD:_flsbuf.obj
 0002:00026dd0       ??_C@_09LGEI@_flsbuf?4c?$AA@ 00501dd0     LIBCMTD:_flsbuf.obj
 0002:00026ddc       ___lookuptable             00501ddc     LIBCMTD:output.obj
 0002:00026e38       ??_C@_1O@POHA@?$AA?$CI?$AAn?$AAu?$AAl?$AAl?$AA?$CJ?$AA?$AA@ 00501e38     LIBCMTD:output.obj
 0002:00026e48       ??_C@_06ONKE@?$CInull?$CJ?$AA@ 00501e48     LIBCMTD:output.obj
 0002:00026e50       ??_C@_08MIHI@output?4c?$AA@ 00501e50     LIBCMTD:output.obj
 0002:00026e5c       ??_C@_0P@PIHB@ch?5?$CB?$DN?5_T?$CI?8?20?8?$CJ?$AA@ 00501e5c     LIBCMTD:output.obj
 0002:00026e6c       ??_C@_0L@JIE@_freebuf?4c?$AA@ 00501e6c     LIBCMTD:_freebuf.obj
 0002:00026e78       ??_C@_07PDLA@mlock?4c?$AA@ 00501e78     LIBCMTD:mlock.obj
 0002:00026e80       ??_C@_09JNND@_sftbuf?4c?$AA@ 00501e80     LIBCMTD:_sftbuf.obj
 0002:00026e8c       ??_C@_0BH@EOPG@flag?5?$DN?$DN?50?5?$HM?$HM?5flag?5?$DN?$DN?51?$AA@ 00501e8c     LIBCMTD:_sftbuf.obj
 0002:00026ea4       ??_C@_08KFDJ@ioinit?4c?$AA@ 00501ea4     LIBCMTD:ioinit.obj
 0002:00026eb0       ??_C@_07INLA@_open?4c?$AA@ 00501eb0     LIBCMTD:_open.obj
 0002:00026eb8       ??_C@_0BB@COCE@filename?5?$CB?$DN?5NULL?$AA@ 00501eb8     LIBCMTD:_open.obj
 0002:00026ecc       ??_C@_08HJEP@stream?4c?$AA@ 00501ecc     LIBCMTD:stream.obj
 0002:00026ed8       ??_C@_0L@ENLJ@tidtable?4c?$AA@ 00501ed8     LIBCMTD:tidtable.obj
 0002:00026ee4       ??_C@_09IGKD@stdenvp?4c?$AA@ 00501ee4     LIBCMTD:stdenvp.obj
 0002:00026ef0       ??_C@_09MPMN@stdargv?4c?$AA@ 00501ef0     LIBCMTD:stdargv.obj
 0002:00026efc       ??_C@_07BNNE@a_env?4c?$AA@ 00501efc     LIBCMTD:a_env.obj
 0002:00026f04       ??_C@_0BH@PHHF@__GLOBAL_HEAP_SELECTED?$AA@ 00501f04     LIBCMTD:heapinit.obj
 0002:00026f1c       ??_C@_0BF@BBGL@__MSVCRT_HEAP_SELECT?$AA@ 00501f1c     LIBCMTD:heapinit.obj
 0002:00026f34       ??_C@_0P@GGKG@runtime?5error?5?$AA@ 00501f34     LIBCMTD:crt0msg.obj
 0002:00026f44       ??_C@_0O@DELO@TLOSS?5error?$AN?6?$AA@ 00501f44     LIBCMTD:crt0msg.obj
 0002:00026f54       ??_C@_0N@OMLL@SING?5error?$AN?6?$AA@ 00501f54     LIBCMTD:crt0msg.obj
 0002:00026f64       ??_C@_0P@OJAK@DOMAIN?5error?$AN?6?$AA@ 00501f64     LIBCMTD:crt0msg.obj
 0002:00026f74       ??_C@_0CF@EANP@R6028?$AN?6?9?5unable?5to?5initialize?5he@ 00501f74     LIBCMTD:crt0msg.obj
 0002:00026f9c       ??_C@_0DF@ECGN@R6027?$AN?6?9?5not?5enough?5space?5for?5lo@ 00501f9c     LIBCMTD:crt0msg.obj
 0002:00026fd4       ??_C@_0DF@FKAC@R6026?$AN?6?9?5not?5enough?5space?5for?5st@ 00501fd4     LIBCMTD:crt0msg.obj
 0002:0002700c       ??_C@_0CG@DPMN@R6025?$AN?6?9?5pure?5virtual?5function?5c@ 0050200c     LIBCMTD:crt0msg.obj
 0002:00027034       ??_C@_0DF@CKIP@R6024?$AN?6?9?5not?5enough?5space?5for?5_o@ 00502034     LIBCMTD:crt0msg.obj
 0002:0002706c       ??_C@_0CJ@GGOE@R6019?$AN?6?9?5unable?5to?5open?5console?5@ 0050206c     LIBCMTD:crt0msg.obj
 0002:00027098       ??_C@_0CB@LBOB@R6018?$AN?6?9?5unexpected?5heap?5error?$AN?6@ 00502098     LIBCMTD:crt0msg.obj
 0002:000270bc       ??_C@_0CN@FPEG@R6017?$AN?6?9?5unexpected?5multithread?5@ 005020bc     LIBCMTD:crt0msg.obj
 0002:000270ec       ??_C@_0CM@OBIC@R6016?$AN?6?9?5not?5enough?5space?5for?5th@ 005020ec     LIBCMTD:crt0msg.obj
 0002:00027118       ??_C@_0CB@HPAL@?$AN?6abnormal?5program?5termination?$AN?6@ 00502118     LIBCMTD:crt0msg.obj
 0002:0002713c       ??_C@_0CM@JOOB@R6009?$AN?6?9?5not?5enough?5space?5for?5en@ 0050213c     LIBCMTD:crt0msg.obj
 0002:00027168       ??_C@_0CK@OIBL@R6008?$AN?6?9?5not?5enough?5space?5for?5ar@ 00502168     LIBCMTD:crt0msg.obj
 0002:00027194       ??_C@_0CF@LKPB@R6002?$AN?6?9?5floating?5point?5not?5load@ 00502194     LIBCMTD:crt0msg.obj
 0002:000271bc       ??_C@_0BK@DEOK@Runtime?5Error?$CB?6?6Program?3?5?$AA@ 005021bc     LIBCMTD:crt0msg.obj
 0002:00027258       __DEFAULT_CW_in_mem        00502258     LIBCMTD:common.obj
 0002:0002725a       __pi_by_2_to_61            0050225a     LIBCMTD:common.obj
 0002:00027294       ??_C@_03GAFO@_yn?$AA@      00502294     LIBCMTD:fpexcept.obj
 0002:00027298       ??_C@_03GNLD@_y1?$AA@      00502298     LIBCMTD:fpexcept.obj
 0002:0002729c       ??_C@_03MHCE@_y0?$AA@      0050229c     LIBCMTD:fpexcept.obj
 0002:000272a0       ??_C@_05PAK@frexp?$AA@     005022a0     LIBCMTD:fpexcept.obj
 0002:000272a8       ??_C@_04JKCH@fmod?$AA@     005022a8     LIBCMTD:fpexcept.obj
 0002:000272b0       ??_C@_06GGHF@_hypot?$AA@   005022b0     LIBCMTD:fpexcept.obj
 0002:000272b8       ??_C@_05JNMC@_cabs?$AA@    005022b8     LIBCMTD:fpexcept.obj
 0002:000272c0       ??_C@_05MEKH@ldexp?$AA@    005022c0     LIBCMTD:fpexcept.obj
 0002:000272c8       ??_C@_04KAOJ@modf?$AA@     005022c8     LIBCMTD:fpexcept.obj
 0002:000272d0       ??_C@_04EHAJ@fabs?$AA@     005022d0     LIBCMTD:fpexcept.obj
 0002:000272d8       ??_C@_05MFBN@floor?$AA@    005022d8     LIBCMTD:fpexcept.obj
 0002:000272e0       ??_C@_04JJMP@ceil?$AA@     005022e0     LIBCMTD:fpexcept.obj
 0002:000272e8       ??_C@_03JLPI@tan?$AA@      005022e8     LIBCMTD:fpexcept.obj
 0002:000272ec       ??_C@_03DLFL@cos?$AA@      005022ec     LIBCMTD:fpexcept.obj
 0002:000272f0       ??_C@_03JAMN@sin?$AA@      005022f0     LIBCMTD:fpexcept.obj
 0002:000272f4       ??_C@_04LMBE@sqrt?$AA@     005022f4     LIBCMTD:fpexcept.obj
 0002:000272fc       ??_C@_05BFPO@atan2?$AA@    005022fc     LIBCMTD:fpexcept.obj
 0002:00027304       ??_C@_04EAGN@atan?$AA@     00502304     LIBCMTD:fpexcept.obj
 0002:0002730c       ??_C@_04OAMO@acos?$AA@     0050230c     LIBCMTD:fpexcept.obj
 0002:00027314       ??_C@_04ELFI@asin?$AA@     00502314     LIBCMTD:fpexcept.obj
 0002:0002731c       ??_C@_04LFAD@tanh?$AA@     0050231c     LIBCMTD:fpexcept.obj
 0002:00027324       ??_C@_04PFKD@cosh?$AA@     00502324     LIBCMTD:fpexcept.obj
 0002:0002732c       ??_C@_04NPAI@sinh?$AA@     0050232c     LIBCMTD:fpexcept.obj
 0002:00027334       ??_C@_05IJHH@log10?$AA@    00502334     LIBCMTD:fpexcept.obj
 0002:0002733c       ??_C@_03BGKD@log?$AA@      0050233c     LIBCMTD:fpexcept.obj
 0002:00027340       ??_C@_03EGFG@pow?$AA@      00502340     LIBCMTD:fpexcept.obj
 0002:00027344       ??_C@_03CDGJ@exp?$AA@      00502344     LIBCMTD:fpexcept.obj
 0002:00027348       ??_C@_07CMIP@ftell?4c?$AA@ 00502348     LIBCMTD:ftell.obj
 0002:00027350       ??_C@_08CNMA@winsig?4c?$AA@ 00502350     LIBCMTD:winsig.obj
 0002:0002735c       ??_C@_0BD@NJFP@GetLastActivePopup?$AA@ 0050235c     LIBCMTD:crtmbox.obj
 0002:00027370       ??_C@_0BA@GILI@GetActiveWindow?$AA@ 00502370     LIBCMTD:crtmbox.obj
 0002:00027380       ??_C@_0M@PKCK@MessageBoxA?$AA@ 00502380     LIBCMTD:crtmbox.obj
 0002:0002738c       ??_C@_09GCII@setvbuf?4c?$AA@ 0050238c     LIBCMTD:setvbuf.obj
 0002:00027398       ??_C@_0L@HE@vsprintf?4c?$AA@ 00502398     LIBCMTD:vsnprint.obj
 0002:000273a4       ??_C@_13A@?$AA?$AA?$AA?$AA@ 005023a4     LIBCMTD:a_str.obj
 0002:000273b4       ??_C@_08MOLN@mbtowc?4c?$AA@ 005023b4     LIBCMTD:mbtowc.obj
 0002:000273c0       ??_C@_0CD@NPPL@MB_CUR_MAX?5?$DN?$DN?51?5?$HM?$HM?5MB_CUR_MAX?5?$DN?$DN@ 005023c0     LIBCMTD:mbtowc.obj
 0002:000273e4       ??_C@_09DNOI@_filbuf?4c?$AA@ 005023e4     LIBCMTD:_filbuf.obj
 0002:000273f0       ??_C@_08JKP@ungetc?4c?$AA@ 005023f0     LIBCMTD:ungetc.obj
 0002:000273fc       ??_C@_09EMDO@_getbuf?4c?$AA@ 005023fc     LIBCMTD:_getbuf.obj
 0002:00027408       ??_C@_09LNLM@osfinfo?4c?$AA@ 00502408     LIBCMTD:osfinfo.obj
 0002:00027414       ___dnames                  00502414     LIBCMTD:timeset.obj
 0002:0002742c       ___mnames                  0050242c     LIBCMTD:timeset.obj
 0002:00027454       ??_C@_07DEKI@tzset?4c?$AA@ 00502454     LIBCMTD:tzset.obj
 0002:0002745c       ??_C@_02JHIA@TZ?$AA@       0050245c     LIBCMTD:tzset.obj
 0002:00027460       __real@8@40008000000000000000 00502460     LIBCMTD:powhlp.obj
 0002:00027468       ??_C@_07PCLE@LC_TIME?$AA@  00502468     LIBCMTD:setlocal.obj
 0002:00027470       ??_C@_0L@NKG@LC_NUMERIC?$AA@ 00502470     LIBCMTD:setlocal.obj
 0002:0002747c       ??_C@_0M@CBIH@LC_MONETARY?$AA@ 0050247c     LIBCMTD:setlocal.obj
 0002:00027488       ??_C@_08LFGE@LC_CTYPE?$AA@ 00502488     LIBCMTD:setlocal.obj
 0002:00027494       ??_C@_0L@CFLC@LC_COLLATE?$AA@ 00502494     LIBCMTD:setlocal.obj
 0002:000274a0       ??_C@_06GCPK@LC_ALL?$AA@   005024a0     LIBCMTD:setlocal.obj
 0002:000274a8       ??_C@_01FAJB@?$DL?$AA@     005024a8     LIBCMTD:setlocal.obj
 0002:000274ac       ??_C@_02BGDO@?$DN?$DL?$AA@ 005024ac     LIBCMTD:setlocal.obj
 0002:000274b0       ??_C@_0L@MOEE@setlocal?4c?$AA@ 005024b0     LIBCMTD:setlocal.obj
 0002:000274bc       ??_C@_03DBOJ@_?4?0?$AA@    005024bc     LIBCMTD:setlocal.obj
 0002:000274c0       ??_C@_01PJCK@?4?$AA@       005024c0     LIBCMTD:setlocal.obj
 0002:000274e0       ??_C@_06PAPI@1?$CDQNAN?$AA@ 005024e0     LIBCMTD:x10fout.obj
 0002:000274e8       ??_C@_05BGNL@1?$CDINF?$AA@ 005024e8     LIBCMTD:x10fout.obj
 0002:000274f0       ??_C@_05EDPF@1?$CDIND?$AA@ 005024f0     LIBCMTD:x10fout.obj
 0002:000274f8       ??_C@_06LKFM@1?$CDSNAN?$AA@ 005024f8     LIBCMTD:x10fout.obj
 0002:00027500       ??_C@_08EIOK@chsize?4c?$AA@ 00502500     LIBCMTD:chsize.obj
 0002:0002750c       ??_C@_09NPGF@size?5?$DO?$DN?50?$AA@ 0050250c     LIBCMTD:chsize.obj
 0002:00027518       ??_C@_0L@EEGJ@inittime?4c?$AA@ 00502518     LIBCMTD:inittime.obj
 0002:00027524       ??_C@_09IMJJ@initnum?4c?$AA@ 00502524     LIBCMTD:initnum.obj
 0002:00027530       ??_C@_09KPNI@initmon?4c?$AA@ 00502530     LIBCMTD:initmon.obj
 0002:0002753c       ??_C@_0L@COIL@initctyp?4c?$AA@ 0050253c     LIBCMTD:initctyp.obj
 0002:00027548       ??_C@_08OBJD@Paraguay?$AA@ 00502548     LIBCMTD:getqloc.obj
 0002:00027554       ??_C@_07GLKH@Uruguay?$AA@  00502554     LIBCMTD:getqloc.obj
 0002:0002755c       ??_C@_05FPFC@Chile?$AA@    0050255c     LIBCMTD:getqloc.obj
 0002:00027564       ??_C@_07IIGF@Ecuador?$AA@  00502564     LIBCMTD:getqloc.obj
 0002:0002756c       ??_C@_09PKAL@Argentina?$AA@ 0050256c     LIBCMTD:getqloc.obj
 0002:00027578       ??_C@_04LKAH@Peru?$AA@     00502578     LIBCMTD:getqloc.obj
 0002:00027580       ??_C@_08NEEM@Colombia?$AA@ 00502580     LIBCMTD:getqloc.obj
 0002:0002758c       ??_C@_09ODEB@Venezuela?$AA@ 0050258c     LIBCMTD:getqloc.obj
 0002:00027598       ??_C@_0BD@CLEL@Dominican?5Republic?$AA@ 00502598     LIBCMTD:getqloc.obj
 0002:000275ac       ??_C@_0N@MDGL@South?5Africa?$AA@ 005025ac     LIBCMTD:getqloc.obj
 0002:000275bc       ??_C@_06NKBG@Panama?$AA@   005025bc     LIBCMTD:getqloc.obj
 0002:000275c4       ??_C@_0L@BMHO@Luxembourg?$AA@ 005025c4     LIBCMTD:getqloc.obj
 0002:000275d0       ??_C@_0L@IMDK@Costa?5Rica?$AA@ 005025d0     LIBCMTD:getqloc.obj
 0002:000275dc       ??_C@_0M@BLJF@Switzerland?$AA@ 005025dc     LIBCMTD:getqloc.obj
 0002:000275e8       ??_C@_09KBOL@Guatemala?$AA@ 005025e8     LIBCMTD:getqloc.obj
 0002:000275f4       ??_C@_06JNAK@Canada?$AA@   005025f4     LIBCMTD:getqloc.obj
 0002:000275fc       ??_C@_0BG@OLLP@Spanish?5?9?5Modern?5Sort?$AA@ 005025fc     LIBCMTD:getqloc.obj
 0002:00027614       ??_C@_09IDKE@Australia?$AA@ 00502614     LIBCMTD:getqloc.obj
 0002:00027620       ??_C@_07JJJJ@English?$AA@  00502620     LIBCMTD:getqloc.obj
 0002:00027628       ??_C@_07NMDO@Austria?$AA@  00502628     LIBCMTD:getqloc.obj
 0002:00027630       ??_C@_06DEFE@German?$AA@   00502630     LIBCMTD:getqloc.obj
 0002:00027638       ??_C@_07JAIH@Belgium?$AA@  00502638     LIBCMTD:getqloc.obj
 0002:00027640       ??_C@_06BNLJ@Mexico?$AA@   00502640     LIBCMTD:getqloc.obj
 0002:00027648       ??_C@_07JHAG@Spanish?$AA@  00502648     LIBCMTD:getqloc.obj
 0002:00027650       ??_C@_06DADE@Basque?$AA@   00502650     LIBCMTD:getqloc.obj
 0002:00027658       ??_C@_06ENFP@Sweden?$AA@   00502658     LIBCMTD:getqloc.obj
 0002:00027660       ??_C@_07JPMH@Swedish?$AA@  00502660     LIBCMTD:getqloc.obj
 0002:00027668       ??_C@_07IEKF@Iceland?$AA@  00502668     LIBCMTD:getqloc.obj
 0002:00027670       ??_C@_09KNEA@Icelandic?$AA@ 00502670     LIBCMTD:getqloc.obj
 0002:0002767c       ??_C@_06IJOD@France?$AA@   0050267c     LIBCMTD:getqloc.obj
 0002:00027684       ??_C@_06EINI@French?$AA@   00502684     LIBCMTD:getqloc.obj
 0002:0002768c       ??_C@_07FOOE@Finland?$AA@  0050268c     LIBCMTD:getqloc.obj
 0002:00027694       ??_C@_07OJOM@Finnish?$AA@  00502694     LIBCMTD:getqloc.obj
 0002:0002769c       ??_C@_05FFAC@Spain?$AA@    0050269c     LIBCMTD:getqloc.obj
 0002:000276a4       ??_C@_0BL@BIHM@Spanish?5?9?5Traditional?5Sort?$AA@ 005026a4     LIBCMTD:getqloc.obj
 0002:000276c0       ??_C@_0O@GLHB@united?9states?$AA@ 005026c0     LIBCMTD:getqloc.obj
 0002:000276d0       ??_C@_0P@IIKK@united?9kingdom?$AA@ 005026d0     LIBCMTD:getqloc.obj
 0002:000276e0       ??_C@_0BC@FHBO@trinidad?5?$CG?5tobago?$AA@ 005026e0     LIBCMTD:getqloc.obj
 0002:000276f4       ??_C@_0M@BDFM@south?9korea?$AA@ 005026f4     LIBCMTD:getqloc.obj
 0002:00027700       ??_C@_0N@CKFA@south?9africa?$AA@ 00502700     LIBCMTD:getqloc.obj
 0002:00027710       ??_C@_0M@HNHN@south?5korea?$AA@ 00502710     LIBCMTD:getqloc.obj
 0002:0002771c       ??_C@_0N@MKDO@south?5africa?$AA@ 0050271c     LIBCMTD:getqloc.obj
 0002:0002772c       ??_C@_06KFFJ@slovak?$AA@   0050272c     LIBCMTD:getqloc.obj
 0002:00027734       ??_C@_0M@NMAC@puerto?9rico?$AA@ 00502734     LIBCMTD:getqloc.obj
 0002:00027740       ??_C@_08EJOH@pr?9china?$AA@ 00502740     LIBCMTD:getqloc.obj
 0002:0002774c       ??_C@_08CHMG@pr?5china?$AA@ 0050274c     LIBCMTD:getqloc.obj
 0002:00027758       ??_C@_02OCJK@nz?$AA@       00502758     LIBCMTD:getqloc.obj
 0002:0002775c       ??_C@_0M@MMKA@new?9zealand?$AA@ 0050275c     LIBCMTD:getqloc.obj
 0002:00027768       ??_C@_09MGEH@hong?9kong?$AA@ 00502768     LIBCMTD:getqloc.obj
 0002:00027774       ??_C@_07CCAK@holland?$AA@  00502774     LIBCMTD:getqloc.obj
 0002:0002777c       ??_C@_0O@MEPL@great?5britain?$AA@ 0050277c     LIBCMTD:getqloc.obj
 0002:0002778c       ??_C@_07LGIB@england?$AA@  0050278c     LIBCMTD:getqloc.obj
 0002:00027794       ??_C@_05BMOA@czech?$AA@    00502794     LIBCMTD:getqloc.obj
 0002:0002779c       ??_C@_05NMPB@china?$AA@    0050279c     LIBCMTD:getqloc.obj
 0002:000277a4       ??_C@_07GN@britain?$AA@    005027a4     LIBCMTD:getqloc.obj
 0002:000277ac       ??_C@_07DLAK@america?$AA@  005027ac     LIBCMTD:getqloc.obj
 0002:000277b4       ??_C@_03IPEP@usa?$AA@      005027b4     LIBCMTD:getqloc.obj
 0002:000277b8       ??_C@_02PILH@us?$AA@       005027b8     LIBCMTD:getqloc.obj
 0002:000277bc       ??_C@_02FHP@uk?$AA@        005027bc     LIBCMTD:getqloc.obj
 0002:000277c0       ??_C@_05DEAI@swiss?$AA@    005027c0     LIBCMTD:getqloc.obj
 0002:000277c8       ??_C@_0BA@LIAF@swedish?9finland?$AA@ 005027c8     LIBCMTD:getqloc.obj
 0002:000277d8       ??_C@_0BC@FMEG@spanish?9venezuela?$AA@ 005027d8     LIBCMTD:getqloc.obj
 0002:000277ec       ??_C@_0BA@BNMG@spanish?9uruguay?$AA@ 005027ec     LIBCMTD:getqloc.obj
 0002:000277fc       ??_C@_0BE@BKDJ@spanish?9puerto?5rico?$AA@ 005027fc     LIBCMTD:getqloc.obj
 0002:00027810       ??_C@_0N@JIBL@spanish?9peru?$AA@ 00502810     LIBCMTD:getqloc.obj
 0002:00027820       ??_C@_0BB@OGOF@spanish?9paraguay?$AA@ 00502820     LIBCMTD:getqloc.obj
 0002:00027834       ??_C@_0P@LLFA@spanish?9panama?$AA@ 00502834     LIBCMTD:getqloc.obj
 0002:00027844       ??_C@_0BC@BBJM@spanish?9nicaragua?$AA@ 00502844     LIBCMTD:getqloc.obj
 0002:00027858       ??_C@_0P@NJBN@spanish?9modern?$AA@ 00502858     LIBCMTD:getqloc.obj
 0002:00027868       ??_C@_0BA@NHDN@spanish?9mexican?$AA@ 00502868     LIBCMTD:getqloc.obj
 0002:00027878       ??_C@_0BB@JHOJ@spanish?9honduras?$AA@ 00502878     LIBCMTD:getqloc.obj
 0002:0002788c       ??_C@_0BC@BOOM@spanish?9guatemala?$AA@ 0050288c     LIBCMTD:getqloc.obj
 0002:000278a0       ??_C@_0BE@EELI@spanish?9el?5salvador?$AA@ 005028a0     LIBCMTD:getqloc.obj
 0002:000278b4       ??_C@_0BA@POAE@spanish?9ecuador?$AA@ 005028b4     LIBCMTD:getqloc.obj
 0002:000278c4       ??_C@_0BL@LDKN@spanish?9dominican?5republic?$AA@ 005028c4     LIBCMTD:getqloc.obj
 0002:000278e0       ??_C@_0BD@HPMH@spanish?9costa?5rica?$AA@ 005028e0     LIBCMTD:getqloc.obj
 0002:000278f4       ??_C@_0BB@NDDK@spanish?9colombia?$AA@ 005028f4     LIBCMTD:getqloc.obj
 0002:00027908       ??_C@_0O@BJHA@spanish?9chile?$AA@ 00502908     LIBCMTD:getqloc.obj
 0002:00027918       ??_C@_0BA@OBNG@spanish?9bolivia?$AA@ 00502918     LIBCMTD:getqloc.obj
 0002:00027928       ??_C@_0BC@EFAM@spanish?9argentina?$AA@ 00502928     LIBCMTD:getqloc.obj
 0002:0002793c       ??_C@_0BF@KMMM@portuguese?9brazilian?$AA@ 0050293c     LIBCMTD:getqloc.obj
 0002:00027954       ??_C@_0BC@BAAE@norwegian?9nynorsk?$AA@ 00502954     LIBCMTD:getqloc.obj
 0002:00027968       ??_C@_0BB@PBHK@norwegian?9bokmal?$AA@ 00502968     LIBCMTD:getqloc.obj
 0002:0002797c       ??_C@_09EHKL@norwegian?$AA@ 0050297c     LIBCMTD:getqloc.obj
 0002:00027988       ??_C@_0O@BEAN@italian?9swiss?$AA@ 00502988     LIBCMTD:getqloc.obj
 0002:00027998       ??_C@_0O@OIFK@irish?9english?$AA@ 00502998     LIBCMTD:getqloc.obj
 0002:000279a8       ??_C@_0N@NBPL@german?9swiss?$AA@ 005029a8     LIBCMTD:getqloc.obj
 0002:000279b8       ??_C@_0BC@ICFJ@german?9luxembourg?$AA@ 005029b8     LIBCMTD:getqloc.obj
 0002:000279cc       ??_C@_0BE@GGPC@german?9lichtenstein?$AA@ 005029cc     LIBCMTD:getqloc.obj
 0002:000279e0       ??_C@_0BA@MKDC@german?9austrian?$AA@ 005029e0     LIBCMTD:getqloc.obj
 0002:000279f0       ??_C@_0N@ODNB@french?9swiss?$AA@ 005029f0     LIBCMTD:getqloc.obj
 0002:00027a00       ??_C@_0BC@MGCM@french?9luxembourg?$AA@ 00502a00     LIBCMTD:getqloc.obj
 0002:00027a14       ??_C@_0BA@NABK@french?9canadian?$AA@ 00502a14     LIBCMTD:getqloc.obj
 0002:00027a24       ??_C@_0P@CJNO@french?9belgian?$AA@ 00502a24     LIBCMTD:getqloc.obj
 0002:00027a34       ??_C@_0M@LJOL@english?9usa?$AA@ 00502a34     LIBCMTD:getqloc.obj
 0002:00027a40       ??_C@_0L@FMNC@english?9us?$AA@ 00502a40     LIBCMTD:getqloc.obj
 0002:00027a4c       ??_C@_0L@KBBK@english?9uk?$AA@ 00502a4c     LIBCMTD:getqloc.obj
 0002:00027a58       ??_C@_0BK@NDDE@english?9trinidad?5y?5tobago?$AA@ 00502a58     LIBCMTD:getqloc.obj
 0002:00027a74       ??_C@_0BF@LKML@english?9south?5africa?$AA@ 00502a74     LIBCMTD:getqloc.obj
 0002:00027a8c       ??_C@_0L@EGPP@english?9nz?$AA@ 00502a8c     LIBCMTD:getqloc.obj
 0002:00027a98       ??_C@_0BA@HLH@english?9jamaica?$AA@ 00502a98     LIBCMTD:getqloc.obj
 0002:00027aa8       ??_C@_0M@PMJI@english?9ire?$AA@ 00502aa8     LIBCMTD:getqloc.obj
 0002:00027ab4       ??_C@_0BC@HINE@english?9caribbean?$AA@ 00502ab4     LIBCMTD:getqloc.obj
 0002:00027ac8       ??_C@_0M@DCFH@english?9can?$AA@ 00502ac8     LIBCMTD:getqloc.obj
 0002:00027ad4       ??_C@_0P@DGHK@english?9belize?$AA@ 00502ad4     LIBCMTD:getqloc.obj
 0002:00027ae4       ??_C@_0M@FLHK@english?9aus?$AA@ 00502ae4     LIBCMTD:getqloc.obj
 0002:00027af0       ??_C@_0BB@HNCK@english?9american?$AA@ 00502af0     LIBCMTD:getqloc.obj
 0002:00027b04       ??_C@_0O@PAMI@dutch?9belgian?$AA@ 00502b04     LIBCMTD:getqloc.obj
 0002:00027b14       ??_C@_0BE@FPEJ@chinese?9traditional?$AA@ 00502b14     LIBCMTD:getqloc.obj
 0002:00027b28       ??_C@_0BC@CHFL@chinese?9singapore?$AA@ 00502b28     LIBCMTD:getqloc.obj
 0002:00027b3c       ??_C@_0BD@DCMH@chinese?9simplified?$AA@ 00502b3c     LIBCMTD:getqloc.obj
 0002:00027b50       ??_C@_0BB@JMOE@chinese?9hongkong?$AA@ 00502b50     LIBCMTD:getqloc.obj
 0002:00027b64       ??_C@_07NGFN@chinese?$AA@  00502b64     LIBCMTD:getqloc.obj
 0002:00027b6c       ??_C@_03PCOI@chi?$AA@      00502b6c     LIBCMTD:getqloc.obj
 0002:00027b70       ??_C@_03FIHP@chh?$AA@      00502b70     LIBCMTD:getqloc.obj
 0002:00027b74       ??_C@_08HFLO@canadian?$AA@ 00502b74     LIBCMTD:getqloc.obj
 0002:00027b80       ??_C@_07INIJ@belgian?$AA@  00502b80     LIBCMTD:getqloc.obj
 0002:00027b88       ??_C@_0L@LCCA@australian?$AA@ 00502b88     LIBCMTD:getqloc.obj
 0002:00027b94       ??_C@_0BB@BJIO@american?9english?$AA@ 00502b94     LIBCMTD:getqloc.obj
 0002:00027ba8       ??_C@_0BB@DAGO@american?5english?$AA@ 00502ba8     LIBCMTD:getqloc.obj
 0002:00027bbc       ??_C@_08HENB@american?$AA@ 00502bbc     LIBCMTD:getqloc.obj
 0002:00027bc8       ??_C@_03DGJE@OCP?$AA@      00502bc8     LIBCMTD:getqloc.obj
 0002:00027bcc       ??_C@_03EKFG@ACP?$AA@      00502bcc     LIBCMTD:getqloc.obj
 0002:00027bd0       ??_C@_0L@EJNO@wtombenv?4c?$AA@ 00502bd0     LIBCMTD:wtombenv.obj
 0002:00027bdc       ??_C@_07CJME@H?3mm?3ss?$AA@ 00502bdc     LIBCMTD:strftime.obj
 0002:00027be4       ??_C@_0BE@MHI@dddd?0?5MMMM?5dd?0?5yyyy?$AA@ 00502be4     LIBCMTD:strftime.obj
 0002:00027bf8       ??_C@_06HCAD@M?1d?1yy?$AA@ 00502bf8     LIBCMTD:strftime.obj
 0002:00027c00       ??_C@_02DBLP@PM?$AA@       00502c00     LIBCMTD:strftime.obj
 0002:00027c04       ??_C@_02ENLM@AM?$AA@       00502c04     LIBCMTD:strftime.obj
 0002:00027c08       ??_C@_08LIDF@December?$AA@ 00502c08     LIBCMTD:strftime.obj
 0002:00027c14       ??_C@_08NJLI@November?$AA@ 00502c14     LIBCMTD:strftime.obj
 0002:00027c20       ??_C@_07IAMM@October?$AA@  00502c20     LIBCMTD:strftime.obj
 0002:00027c28       ??_C@_09MKGD@September?$AA@ 00502c28     LIBCMTD:strftime.obj
 0002:00027c34       ??_C@_06PADP@August?$AA@   00502c34     LIBCMTD:strftime.obj
 0002:00027c3c       ??_C@_04PIJO@July?$AA@     00502c3c     LIBCMTD:strftime.obj
 0002:00027c44       ??_C@_04ICFP@June?$AA@     00502c44     LIBCMTD:strftime.obj
 0002:00027c4c       ??_C@_05JFGC@April?$AA@    00502c4c     LIBCMTD:strftime.obj
 0002:00027c54       ??_C@_05FGPD@March?$AA@    00502c54     LIBCMTD:strftime.obj
 0002:00027c5c       ??_C@_08PGBA@February?$AA@ 00502c5c     LIBCMTD:strftime.obj
 0002:00027c68       ??_C@_07BPKJ@January?$AA@  00502c68     LIBCMTD:strftime.obj
 0002:00027c70       ??_C@_03PGJO@Dec?$AA@      00502c70     LIBCMTD:strftime.obj
 0002:00027c74       ??_C@_03PDLM@Nov?$AA@      00502c74     LIBCMTD:strftime.obj
 0002:00027c78       ??_C@_03BLHK@Oct?$AA@      00502c78     LIBCMTD:strftime.obj
 0002:00027c7c       ??_C@_03DPFM@Sep?$AA@      00502c7c     LIBCMTD:strftime.obj
 0002:00027c80       ??_C@_03CMCH@Aug?$AA@      00502c80     LIBCMTD:strftime.obj
 0002:00027c84       ??_C@_03OBKI@Jul?$AA@      00502c84     LIBCMTD:strftime.obj
 0002:00027c88       ??_C@_03LEIG@Jun?$AA@      00502c88     LIBCMTD:strftime.obj
 0002:00027c8c       ??_C@_03MGHB@May?$AA@      00502c8c     LIBCMTD:strftime.obj
 0002:00027c90       ??_C@_03MJJM@Apr?$AA@      00502c90     LIBCMTD:strftime.obj
 0002:00027c94       ??_C@_03GNHA@Mar?$AA@      00502c94     LIBCMTD:strftime.obj
 0002:00027c98       ??_C@_03PICE@Feb?$AA@      00502c98     LIBCMTD:strftime.obj
 0002:00027c9c       ??_C@_03IEIF@Jan?$AA@      00502c9c     LIBCMTD:strftime.obj
 0002:00027ca0       ??_C@_08FAKH@Saturday?$AA@ 00502ca0     LIBCMTD:strftime.obj
 0002:00027cac       ??_C@_06ONCK@Friday?$AA@   00502cac     LIBCMTD:strftime.obj
 0002:00027cb4       ??_C@_08CCFO@Thursday?$AA@ 00502cb4     LIBCMTD:strftime.obj
 0002:00027cc0       ??_C@_09PBIN@Wednesday?$AA@ 00502cc0     LIBCMTD:strftime.obj
 0002:00027ccc       ??_C@_07BMBC@Tuesday?$AA@  00502ccc     LIBCMTD:strftime.obj
 0002:00027cd4       ??_C@_06CHLK@Monday?$AA@   00502cd4     LIBCMTD:strftime.obj
 0002:00027cdc       ??_C@_06OOEM@Sunday?$AA@   00502cdc     LIBCMTD:strftime.obj
 0002:00027ce4       ??_C@_03MPKK@Sat?$AA@      00502ce4     LIBCMTD:strftime.obj
 0002:00027ce8       ??_C@_03FINJ@Fri?$AA@      00502ce8     LIBCMTD:strftime.obj
 0002:00027cec       ??_C@_03HIKC@Thu?$AA@      00502cec     LIBCMTD:strftime.obj
 0002:00027cf0       ??_C@_03HECK@Wed?$AA@      00502cf0     LIBCMTD:strftime.obj
 0002:00027cf4       ??_C@_03ECCP@Tue?$AA@      00502cf4     LIBCMTD:strftime.obj
 0002:00027cf8       ??_C@_03PIEP@Mon?$AA@      00502cf8     LIBCMTD:strftime.obj
 0002:00027cfc       ??_C@_03FHEP@Sun?$AA@      00502cfc     LIBCMTD:strftime.obj
 0002:00027d00       ??_C@_03MKGK@a?1p?$AA@     00502d00     LIBCMTD:strftime.obj
 0002:00027d04       ??_C@_05BDJK@am?1pm?$AA@   00502d04     LIBCMTD:strftime.obj
 0002:00027d0c       ??_C@_0L@HKCB@inithelp?4c?$AA@ 00502d0c     LIBCMTD:inithelp.obj
 0002:00027d30       ??_C@_07FOIK@a_cmp?4c?$AA@ 00502d30     LIBCMTD:a_cmp.obj
 0002:00027d38       ??_C@_0DN@PPKB@cchCount1?$DN?$DN0?5?$CG?$CG?5cchCount2?$DN?$DN1?5?$HM?$HM?5@ 00502d38     LIBCMTD:a_cmp.obj
 0002:00027d90       ??_C@_08FEIK@setenv?4c?$AA@ 00502d90     LIBCMTD:setenv.obj
 0002:00027dbc       ??_C@_08ENH@strupr?4c?$AA@ 00502dbc     LIBCD:strupr.obj
 0002:00027dc8       ??_C@_08FNDD@strlwr?4c?$AA@ 00502dc8     LIBCD:strlwr.obj
 0003:00000000       ___xc_a                    00503000     LIBCMTD:crt0init.obj
 0003:00000004       ___xc_z                    00503004     LIBCMTD:crt0init.obj
 0003:00000008       ___xi_a                    00503008     LIBCMTD:crt0init.obj
 0003:00000014       ___xi_z                    00503014     LIBCMTD:crt0init.obj
 0003:00000018       ___xp_a                    00503018     LIBCMTD:crt0init.obj
 0003:00000020       ___xp_z                    00503020     LIBCMTD:crt0init.obj
 0003:00000024       ___xt_a                    00503024     LIBCMTD:crt0init.obj
 0003:00000028       ___xt_z                    00503028     LIBCMTD:crt0init.obj
 0003:00000ec0       _bitmask                   00503ec0     bcdmux.obj
 0003:00000f48       _ControlBaseSocket         00503f48     ControlServer.obj
 0003:00000f4c       _ControlSocket             00503f4c     ControlServer.obj
 0003:00000fa8       _szBaseHelp                00503fa8     ControlServer.obj
 0003:00001e40       _DefHufDat                 00504e40     dn_huffman.obj
 0003:00002040       _DefHufTab                 00505040     dn_huffman.obj
 0003:00002048       _Table255                  00505048     dn_huffman.obj
 0003:00002444       _ExtHufTab                 00505444     dn_huffman.obj
 0003:00002498       _tsid                      00505498     formatter.obj
 0003:00021ec4       _nLayer1Rates              00524ec4     formatter.obj
 0003:00021f00       _nLayer2Rates              00524f00     formatter.obj
 0003:00021f3c       _nLayer3Rates              00524f3c     formatter.obj
 0003:00021f78       _sky_genre_sport           00524f78     sky_epg.obj
 0003:00021fd0       _sky_genre_movies1         00524fd0     sky_epg.obj
 0003:00022010       _sky_genre_movies2         00525010     sky_epg.obj
 0003:00022020       _sky_genre_entertainment   00525020     sky_epg.obj
 0003:00022060       _sky_genre_main            00525060     sky_epg.obj
 0003:000220a0       _sky_rating                005250a0     sky_epg.obj
 0003:000220e0       _sky_genre_kids            005250e0     sky_epg.obj
 0003:0002211c       _seq_low                   0052511c     sky_epg.obj
 0003:00022120       _odict                     00525120     sky_huffman.obj
 0003:00022528       _edict                     00525528     sky_huffman.obj
 0003:00022930       _wdict                     00525930     sky_huffman.obj
 0003:0002b570       _gszAppName                0052e570     TSReader.obj
 0003:0002b590       _gszMainClass              0052e590     TSReader.obj
 0003:0002b690       _gszEPGGridClass           0052e690     TSReader.obj
 0003:0002b6a4       _gszChartClass             0052e6a4     TSReader.obj
 0003:0002b6b8       _gszRestartNeeded          0052e6b8     TSReader.obj
 0003:0002b738       _gszKeyName                0052e738     TSReader.obj
 0003:0002b7a0       _dPriorPCR                 0052e7a0     TSReader.obj
 0003:0002b7a8       _dPriorSystem              0052e7a8     TSReader.obj
 0003:0002b890       _crc16tab                  0052e890     TSReader.obj
 0003:0002c270       ?__LINE__Var@?1??scale_rational@@9@9@e805ef76 0052f270     libmad:timer.obj
 0003:0002c274       ?__LINE__Var@?1??reduce_rational@@9@9@e805ef76 0052f274     libmad:timer.obj
 0003:0002c278       ?__LINE__Var@?1??mad_layer_III@@9@9 0052f278     libmad:layer3.obj
 0003:0002c27c       ?__LINE__Var@?1??III_huffdecode@@9@9@38eac41b 0052f27c     libmad:layer3.obj
 0003:0002c2a8       _mpeg2_scan_norm           0052f2a8     libmpeg2:header.obj
 0003:0002c2e8       _mpeg2_scan_alt            0052f2e8     libmpeg2:header.obj
 0003:0002c410       _mpeg2_mc_c                0052f410     libmpeg2:motion_comp.obj
 0003:0002c470       _mpeg2_mc_mmx              0052f470     libmpeg2:motion_comp_mmx.obj
 0003:0002c4d0       _mpeg2_mc_mmxext           0052f4d0     libmpeg2:motion_comp_mmx.obj
 0003:0002c510       _mpeg2_mc_3dnow            0052f510     libmpeg2:motion_comp_mmx.obj
 0003:0002c620       __fltused                  0052f620     LIBCMTD:fpinit.obj
 0003:0002c624       __ldused                   0052f624     LIBCMTD:fpinit.obj
 0003:0002c628       __FPinit                   0052f628     LIBCMTD:fpinit.obj
 0003:0002c62c       __FPmtinit                 0052f62c     LIBCMTD:fpinit.obj
 0003:0002c630       __FPmtterm                 0052f630     LIBCMTD:fpinit.obj
 0003:0002c640       __NLG_Destination          0052f640     LIBCMTD:exsup.obj
 0003:0002c650       __iob                      0052f650     LIBCMTD:_file.obj
 0003:0002c8d0       __aexit_rtn                0052f8d0     LIBCMTD:wincrt0.obj
 0003:0002c8d4       ___app_type                0052f8d4     LIBCMTD:wincrt0.obj
 0003:0002c8d8       __crtDbgFlag               0052f8d8     LIBCMTD:dbgheap.obj
 0003:0002c8e0       __crtBreakAlloc            0052f8e0     LIBCMTD:dbgheap.obj
 0003:0002c968       __crtAssertBusy            0052f968     LIBCMTD:dbgrpt.obj
 0003:0002c96c       __CrtDbgMode               0052f96c     LIBCMTD:dbgrpt.obj
 0003:0002c978       __CrtDbgFile               0052f978     LIBCMTD:dbgrpt.obj
 0003:0002c990       __cfltcvt_tab              0052f990     LIBCMTD:cmiscdat.obj
 0003:0002c9a8       __pctype                   0052f9a8     LIBCMTD:ctype.obj
 0003:0002c9ac       __pwctype                  0052f9ac     LIBCMTD:ctype.obj
 0003:0002c9b0       __ctype                    0052f9b0     LIBCMTD:ctype.obj
 0003:0002cbb4       ___mb_cur_max              0052fbb4     LIBCMTD:nlsdata1.obj
 0003:0002cbb8       ___decimal_point           0052fbb8     LIBCMTD:nlsdata1.obj
 0003:0002cbbc       ___decimal_point_length    0052fbbc     LIBCMTD:nlsdata1.obj
 0003:0002cbcc       ___nullstring              0052fbcc     LIBCMTD:output.obj
 0003:0002cbd0       ___wnullstring             0052fbd0     LIBCMTD:output.obj
 0003:0002cbd4       __locktable                0052fbd4     LIBCMTD:mlock.obj
 0003:0002cc98       ___badioinfo               0052fc98     LIBCMTD:ioinit.obj
 0003:0002ccbc       __lpdays                   0052fcbc     LIBCMTD:days.obj
 0003:0002ccf0       __days                     0052fcf0     LIBCMTD:days.obj
 0003:0002cd24       ___tlsindex                0052fd24     LIBCMTD:tidtable.obj
 0003:0002cd28       __XcptActTab               0052fd28     LIBCMTD:winxfltr.obj
 0003:0002cda0       __First_FPE_Indx           0052fda0     LIBCMTD:winxfltr.obj
 0003:0002cda4       __Num_FPE                  0052fda4     LIBCMTD:winxfltr.obj
 0003:0002cda8       __XcptActTabSize           0052fda8     LIBCMTD:winxfltr.obj
 0003:0002cdac       __XcptActTabCount          0052fdac     LIBCMTD:winxfltr.obj
 0003:0002cdb0       __amblksiz                 0052fdb0     LIBCMTD:heapinit.obj
 0003:0002ce48       __pfnAllocHook             0052fe48     LIBCMTD:dbghook.obj
 0003:0002ce50       ___old_small_block_heap    0052fe50     LIBCMTD:sbheap.obj
 0003:0002ee74       ___old_sbh_threshold       00531e74     LIBCMTD:sbheap.obj
 0003:0002ee80       __indefinite               00531e80     LIBCMTD:87disp.obj
 0003:0002ee8a       __piby2                    00531e8a     LIBCMTD:87disp.obj
 0003:0002ef88       __d_inf                    00531f88     LIBCMTD:util.obj
 0003:0002ef90       __d_ind                    00531f90     LIBCMTD:util.obj
 0003:0002ef98       __d_max                    00531f98     LIBCMTD:util.obj
 0003:0002efa0       __d_min                    00531fa0     LIBCMTD:util.obj
 0003:0002efa8       __d_mzero                  00531fa8     LIBCMTD:util.obj
 0003:0002efd0       __infinity                 00531fd0     LIBCMTD:87tran.obj
 0003:0002efda       __minfinity                00531fda     LIBCMTD:87tran.obj
 0003:0002efe4       __logemax                  00531fe4     LIBCMTD:87tran.obj
 0003:0002f00a       __OP_EXPjmptab             0053200a     LIBCMTD:87tran.obj
 0003:0002f1d0       __timezone                 005321d0     LIBCMTD:timeset.obj
 0003:0002f1d4       __daylight                 005321d4     LIBCMTD:timeset.obj
 0003:0002f1d8       __dstbias                  005321d8     LIBCMTD:timeset.obj
 0003:0002f25c       __tzname                   0053225c     LIBCMTD:timeset.obj
 0003:0002f380       __matherr_flag             00532380     LIBCMTD:matherr.obj
 0003:0002f600       ___lc_category             00532600     LIBCMTD:setlocal.obj
 0003:0002f650       ___rgLocInfo               00532650     LIBCMTD:getqloc.obj
 0003:0002faf4       ___rglangidNotDefault      00532af4     LIBCMTD:getqloc.obj
 0003:0002fb08       ___rg_country              00532b08     LIBCMTD:getqloc.obj
 0003:0002fbc0       ___rg_language             00532bc0     LIBCMTD:getqloc.obj
 0003:0002fdc8       __pow10pos                 00532dc8     LIBCMTD:constpow.obj
 0003:0002ff28       __pow10neg                 00532f28     LIBCMTD:constpow.obj
 0003:00030084       ___lc_time_curr            00533084     LIBCMTD:strftime.obj
 0003:00030088       ___lc_time_c               00533088     LIBCMTD:strftime.obj
 0003:00030138       ___lconv_static_decimal    00533138     LIBCMTD:lconv.obj
 0003:00030140       ___lconv_c                 00533140     LIBCMTD:lconv.obj
 0003:00030170       ___lconv                   00533170     LIBCMTD:lconv.obj
 0003:0003f300       _bitpos                    00542300     bcdmux.obj
 0003:0003f360       _bitval                    00542360     bcdmux.obj
 0003:0003f3c0       _bitbuf                    005423c0     bcdmux.obj
 0003:0003f420       _CAM_Type                  00542420     CI-CAM.obj
 0003:0003f424       _m_nAnswerType             00542424     CI-CAM.obj
 0003:0003f428       _m_strEnterCode            00542428     CI-CAM.obj
 0003:0003f4a8       _m_pShowCtrl               005424a8     CI-CAM.obj
 0003:0003f5b0       _szNewSourceName           005425b0     ControlServer.obj
 0003:0003f6c8       _fSyncedUDPPacket          005426c8     parser.obj
 0003:0003f6cc       _bIACOption                005426cc     RokuTelnetInterface.obj
 0003:0003f6cd       _bIACCommand               005426cd     RokuTelnetInterface.obj
 0003:0003f6d0       _fIACBlockFlag             005426d0     RokuTelnetInterface.obj
 0003:0003f6d4       _fDoingIAC                 005426d4     RokuTelnetInterface.obj
 0003:0003f6d8       _fFirstIACByte             005426d8     RokuTelnetInterface.obj
 0003:0003f6dc       _seq_high                  005426dc     sky_epg.obj
 0003:0003f6e0       _nLocalEITCount            005426e0     sky_epg.obj
 0003:00040580       _mpeg2_cpu_state_save      00543580     libmpeg2:cpu_state.obj
 0003:00040584       _mpeg2_cpu_state_restore   00543584     libmpeg2:cpu_state.obj
 0003:000405a0       ___fastflag                005435a0     LIBCMTD:fpinit.obj
 0003:000405a4       __adjust_fdiv              005435a4     LIBCMTD:fpinit.obj
 0003:000405a8       __umaskval                 005435a8     LIBCMTD:crt0dat.obj
 0003:000405ac       __osver                    005435ac     LIBCMTD:crt0dat.obj
 0003:000405b0       __winver                   005435b0     LIBCMTD:crt0dat.obj
 0003:000405b4       __winmajor                 005435b4     LIBCMTD:crt0dat.obj
 0003:000405b8       __winminor                 005435b8     LIBCMTD:crt0dat.obj
 0003:000405bc       ___argc                    005435bc     LIBCMTD:crt0dat.obj
 0003:000405c0       ___argv                    005435c0     LIBCMTD:crt0dat.obj
 0003:000405c4       ___wargv                   005435c4     LIBCMTD:crt0dat.obj
 0003:000405c8       __environ                  005435c8     LIBCMTD:crt0dat.obj
 0003:000405cc       ___initenv                 005435cc     LIBCMTD:crt0dat.obj
 0003:000405d0       __wenviron                 005435d0     LIBCMTD:crt0dat.obj
 0003:000405d4       ___winitenv                005435d4     LIBCMTD:crt0dat.obj
 0003:000405d8       __pgmptr                   005435d8     LIBCMTD:crt0dat.obj
 0003:000405dc       __wpgmptr                  005435dc     LIBCMTD:crt0dat.obj
 0003:000405e0       __exitflag                 005435e0     LIBCMTD:crt0dat.obj
 0003:000405e4       __C_Termination_Done       005435e4     LIBCMTD:crt0dat.obj
 0003:000405e8       __C_Exit_Done              005435e8     LIBCMTD:crt0dat.obj
 0003:000405f0       __cflush                   005435f0     LIBCMTD:_file.obj
 0003:00040638       __aenvptr                  00543638     LIBCMTD:wincrt0.obj
 0003:0004063c       __wenvptr                  0054363c     LIBCMTD:wincrt0.obj
 0003:00040640       ___error_mode              00543640     LIBCMTD:wincrt0.obj
 0003:000406c0       __stdbuf                   005436c0     LIBCMTD:_sftbuf.obj
 0003:000407d0       __adbgmsg                  005437d0     LIBCMTD:crt0msg.obj
 0003:000407d4       __newmode                  005437d4     LIBCMTD:_newmode.obj
 0003:000407d8       ?_pnhHeap@@3P6AHI@ZA       005437d8     LIBCMTD:handler.obj
 0003:00040804       __commode                  00543804     LIBCMTD:ncommode.obj
 0003:000408d4       ___lc_handle               005438d4     LIBCMTD:nlsdata2.obj
 0003:000408ec       ___lc_codepage             005438ec     LIBCMTD:nlsdata2.obj
 0003:000408f0       ___lc_collate_cp           005438f0     LIBCMTD:nlsdata2.obj
 0003:000408f8       __fmode                    005438f8     LIBCMTD:txtmode.obj
 0003:000408fc       ___lc_time_intl            005438fc     LIBCMTD:inittime.obj
 0003:00040918       ___lc_id                   00543918     LIBCMTD:nlsdata3.obj
 0003:00040968       ___lconv_static_null       00543968     LIBCMTD:lconv.obj
 0003:0004097c       _SendCAPMT                 0054397c     <common>
 0003:00040980       _nTSReaderReturnValue      00543980     <common>
 0003:00040984       _Init                      00543984     <common>
 0003:00040988       _GetDescription            00543988     <common>
 0003:0004098c       _v                         0054398c     <common>
 0003:00040990       _UDP_SetupSocket           00543990     <common>
 0003:00040994       _GetTunerString            00543994     <common>
 0003:00040998       _DeInit                    00543998     <common>
 0003:0004099c       _UDP_ShutdownSocket        0054399c     <common>
 0003:000409a0       _GetSignalString           005439a0     <common>
 0003:000409a4       _ShutdownStradis           005439a4     <common>
 0003:000409a8       _GetRetuneCount            005439a8     <common>
 0003:000409ac       _XNS_SetupSocket           005439ac     <common>
 0003:000409b0       _tv                        005439b0     <common>
 0003:000409b4       _SetupStradis              005439b4     <common>
 0003:000409b8       _ParseSourceModuleCommandLine 005439b8     <common>
 0003:000409bc       _GetSyncLossCount          005439bc     <common>
 0003:000409c0       _XNS_ShutdownSocket        005439c0     <common>
 0003:000409c4       _Start                     005439c4     <common>
 0003:000409c8       _IsPIDActive               005439c8     <common>
 0003:000409cc       _Stop                      005439cc     <common>
 0003:000409d0       _PIDManagement             005439d0     <common>
 0003:000409d4       _TuneDialog                005439d4     <common>
 0003:000409d8       _Tune                      005439d8     <common>
 0003:000409dc       _tm_base                   005439dc     <common>
 0003:000409e0       _epg_id                    005439e0     <common>
 0003:000409e4       _event_id                  005439e4     <common>
 0003:000409e8       _nIACBlockPos              005439e8     <common>
 0003:000409f0       _phe                       005439f0     <common>
 0003:00040a00       _sockTelnet                00543a00     <common>
 0003:00040a10       _sinTelnet                 00543a10     <common>
 0003:00040a20       _fAbortTrace               00543a20     <common>
 0003:00040a24       _pHostent                  00543a24     <common>
 0003:00040a28       _hWndTrace                 00543a28     <common>
 0003:00040a40       _bIACBlock                 00543a40     <common>
 0003:00040ac0       _Stream                    00543ac0     <common>
 0003:00040ec0       _Frame                     00543ec0     <common>
 0003:00065200       _Synth                     00568200     <common>
 0003:000992c0       _Timer                     0059c2c0     <common>
 0003:00099340       _osd_draw                  0059c340     <common>
 0003:00099350       _osd_font                  0059c350     <common>
 0003:00099360       _ProgrammNeu               0059c360     <common>
 0003:000cb760       _DLL_OSD_Call              005ce760     <common>
 0003:000cb780       _TPNr                      005ce780     <common>
 0003:000cb7a0       _csDecrypt                 005ce7a0     <common>
 0003:000cb7b8       _AddPIDFilter              005ce7b8     <common>
 0003:000cb7bc       _MultiPID                  005ce7bc     <common>
 0003:000cb7c0       _start_filter              005ce7c0     <common>
 0003:000ccfc0       _AudioPID                  005cffc0     <common>
 0003:000ccfc4       _VideoPID                  005cffc4     <common>
 0003:000ccfe0       _TPtg                      005cffe0     <common>
 0003:000cd320       _TPtp                      005d0320     <common>
 0003:000cd360       _csaCurrent                005d0360     <common>
 0003:000cd540       _DelPIDFilter              005d0540     <common>
 0003:000cd560       _filtertspackets           005d0560     <common>
 0003:000cd960       _Programm                  005d0960     <common>
 0003:003f1ca0       _dvb_com                   008f4ca0     <common>
 0003:003f1cf0       _bCurrentKeys              008f4cf0     <common>
 0003:003f1d00       _MD_API_Version            008f4d00     <common>
 0003:003f1d20       _External_Dll_Count        008f4d20     <common>
 0003:003f1d24       _MultiDec_Heap             008f4d24     <common>
 0003:003f1d40       _DescriptorDecode          008f4d40     <common>
 0003:003f1d60       _ipdata                    008f4d60     <common>
 0003:003f1d80       _TPc                       008f4d80     <common>
 0003:003f2684       _LogFile                   008f5684     <common>
 0003:003f26a0       _Ext_Dll                   008f56a0     <common>
 0003:003f3260       _osd_text                  008f6260     <common>
 0003:003f32e4       _pKeys                     008f62e4     <common>
 0003:003f32e8       _RootBytes                 008f62e8     <common>
 0003:003f32ec       _Scheduler_CreateNewTask   008f62ec     <common>
 0003:003f32f0       _Scheduler_EnumTasks       008f62f0     <common>
 0003:003f32f4       _nEPGScheduleMax           008f62f4     <common>
 0003:003f32f8       _fShownScreenEventsWarning 008f62f8     <common>
 0003:003f32fc       _nEPGScheduleItems         008f62fc     <common>
 0003:003f3300       _pepgschedule              008f6300     <common>
 0003:003f3304       _Schedule_DeleteSchedule   008f6304     <common>
 0003:003f3308       _Scheduler_EnsureServiceRunning 008f6308     <common>
 0003:003f330c       _RLERepeat                 008f630c     <common>
 0003:003f330e       _DBldr                     008f630e     <common>
 0003:003f3310       _BitsLStr                  008f6310     <common>
 0003:003f3314       _pHCode                    008f6314     <common>
 0003:003f3318       _pHufTab                   008f6318     <common>
 0003:003f3320       _RLEBuff                   008f6320     <common>
 0003:003f33a0       _RLECount                  008f63a0     <common>
 0003:003f33a4       _fServerThreadActive       008f63a4     <common>
 0003:003f33a8       _wpOrigListProc            008f63a8     <common>
 0003:003f33ac       _initMMI                   008f63ac     <common>
 0003:003f33b0       _getMMI                    008f63b0     <common>
 0003:003f33b4       _m_nAnswerMode             008f63b4     <common>
 0003:003f33b8       _answerMMI                 008f63b8     <common>
 0003:003f33bc       _closeMMI                  008f63bc     <common>
 0003:003f33c0       _getAppInfo                008f63c0     <common>
 0003:003f33c8       _foundfirst                008f63c8     <common>
 0003:003f33d0       _skipbad                   008f63d0     <common>
 0003:003f33d8       _streamid                  008f63d8     <common>
 0003:003f33e0       _packetbuf                 008f63e0     <common>
 0003:003f33e8       _first_video_PCR           008f63e8     <common>
 0003:003f33f0       _PCR                       008f63f0     <common>
 0003:003f33f8       _audiosync                 008f63f8     <common>
 0003:003f33fa       _audiosyncmask             008f63fa     <common>
 0003:003f3400       _packetpos                 008f6400     <common>
 0003:003f3408       _doing_iframe              008f6408     <common>
 0003:003f3420       _count                     008f6420     <common>
 0003:003f3460       _ptr_decrypt               008f6460     <common>
 0003:003f3480       _nSampleWriteIndex         008f6480     <common>
 0003:003f34c0       _UDPSender_SendPacket      008f64c0     <common>
 0003:003f34c4       _ptr_set_cws               008f64c4     <common>
 0003:003f34c8       _decrypt_packets           008f64c8     <common>
 0003:003f34cc       _get_keyset_size           008f64cc     <common>
 0003:003f34e0       _pSamples                  008f64e0     <common>
 0003:003f3520       _SECTION_BUFFERS           008f6520     <common>
 0003:003f3524       _UDPSender_CloseDevice     008f6524     <common>
 0003:003f3528       _UDPSender_GetDevices      008f6528     <common>
 0003:003f352c       _UDPSender_OpenDevice      008f652c     <common>
 0003:003f3540       _bDescriptorTagArray       008f6540     <common>
 0003:003f3e40       _pThumbnail                008f6e40     <common>
 0003:003f3e80       _set_control_words         008f6e80     <common>
 0003:003f3e84       _get_internal_parallelism  008f6e84     <common>
 0003:003f3ea0       _mpeg2_clip                008f6ea0     <common>
 0003:003f5da0       _mpeg2_idct_add            008f8da0     <common>
 0003:003f5da4       _mpeg2_idct_copy           008f8da4     <common>
 0003:003f5dc0       _mpeg2_mc                  008f8dc0     <common>
 0003:003f5e00       ___alternate_form          008f8e00     <common>
 0003:003f5e04       ___no_lead_zeros           008f8e04     <common>
 0003:003f5e08       ___setlc_active            008f8e08     <common>
 0003:003f5e0c       ___unguarded_readlc_active 008f8e0c     <common>
 0003:003f5e10       ___mbcodepage              008f8e10     <common>
 0003:003f5e20       ___mbulinfo                008f8e20     <common>
 0003:003f5e2c       ___ismbcodepage            008f8e2c     <common>
 0003:003f5e40       __mbcasemap                008f8e40     <common>
 0003:003f5f40       __mbctype                  008f8f40     <common>
 0003:003f6044       ___mblcid                  008f9044     <common>
 0003:003f6048       ___sbh_sizeHeaderList      008f9048     <common>
 0003:003f604c       ___sbh_indGroupDefer       008f904c     <common>
 0003:003f6050       ___sbh_pHeaderScan         008f9050     <common>
 0003:003f6054       ___sbh_initialized         008f9054     <common>
 0003:003f6058       ___sbh_pHeaderDefer        008f9058     <common>
 0003:003f605c       ___sbh_cntHeaderList       008f905c     <common>
 0003:003f6060       ___sbh_pHeaderList         008f9060     <common>
 0003:003f6064       ___sbh_threshold           008f9064     <common>
 0003:003f6068       __crtheap                  008f9068     <common>
 0003:003f606c       ___active_heap             008f906c     <common>
 0003:003f6080       ___pioinfo                 008f9080     <common>
 0003:003f6180       __nhandle                  008f9180     <common>
 0003:003f6184       __pfnReportHook            008f9184     <common>
 0003:003f6188       __pfnDumpClient            008f9188     <common>
 0003:003f618c       __acmdln                   008f918c     <common>
 0003:003f6190       ___piob                    008f9190     <common>
 0003:003f61a0       __bufin                    008f91a0     <common>
 0003:003f71a0       __nstream                  008fa1a0     <common>
 0003:003f71a4       ___env_initialized         008fa1a4     <common>
 0003:003f71a8       ___mbctype_initialized     008fa1a8     <common>
 0003:003f71ac       ___onexitend               008fa1ac     <common>
 0003:003f71b0       ___onexitbegin             008fa1b0     <common>
 0004:00000000       __IMPORT_DESCRIPTOR_libfaad2 008fb000     libfaad2:libfaad2.dll
 0004:00000014       PEGRPCS_IMPORT_DESCRIPTOR  008fb014     PEGRPCS:PEGRPCS.dll
 0004:00000028       __IMPORT_DESCRIPTOR__ISource 008fb028     _isource:_ISource.dll
 0004:0000003c       __IMPORT_DESCRIPTOR_WSOCK32 008fb03c     wsock32:WSOCK32.dll
 0004:00000050       __IMPORT_DESCRIPTOR_KERNEL32 008fb050     kernel32:KERNEL32.dll
 0004:00000064       __IMPORT_DESCRIPTOR_USER32 008fb064     user32:USER32.dll
 0004:00000078       __IMPORT_DESCRIPTOR_GDI32  008fb078     gdi32:GDI32.dll
 0004:0000008c       __IMPORT_DESCRIPTOR_comdlg32 008fb08c     comdlg32:comdlg32.dll
 0004:000000a0       __IMPORT_DESCRIPTOR_ADVAPI32 008fb0a0     advapi32:ADVAPI32.dll
 0004:000000b4       __IMPORT_DESCRIPTOR_SHELL32 008fb0b4     shell32:SHELL32.dll
 0004:000000c8       __IMPORT_DESCRIPTOR_COMCTL32 008fb0c8     comctl32:COMCTL32.dll
 0004:000000dc       __IMPORT_DESCRIPTOR_WINMM  008fb0dc     winmm:WINMM.dll
 0004:000000f0       __IMPORT_DESCRIPTOR_WININET 008fb0f0     Wininet:WININET.dll
 0004:00000104       __IMPORT_DESCRIPTOR_TSReader_SourceHelper 008fb104     TSReader_SourceHelper:TSReader_SourceHelper.dll
 0004:00000118       __NULL_IMPORT_DESCRIPTOR   008fb118     libfaad2:libfaad2.dll
 0004:0000012c       NULL_IMPORT_DESCRIPTOR     008fb12c     PEGRPCS:PEGRPCS.dll
 0004:00000674       __imp__RegEnumValueA@32    008fb674     advapi32:ADVAPI32.dll
 0004:00000678       __imp__RegCloseKey@4       008fb678     advapi32:ADVAPI32.dll
 0004:0000067c       __imp__RegCreateKeyExA@36  008fb67c     advapi32:ADVAPI32.dll
 0004:00000680       __imp__RegQueryValueExA@24 008fb680     advapi32:ADVAPI32.dll
 0004:00000684       __imp__RegOpenKeyExA@20    008fb684     advapi32:ADVAPI32.dll
 0004:00000688       __imp__RegSetValueExA@24   008fb688     advapi32:ADVAPI32.dll
 0004:0000068c       \177ADVAPI32_NULL_THUNK_DATA 008fb68c     advapi32:ADVAPI32.dll
 0004:00000690       __imp__ImageList_Create@20 008fb690     comctl32:COMCTL32.dll
 0004:00000694       __imp__CreateStatusWindowA@16 008fb694     comctl32:COMCTL32.dll
 0004:00000698       __imp__ImageList_Destroy@4 008fb698     comctl32:COMCTL32.dll
 0004:0000069c       __imp__ImageList_ReplaceIcon@12 008fb69c     comctl32:COMCTL32.dll
 0004:000006a0       __imp__InitCommonControlsEx@4 008fb6a0     comctl32:COMCTL32.dll
 0004:000006a4       \177COMCTL32_NULL_THUNK_DATA 008fb6a4     comctl32:COMCTL32.dll
 0004:000006a8       __imp__CreateCompatibleDC@4 008fb6a8     gdi32:GDI32.dll
 0004:000006ac       __imp__CreateFontA@56      008fb6ac     gdi32:GDI32.dll
 0004:000006b0       __imp__GetDeviceCaps@8     008fb6b0     gdi32:GDI32.dll
 0004:000006b4       __imp__CreatePen@12        008fb6b4     gdi32:GDI32.dll
 0004:000006b8       __imp__CreateCompatibleBitmap@12 008fb6b8     gdi32:GDI32.dll
 0004:000006bc       __imp__SetBkColor@8        008fb6bc     gdi32:GDI32.dll
 0004:000006c0       __imp__GetTextExtentPoint32A@16 008fb6c0     gdi32:GDI32.dll
 0004:000006c4       __imp__Polyline@12         008fb6c4     gdi32:GDI32.dll
 0004:000006c8       __imp__CreateFontIndirectA@4 008fb6c8     gdi32:GDI32.dll
 0004:000006cc       __imp__SetBkMode@8         008fb6cc     gdi32:GDI32.dll
 0004:000006d0       __imp__SetTextColor@8      008fb6d0     gdi32:GDI32.dll
 0004:000006d4       __imp__GetTextExtentPointA@16 008fb6d4     gdi32:GDI32.dll
 0004:000006d8       __imp__TextOutA@20         008fb6d8     gdi32:GDI32.dll
 0004:000006dc       __imp__GetStockObject@4    008fb6dc     gdi32:GDI32.dll
 0004:000006e0       __imp__RoundRect@28        008fb6e0     gdi32:GDI32.dll
 0004:000006e4       __imp__BitBlt@36           008fb6e4     gdi32:GDI32.dll
 0004:000006e8       __imp__DeleteObject@4      008fb6e8     gdi32:GDI32.dll
 0004:000006ec       __imp__DeleteDC@4          008fb6ec     gdi32:GDI32.dll
 0004:000006f0       __imp__SelectObject@8      008fb6f0     gdi32:GDI32.dll
 0004:000006f4       __imp__Ellipse@20          008fb6f4     gdi32:GDI32.dll
 0004:000006f8       __imp__CreateSolidBrush@4  008fb6f8     gdi32:GDI32.dll
 0004:000006fc       __imp__LineTo@12           008fb6fc     gdi32:GDI32.dll
 0004:00000700       __imp__MoveToEx@16         008fb700     gdi32:GDI32.dll
 0004:00000704       \177GDI32_NULL_THUNK_DATA  008fb704     gdi32:GDI32.dll
 0004:00000708       __imp__HeapFree@12         008fb708     kernel32:KERNEL32.dll
 0004:0000070c       __imp__HeapCreate@12       008fb70c     kernel32:KERNEL32.dll
 0004:00000710       __imp__HeapDestroy@4       008fb710     kernel32:KERNEL32.dll
 0004:00000714       __imp__GetVersionExA@4     008fb714     kernel32:KERNEL32.dll
 0004:00000718       __imp__GetEnvironmentVariableA@12 008fb718     kernel32:KERNEL32.dll
 0004:0000071c       __imp__GetEnvironmentStringsW@0 008fb71c     kernel32:KERNEL32.dll
 0004:00000720       __imp__GetEnvironmentStrings@0 008fb720     kernel32:KERNEL32.dll
 0004:00000724       __imp__WideCharToMultiByte@32 008fb724     kernel32:KERNEL32.dll
 0004:00000728       __imp__FreeEnvironmentStringsW@4 008fb728     kernel32:KERNEL32.dll
 0004:0000072c       __imp__FreeEnvironmentStringsA@4 008fb72c     kernel32:KERNEL32.dll
 0004:00000730       __imp__UnhandledExceptionFilter@4 008fb730     kernel32:KERNEL32.dll
 0004:00000734       __imp__GetCurrentThread@0  008fb734     kernel32:KERNEL32.dll
 0004:00000738       __imp__CloseHandle@4       008fb738     kernel32:KERNEL32.dll
 0004:0000073c       __imp__LocalFree@4         008fb73c     kernel32:KERNEL32.dll
 0004:00000740       __imp__OutputDebugStringA@4 008fb740     kernel32:KERNEL32.dll
 0004:00000744       __imp__Sleep@4             008fb744     kernel32:KERNEL32.dll
 0004:00000748       __imp__LocalAlloc@8        008fb748     kernel32:KERNEL32.dll
 0004:0000074c       __imp__LeaveCriticalSection@4 008fb74c     kernel32:KERNEL32.dll
 0004:00000750       __imp__EnterCriticalSection@4 008fb750     kernel32:KERNEL32.dll
 0004:00000754       __imp__lstrcmpA@8          008fb754     kernel32:KERNEL32.dll
 0004:00000758       __imp__lstrcpyA@8          008fb758     kernel32:KERNEL32.dll
 0004:0000075c       __imp__WriteFile@20        008fb75c     kernel32:KERNEL32.dll
 0004:00000760       __imp__GetLocalTime@4      008fb760     kernel32:KERNEL32.dll
 0004:00000764       __imp__lstrcatA@8          008fb764     kernel32:KERNEL32.dll
 0004:00000768       __imp__lstrlenA@4          008fb768     kernel32:KERNEL32.dll
 0004:0000076c       __imp__GetProcAddress@8    008fb76c     kernel32:KERNEL32.dll
 0004:00000770       __imp__CreateFileA@28      008fb770     kernel32:KERNEL32.dll
 0004:00000774       __imp__FreeLibrary@4       008fb774     kernel32:KERNEL32.dll
 0004:00000778       __imp__FindClose@4         008fb778     kernel32:KERNEL32.dll
 0004:0000077c       __imp__FindNextFileA@8     008fb77c     kernel32:KERNEL32.dll
 0004:00000780       __imp__DeleteFileA@4       008fb780     kernel32:KERNEL32.dll
 0004:00000784       __imp__FindFirstFileA@8    008fb784     kernel32:KERNEL32.dll
 0004:00000788       __imp__LoadLibraryA@4      008fb788     kernel32:KERNEL32.dll
 0004:0000078c       __imp__GetModuleFileNameA@12 008fb78c     kernel32:KERNEL32.dll
 0004:00000790       __imp__CreateThread@24     008fb790     kernel32:KERNEL32.dll
 0004:00000794       __imp__SystemTimeToFileTime@8 008fb794     kernel32:KERNEL32.dll
 0004:00000798       __imp__GetTimeFormatA@24   008fb798     kernel32:KERNEL32.dll
 0004:0000079c       __imp__GetDateFormatA@24   008fb79c     kernel32:KERNEL32.dll
 0004:000007a0       __imp__SystemTimeToTzSpecificLocalTime@12 008fb7a0     kernel32:KERNEL32.dll
 0004:000007a4       __imp__FileTimeToSystemTime@8 008fb7a4     kernel32:KERNEL32.dll
 0004:000007a8       __imp__VirtualFree@12      008fb7a8     kernel32:KERNEL32.dll
 0004:000007ac       __imp__LocalFileTimeToFileTime@8 008fb7ac     kernel32:KERNEL32.dll
 0004:000007b0       __imp__GetSystemTime@4     008fb7b0     kernel32:KERNEL32.dll
 0004:000007b4       __imp__ReadFile@20         008fb7b4     kernel32:KERNEL32.dll
 0004:000007b8       __imp__GetTickCount@0      008fb7b8     kernel32:KERNEL32.dll
 0004:000007bc       __imp__DeleteCriticalSection@4 008fb7bc     kernel32:KERNEL32.dll
 0004:000007c0       __imp__InitializeCriticalSection@4 008fb7c0     kernel32:KERNEL32.dll
 0004:000007c4       __imp__GetCurrentProcess@0 008fb7c4     kernel32:KERNEL32.dll
 0004:000007c8       __imp__ResumeThread@4      008fb7c8     kernel32:KERNEL32.dll
 0004:000007cc       __imp__GetCurrentDirectoryA@8 008fb7cc     kernel32:KERNEL32.dll
 0004:000007d0       __imp__SetThreadPriority@8 008fb7d0     kernel32:KERNEL32.dll
 0004:000007d4       __imp__CreatePipe@16       008fb7d4     kernel32:KERNEL32.dll
 0004:000007d8       __imp__WinExec@8           008fb7d8     kernel32:KERNEL32.dll
 0004:000007dc       __imp__GlobalFree@4        008fb7dc     kernel32:KERNEL32.dll
 0004:000007e0       __imp__SetProcessAffinityMask@8 008fb7e0     kernel32:KERNEL32.dll
 0004:000007e4       __imp__GetProcessAffinityMask@12 008fb7e4     kernel32:KERNEL32.dll
 0004:000007e8       __imp__GetPrivateProfileStringA@24 008fb7e8     kernel32:KERNEL32.dll
 0004:000007ec       __imp__GetLastError@0      008fb7ec     kernel32:KERNEL32.dll
 0004:000007f0       __imp__SetSystemTime@4     008fb7f0     kernel32:KERNEL32.dll
 0004:000007f4       __imp__WritePrivateProfileStringA@16 008fb7f4     kernel32:KERNEL32.dll
 0004:000007f8       __imp__MoveFileA@8         008fb7f8     kernel32:KERNEL32.dll
 0004:000007fc       __imp__SetPriorityClass@8  008fb7fc     kernel32:KERNEL32.dll
 0004:00000800       __imp__TerminateThread@8   008fb800     kernel32:KERNEL32.dll
 0004:00000804       __imp__SetFilePointer@16   008fb804     kernel32:KERNEL32.dll
 0004:00000808       __imp__GlobalAlloc@8       008fb808     kernel32:KERNEL32.dll
 0004:0000080c       __imp__QueryPerformanceFrequency@4 008fb80c     kernel32:KERNEL32.dll
 0004:00000810       __imp__GlobalUnlock@4      008fb810     kernel32:KERNEL32.dll
 0004:00000814       __imp__GetStdHandle@4      008fb814     kernel32:KERNEL32.dll
 0004:00000818       __imp__InterlockedDecrement@4 008fb818     kernel32:KERNEL32.dll
 0004:0000081c       __imp__InterlockedIncrement@4 008fb81c     kernel32:KERNEL32.dll
 0004:00000820       __imp__FatalAppExitA@8     008fb820     kernel32:KERNEL32.dll
 0004:00000824       __imp__SetHandleCount@4    008fb824     kernel32:KERNEL32.dll
 0004:00000828       __imp__GetFileType@4       008fb828     kernel32:KERNEL32.dll
 0004:0000082c       __imp__GetCurrentThreadId@0 008fb82c     kernel32:KERNEL32.dll
 0004:00000830       __imp__TlsSetValue@8       008fb830     kernel32:KERNEL32.dll
 0004:00000834       __imp__TlsAlloc@0          008fb834     kernel32:KERNEL32.dll
 0004:00000838       __imp__HeapAlloc@12        008fb838     kernel32:KERNEL32.dll
 0004:0000083c       __imp__HeapReAlloc@16      008fb83c     kernel32:KERNEL32.dll
 0004:00000840       __imp__VirtualAlloc@16     008fb840     kernel32:KERNEL32.dll
 0004:00000844       __imp__RaiseException@16   008fb844     kernel32:KERNEL32.dll
 0004:00000848       __imp__SetConsoleCtrlHandler@8 008fb848     kernel32:KERNEL32.dll
 0004:0000084c       __imp__MultiByteToWideChar@24 008fb84c     kernel32:KERNEL32.dll
 0004:00000850       __imp__GetStringTypeA@20   008fb850     kernel32:KERNEL32.dll
 0004:00000854       __imp__GetStringTypeW@16   008fb854     kernel32:KERNEL32.dll
 0004:00000858       __imp__SetStdHandle@8      008fb858     kernel32:KERNEL32.dll
 0004:0000085c       __imp__FlushFileBuffers@4  008fb85c     kernel32:KERNEL32.dll
 0004:00000860       __imp__GetCPInfo@8         008fb860     kernel32:KERNEL32.dll
 0004:00000864       __imp__GetACP@0            008fb864     kernel32:KERNEL32.dll
 0004:00000868       __imp__GetOEMCP@0          008fb868     kernel32:KERNEL32.dll
 0004:0000086c       __imp__TlsFree@4           008fb86c     kernel32:KERNEL32.dll
 0004:00000870       __imp__SetLastError@4      008fb870     kernel32:KERNEL32.dll
 0004:00000874       __imp__TlsGetValue@4       008fb874     kernel32:KERNEL32.dll
 0004:00000878       __imp__LCMapStringA@24     008fb878     kernel32:KERNEL32.dll
 0004:0000087c       __imp__LCMapStringW@24     008fb87c     kernel32:KERNEL32.dll
 0004:00000880       __imp__SetEndOfFile@4      008fb880     kernel32:KERNEL32.dll
 0004:00000884       __imp__IsValidLocale@8     008fb884     kernel32:KERNEL32.dll
 0004:00000888       __imp__DebugBreak@0        008fb888     kernel32:KERNEL32.dll
 0004:0000088c       __imp__HeapValidate@12     008fb88c     kernel32:KERNEL32.dll
 0004:00000890       __imp__IsBadReadPtr@8      008fb890     kernel32:KERNEL32.dll
 0004:00000894       __imp__IsBadWritePtr@8     008fb894     kernel32:KERNEL32.dll
 0004:00000898       __imp__GetStartupInfoA@4   008fb898     kernel32:KERNEL32.dll
 0004:0000089c       __imp__GetVersion@0        008fb89c     kernel32:KERNEL32.dll
 0004:000008a0       __imp__GetCommandLineA@0   008fb8a0     kernel32:KERNEL32.dll
 0004:000008a4       __imp__RtlUnwind@16        008fb8a4     kernel32:KERNEL32.dll
 0004:000008a8       __imp__ExitProcess@4       008fb8a8     kernel32:KERNEL32.dll
 0004:000008ac       __imp__TerminateProcess@8  008fb8ac     kernel32:KERNEL32.dll
 0004:000008b0       __imp__GetTimeZoneInformation@4 008fb8b0     kernel32:KERNEL32.dll
 0004:000008b4       __imp__GetModuleHandleA@4  008fb8b4     kernel32:KERNEL32.dll
 0004:000008b8       __imp__IsValidCodePage@4   008fb8b8     kernel32:KERNEL32.dll
 0004:000008bc       __imp__GetLocaleInfoA@16   008fb8bc     kernel32:KERNEL32.dll
 0004:000008c0       __imp__EnumSystemLocalesA@8 008fb8c0     kernel32:KERNEL32.dll
 0004:000008c4       __imp__GetUserDefaultLCID@0 008fb8c4     kernel32:KERNEL32.dll
 0004:000008c8       __imp__CompareStringA@24   008fb8c8     kernel32:KERNEL32.dll
 0004:000008cc       __imp__CompareStringW@24   008fb8cc     kernel32:KERNEL32.dll
 0004:000008d0       __imp__SetEnvironmentVariableA@8 008fb8d0     kernel32:KERNEL32.dll
 0004:000008d4       __imp__MulDiv@12           008fb8d4     kernel32:KERNEL32.dll
 0004:000008d8       __imp__GetLocaleInfoW@16   008fb8d8     kernel32:KERNEL32.dll
 0004:000008dc       \177KERNEL32_NULL_THUNK_DATA 008fb8dc     kernel32:KERNEL32.dll
 0004:000008e0       __imp__PEdestroy@4         008fb8e0     PEGRPCS:PEGRPCS.dll
 0004:000008e4       __imp__PEvsetcell@16       008fb8e4     PEGRPCS:PEGRPCS.dll
 0004:000008e8       __imp__PEvsetcellEx@20     008fb8e8     PEGRPCS:PEGRPCS.dll
 0004:000008ec       __imp__PEszset@12          008fb8ec     PEGRPCS:PEGRPCS.dll
 0004:000008f0       __imp__PEvset@16           008fb8f0     PEGRPCS:PEGRPCS.dll
 0004:000008f4       __imp__PEcreate@20         008fb8f4     PEGRPCS:PEGRPCS.dll
 0004:000008f8       __imp__PEresetimage@12     008fb8f8     PEGRPCS:PEGRPCS.dll
 0004:000008fc       __imp__PEreinitialize@4    008fb8fc     PEGRPCS:PEGRPCS.dll
 0004:00000900       __imp__PEvsetEx@24         008fb900     PEGRPCS:PEGRPCS.dll
 0004:00000904       __imp__PEnset@12           008fb904     PEGRPCS:PEGRPCS.dll
 0004:00000908       \177PEGRPCS_NULL_THUNK_DATA 008fb908     PEGRPCS:PEGRPCS.dll
 0004:0000090c       __imp__SHGetPathFromIDListA@8 008fb90c     shell32:SHELL32.dll
 0004:00000910       __imp__Shell_NotifyIconA@8 008fb910     shell32:SHELL32.dll
 0004:00000914       __imp__ShellExecuteA@24    008fb914     shell32:SHELL32.dll
 0004:00000918       __imp__DragFinish@4        008fb918     shell32:SHELL32.dll
 0004:0000091c       __imp__DragQueryFileA@16   008fb91c     shell32:SHELL32.dll
 0004:00000920       __imp__SHBrowseForFolderA@4 008fb920     shell32:SHELL32.dll
 0004:00000924       \177SHELL32_NULL_THUNK_DATA 008fb924     shell32:SHELL32.dll
 0004:00000928       __imp__SourceHelper_DeInitSerialControl 008fb928     TSReader_SourceHelper:TSReader_SourceHelper.dll
 0004:0000092c       __imp__SourceHelper_SetChannelSerialControl 008fb92c     TSReader_SourceHelper:TSReader_SourceHelper.dll
 0004:00000930       __imp__SourceHelper_CRC_Calc 008fb930     TSReader_SourceHelper:TSReader_SourceHelper.dll
 0004:00000934       __imp__SourceHelper_InitSerialControl 008fb934     TSReader_SourceHelper:TSReader_SourceHelper.dll
 0004:00000938       __imp__SourceHelper_SetWorkerThreadPriorities 008fb938     TSReader_SourceHelper:TSReader_SourceHelper.dll
 0004:0000093c       __imp__SourceHelper_CRC_Check 008fb93c     TSReader_SourceHelper:TSReader_SourceHelper.dll
 0004:00000940       __imp__SourceHelper_ReadLine 008fb940     TSReader_SourceHelper:TSReader_SourceHelper.dll
 0004:00000944       __imp__SourceHelper_GetTSReaderEXEDirectory 008fb944     TSReader_SourceHelper:TSReader_SourceHelper.dll
 0004:00000948       __imp__SourceHelper_CalculateSwitchParameters 008fb948     TSReader_SourceHelper:TSReader_SourceHelper.dll
 0004:0000094c       __imp__SourceHelper_DiSEqCPositionerDialog 008fb94c     TSReader_SourceHelper:TSReader_SourceHelper.dll
 0004:00000950       __imp__SourceHelper_ResetFirstTimeFlag 008fb950     TSReader_SourceHelper:TSReader_SourceHelper.dll
 0004:00000954       __imp__SourceHelper_ImportSatelliteList 008fb954     TSReader_SourceHelper:TSReader_SourceHelper.dll
 0004:00000958       __imp__SourceHelper_Init   008fb958     TSReader_SourceHelper:TSReader_SourceHelper.dll
 0004:0000095c       __imp__SourceHelper_myGetOpenFileName 008fb95c     TSReader_SourceHelper:TSReader_SourceHelper.dll
 0004:00000960       __imp__SourceHelper_CRC_Init 008fb960     TSReader_SourceHelper:TSReader_SourceHelper.dll
 0004:00000964       \177TSReader_SourceHelper_NULL_THUNK_DATA 008fb964     TSReader_SourceHelper:TSReader_SourceHelper.dll
 0004:00000968       __imp__SetCursor@4         008fb968     user32:USER32.dll
 0004:0000096c       __imp__ReleaseCapture@0    008fb96c     user32:USER32.dll
 0004:00000970       __imp__SetCapture@4        008fb970     user32:USER32.dll
 0004:00000974       __imp__LoadIconA@8         008fb974     user32:USER32.dll
 0004:00000978       __imp__DestroyIcon@4       008fb978     user32:USER32.dll
 0004:0000097c       __imp__GetKeyState@4       008fb97c     user32:USER32.dll
 0004:00000980       __imp__ClientToScreen@8    008fb980     user32:USER32.dll
 0004:00000984       __imp__SetDlgItemInt@16    008fb984     user32:USER32.dll
 0004:00000988       __imp__LoadMenuA@8         008fb988     user32:USER32.dll
 0004:0000098c       __imp__GetSubMenu@8        008fb98c     user32:USER32.dll
 0004:00000990       __imp__TrackPopupMenu@28   008fb990     user32:USER32.dll
 0004:00000994       __imp__DestroyMenu@4       008fb994     user32:USER32.dll
 0004:00000998       __imp__GetDlgItemInt@16    008fb998     user32:USER32.dll
 0004:0000099c       __imp__DialogBoxParamA@20  008fb99c     user32:USER32.dll
 0004:000009a0       __imp__CheckDlgButton@12   008fb9a0     user32:USER32.dll
 0004:000009a4       __imp__IsDlgButtonChecked@8 008fb9a4     user32:USER32.dll
 0004:000009a8       __imp__GetDlgItemTextA@16  008fb9a8     user32:USER32.dll
 0004:000009ac       __imp__MessageBeep@4       008fb9ac     user32:USER32.dll
 0004:000009b0       __imp__SetScrollPos@16     008fb9b0     user32:USER32.dll
 0004:000009b4       __imp__DrawIcon@16         008fb9b4     user32:USER32.dll
 0004:000009b8       __imp__DrawTextA@20        008fb9b8     user32:USER32.dll
 0004:000009bc       __imp__FillRect@12         008fb9bc     user32:USER32.dll
 0004:000009c0       __imp__EndPaint@8          008fb9c0     user32:USER32.dll
 0004:000009c4       __imp__SetScrollInfo@16    008fb9c4     user32:USER32.dll
 0004:000009c8       __imp__GetMenu@4           008fb9c8     user32:USER32.dll
 0004:000009cc       __imp__LoadImageA@24       008fb9cc     user32:USER32.dll
 0004:000009d0       __imp__SetWindowLongA@12   008fb9d0     user32:USER32.dll
 0004:000009d4       __imp__MessageBoxA@16      008fb9d4     user32:USER32.dll
 0004:000009d8       __imp__OpenClipboard@4     008fb9d8     user32:USER32.dll
 0004:000009dc       __imp__SetFocus@4          008fb9dc     user32:USER32.dll
 0004:000009e0       __imp__GetParent@4         008fb9e0     user32:USER32.dll
 0004:000009e4       __imp__CallWindowProcA@20  008fb9e4     user32:USER32.dll
 0004:000009e8       __imp__PeekMessageA@20     008fb9e8     user32:USER32.dll
 0004:000009ec       __imp__TranslateMessage@4  008fb9ec     user32:USER32.dll
 0004:000009f0       __imp__DispatchMessageA@4  008fb9f0     user32:USER32.dll
 0004:000009f4       __imp__GetDlgItem@8        008fb9f4     user32:USER32.dll
 0004:000009f8       __imp__ShowWindow@8        008fb9f8     user32:USER32.dll
 0004:000009fc       __imp__EmptyClipboard@0    008fb9fc     user32:USER32.dll
 0004:00000a00       __imp__SetClipboardData@8  008fba00     user32:USER32.dll
 0004:00000a04       __imp__CloseClipboard@0    008fba04     user32:USER32.dll
 0004:00000a08       __imp__TranslateAcceleratorA@12 008fba08     user32:USER32.dll
 0004:00000a0c       __imp__IsWindow@4          008fba0c     user32:USER32.dll
 0004:00000a10       __imp__IsDialogMessageA@8  008fba10     user32:USER32.dll
 0004:00000a14       __imp__LoadAcceleratorsA@8 008fba14     user32:USER32.dll
 0004:00000a18       __imp__SetDlgItemTextA@12  008fba18     user32:USER32.dll
 0004:00000a1c       __imp__SendDlgItemMessageA@20 008fba1c     user32:USER32.dll
 0004:00000a20       __imp__SendMessageA@16     008fba20     user32:USER32.dll
 0004:00000a24       __imp__SetTimer@16         008fba24     user32:USER32.dll
 0004:00000a28       __imp__InvalidateRect@12   008fba28     user32:USER32.dll
 0004:00000a2c       __imp__DefWindowProcA@16   008fba2c     user32:USER32.dll
 0004:00000a30       __imp__GetWindowLongA@8    008fba30     user32:USER32.dll
 0004:00000a34       __imp__GetClientRect@8     008fba34     user32:USER32.dll
 0004:00000a38       __imp__MoveWindow@24       008fba38     user32:USER32.dll
 0004:00000a3c       __imp__DestroyWindow@4     008fba3c     user32:USER32.dll
 0004:00000a40       __imp__GetWindowRect@8     008fba40     user32:USER32.dll
 0004:00000a44       __imp__KillTimer@8         008fba44     user32:USER32.dll
 0004:00000a48       __imp__SetForegroundWindow@4 008fba48     user32:USER32.dll
 0004:00000a4c       __imp__PostMessageA@16     008fba4c     user32:USER32.dll
 0004:00000a50       __imp__wsprintfA           008fba50     user32:USER32.dll
 0004:00000a54       __imp__FindWindowA@8       008fba54     user32:USER32.dll
 0004:00000a58       __imp__EnableMenuItem@12   008fba58     user32:USER32.dll
 0004:00000a5c       __imp__EnableWindow@8      008fba5c     user32:USER32.dll
 0004:00000a60       __imp__CreateDialogParamA@20 008fba60     user32:USER32.dll
 0004:00000a64       __imp__GetMessageA@16      008fba64     user32:USER32.dll
 0004:00000a68       __imp__WaitForInputIdle@8  008fba68     user32:USER32.dll
 0004:00000a6c       __imp__RegisterWindowMessageA@4 008fba6c     user32:USER32.dll
 0004:00000a70       __imp__PostQuitMessage@4   008fba70     user32:USER32.dll
 0004:00000a74       __imp__keybd_event@16      008fba74     user32:USER32.dll
 0004:00000a78       __imp__LoadCursorA@8       008fba78     user32:USER32.dll
 0004:00000a7c       __imp__RegisterClassA@4    008fba7c     user32:USER32.dll
 0004:00000a80       __imp__UnregisterClassA@8  008fba80     user32:USER32.dll
 0004:00000a84       __imp__CheckMenuRadioItem@20 008fba84     user32:USER32.dll
 0004:00000a88       __imp__CreateWindowExA@48  008fba88     user32:USER32.dll
 0004:00000a8c       __imp__SetWindowPos@28     008fba8c     user32:USER32.dll
 0004:00000a90       __imp__ModifyMenuA@20      008fba90     user32:USER32.dll
 0004:00000a94       __imp__UpdateWindow@4      008fba94     user32:USER32.dll
 0004:00000a98       __imp__GetSysColor@4       008fba98     user32:USER32.dll
 0004:00000a9c       __imp__GetScrollRange@16   008fba9c     user32:USER32.dll
 0004:00000aa0       __imp__SetScrollRange@20   008fbaa0     user32:USER32.dll
 0004:00000aa4       __imp__EndDialog@8         008fbaa4     user32:USER32.dll
 0004:00000aa8       __imp__GetSystemMetrics@4  008fbaa8     user32:USER32.dll
 0004:00000aac       __imp__AppendMenuA@16      008fbaac     user32:USER32.dll
 0004:00000ab0       __imp__DeleteMenu@12       008fbab0     user32:USER32.dll
 0004:00000ab4       __imp__GetDC@4             008fbab4     user32:USER32.dll
 0004:00000ab8       __imp__CheckMenuItem@12    008fbab8     user32:USER32.dll
 0004:00000abc       __imp__ReleaseDC@8         008fbabc     user32:USER32.dll
 0004:00000ac0       __imp__BeginPaint@8        008fbac0     user32:USER32.dll
 0004:00000ac4       \177USER32_NULL_THUNK_DATA 008fbac4     user32:USER32.dll
 0004:00000ac8       __imp__InternetOpenA@20    008fbac8     Wininet:WININET.dll
 0004:00000acc       __imp__InternetConnectA@32 008fbacc     Wininet:WININET.dll
 0004:00000ad0       __imp__HttpOpenRequestA@32 008fbad0     Wininet:WININET.dll
 0004:00000ad4       __imp__HttpSendRequestA@20 008fbad4     Wininet:WININET.dll
 0004:00000ad8       __imp__HttpQueryInfoA@20   008fbad8     Wininet:WININET.dll
 0004:00000adc       __imp__InternetReadFile@16 008fbadc     Wininet:WININET.dll
 0004:00000ae0       __imp__InternetCloseHandle@4 008fbae0     Wininet:WININET.dll
 0004:00000ae4       \177WININET_NULL_THUNK_DATA 008fbae4     Wininet:WININET.dll
 0004:00000ae8       __imp__waveOutReset@4      008fbae8     winmm:WINMM.dll
 0004:00000aec       __imp__waveOutClose@4      008fbaec     winmm:WINMM.dll
 0004:00000af0       __imp__waveOutOpen@24      008fbaf0     winmm:WINMM.dll
 0004:00000af4       __imp__waveOutUnprepareHeader@12 008fbaf4     winmm:WINMM.dll
 0004:00000af8       __imp__waveOutPrepareHeader@12 008fbaf8     winmm:WINMM.dll
 0004:00000afc       __imp__waveOutWrite@12     008fbafc     winmm:WINMM.dll
 0004:00000b00       \177WINMM_NULL_THUNK_DATA  008fbb00     winmm:WINMM.dll
 0004:00000b04       __imp__send@16             008fbb04     wsock32:WSOCK32.dll
 0004:00000b08       __imp__recv@16             008fbb08     wsock32:WSOCK32.dll
 0004:00000b0c       __imp__setsockopt@20       008fbb0c     wsock32:WSOCK32.dll
 0004:00000b10       __imp__inet_addr@4         008fbb10     wsock32:WSOCK32.dll
 0004:00000b14       __imp__gethostbyname@4     008fbb14     wsock32:WSOCK32.dll
 0004:00000b18       __imp__WSACleanup@0        008fbb18     wsock32:WSOCK32.dll
 0004:00000b1c       __imp__WSAStartup@8        008fbb1c     wsock32:WSOCK32.dll
 0004:00000b20       __imp__connect@12          008fbb20     wsock32:WSOCK32.dll
 0004:00000b24       __imp__socket@12           008fbb24     wsock32:WSOCK32.dll
 0004:00000b28       __imp__htons@4             008fbb28     wsock32:WSOCK32.dll
 0004:00000b2c       __imp__bind@12             008fbb2c     wsock32:WSOCK32.dll
 0004:00000b30       __imp__listen@8            008fbb30     wsock32:WSOCK32.dll
 0004:00000b34       __imp__closesocket@4       008fbb34     wsock32:WSOCK32.dll
 0004:00000b38       __imp__accept@12           008fbb38     wsock32:WSOCK32.dll
 0004:00000b3c       \177WSOCK32_NULL_THUNK_DATA 008fbb3c     wsock32:WSOCK32.dll
 0004:00000b40       __imp___ISOverlayRGBTrans@44 008fbb40     _isource:_ISource.dll
 0004:00000b44       __imp___ISWriteRGBToJPG@24 008fbb44     _isource:_ISource.dll
 0004:00000b48       __imp___ISOpenFileDest@4   008fbb48     _isource:_ISource.dll
 0004:00000b4c       __imp___ISInitialize@4     008fbb4c     _isource:_ISource.dll
 0004:00000b50       __imp___ISOpenFileSource@4 008fbb50     _isource:_ISource.dll
 0004:00000b54       __imp___ISReadBMPToRGB@12  008fbb54     _isource:_ISource.dll
 0004:00000b58       __imp___ISCloseSource@4    008fbb58     _isource:_ISource.dll
 0004:00000b5c       __imp___ISDecimateRGB@24   008fbb5c     _isource:_ISource.dll
 0004:00000b60       __imp___ISResizeRGB@24     008fbb60     _isource:_ISource.dll
 0004:00000b64       __imp___ISLoadResourceBitmap@12 008fbb64     _isource:_ISource.dll
 0004:00000b68       __imp___ISHBITMAPToRGB@20  008fbb68     _isource:_ISource.dll
 0004:00000b6c       __imp___ISDrawTextOnRGB2@32 008fbb6c     _isource:_ISource.dll
 0004:00000b70       __imp___ISDrawRGB@36       008fbb70     _isource:_ISource.dll
 0004:00000b74       __imp___ISCloseDest@4      008fbb74     _isource:_ISource.dll
 0004:00000b78       \177_ISource_NULL_THUNK_DATA 008fbb78     _isource:_ISource.dll
 0004:00000b7c       __imp__GetSaveFileNameA@4  008fbb7c     comdlg32:comdlg32.dll
 0004:00000b80       __imp__ChooseColorA@4      008fbb80     comdlg32:comdlg32.dll
 0004:00000b84       \177comdlg32_NULL_THUNK_DATA 008fbb84     comdlg32:comdlg32.dll
 0004:00000b88       __imp__NeAACDecOpen        008fbb88     libfaad2:libfaad2.dll
 0004:00000b8c       __imp__NeAACDecGetCurrentConfiguration 008fbb8c     libfaad2:libfaad2.dll
 0004:00000b90       __imp__NeAACDecSetConfiguration 008fbb90     libfaad2:libfaad2.dll
 0004:00000b94       __imp__NeAACDecInit        008fbb94     libfaad2:libfaad2.dll
 0004:00000b98       __imp__NeAACDecDecode      008fbb98     libfaad2:libfaad2.dll
 0004:00000b9c       __imp__NeAACDecGetErrorMessage 008fbb9c     libfaad2:libfaad2.dll
 0004:00000ba0       __imp__NeAACDecClose       008fbba0     libfaad2:libfaad2.dll
 0004:00000ba4       \177libfaad2_NULL_THUNK_DATA 008fbba4     libfaad2:libfaad2.dll

 entry point at        0001:000bc050

 Static symbols

 0001:00033930       _MadFixedToSshort          00434930 f   MPEGAudio.obj
 0001:000023a0       _error                     004033a0 f   bcdmux.obj
 0001:00003470       _warning                   00404470 f   bcdmux.obj
 0001:00001240       _ao_open                   00402240 f   AC3AudioDecoder.obj
 0001:00001280       _ao_setup                  00402280 f   AC3AudioDecoder.obj
 0001:000012d0       _ao_close                  004022d0 f   AC3AudioDecoder.obj
 0001:00097610       _bitstream_get             00498610 f   liba52:bitstream.obj
 0001:00097750       _bitstream_fill_current    00498750 f   liba52:bitstream.obj
 0001:00096be0       _mix2to1                   00497be0 f   liba52:downmix.obj
 0001:00096c40       _mix3to1                   00497c40 f   liba52:downmix.obj
 0001:00096cb0       _mix4to1                   00497cb0 f   liba52:downmix.obj
 0001:00096d30       _mix5to1                   00497d30 f   liba52:downmix.obj
 0001:00096dc0       _mix3to2                   00497dc0 f   liba52:downmix.obj
 0001:00096e50       _mix21to2                  00497e50 f   liba52:downmix.obj
 0001:00096ed0       _mix21toS                  00497ed0 f   liba52:downmix.obj
 0001:00096f60       _mix31to2                  00497f60 f   liba52:downmix.obj
 0001:00096ff0       _mix31toS                  00497ff0 f   liba52:downmix.obj
 0001:00097090       _mix22toS                  00498090 f   liba52:downmix.obj
 0001:00097130       _mix32to2                  00498130 f   liba52:downmix.obj
 0001:000971d0       _mix32toS                  004981d0 f   liba52:downmix.obj
 0001:00097280       _move2to1                  00498280 f   liba52:downmix.obj
 0001:00097550       _zero                      00498550 f   liba52:downmix.obj
 0001:00095550       _ifft64_c                  00496550 f   liba52:imdct.obj
 0001:000955c0       _ifft_pass                 004965c0 f   liba52:imdct.obj
 0001:00095850       _ifft16                    00496850 f   liba52:imdct.obj
 0001:000958c0       _ifft4                     004968c0 f   liba52:imdct.obj
 0001:000959c0       _ifft8                     004969c0 f   liba52:imdct.obj
 0001:00095bd0       _ifft2                     00496bd0 f   liba52:imdct.obj
 0001:00095c40       _ifft32                    00496c40 f   liba52:imdct.obj
 0001:00095cb0       _ifft128_c                 00496cb0 f   liba52:imdct.obj
 0001:00095d60       _besselI0                  00496d60 f   liba52:imdct.obj
 0001:000927d0       _bitstream_get             004937d0 f   liba52:parse.obj
 0001:00093c40       _bitstream_get_2           00494c40 f   liba52:parse.obj
 0001:00093cd0       _parse_exponents           00494cd0 f   liba52:parse.obj
 0001:00093ec0       _parse_deltba              00494ec0 f   liba52:parse.obj
 0001:00093fc0       _zero_snr_offsets          00494fc0 f   liba52:parse.obj
 0001:00094070       _coeff_get                 00495070 f   liba52:parse.obj
 0001:00094420       _dither_gen                00495420 f   liba52:parse.obj
 0001:00094480       _coeff_get_coupling        00495480 f   liba52:parse.obj
 0001:000997d0       _win_open                  0049a7d0 f   libao:audio_out_win.obj
 0001:00099860       _win_setup                 0049a860 f   libao:audio_out_win.obj
 0001:000998e0       _win_play                  0049a8e0 f   libao:audio_out_win.obj
 0001:00099c00       _win_close                 0049ac00 f   libao:audio_out_win.obj
 0001:00099490       _wav_open                  0049a490 f   libao:audio_out_wav.obj
 0001:00099520       _wav_setup                 0049a520 f   libao:audio_out_wav.obj
 0001:00099590       _wav_play                  0049a590 f   libao:audio_out_wav.obj
 0001:00099670       _store                     0049a670 f   libao:audio_out_wav.obj
 0001:000996c0       _wav_close                 0049a6c0 f   libao:audio_out_wav.obj
 0001:000990f0       _aif_open                  0049a0f0 f   libao:audio_out_aif.obj
 0001:00099180       _aif_setup                 0049a180 f   libao:audio_out_aif.obj
 0001:000991f0       _aif_play                  0049a1f0 f   libao:audio_out_aif.obj
 0001:000992d0       _store2                    0049a2d0 f   libao:audio_out_aif.obj
 0001:00099310       _aif_close                 0049a310 f   libao:audio_out_aif.obj
 0001:000993c0       _store4                    0049a3c0 f   libao:audio_out_aif.obj
 0001:00098e80       _peak_open                 00499e80 f   libao:audio_out_peak.obj
 0001:00098f00       _peak_setup                00499f00 f   libao:audio_out_peak.obj
 0001:00098f50       _peak_play                 00499f50 f   libao:audio_out_peak.obj
 0001:00098ff0       _peak_close                00499ff0 f   libao:audio_out_peak.obj
 0001:00098d10       _null_setup                00499d10 f   libao:audio_out_null.obj
 0001:00098d60       _null_play                 00499d60 f   libao:audio_out_null.obj
 0001:00098d90       _null_close                00499d90 f   libao:audio_out_null.obj
 0001:00098c30       _float_setup               00499c30 f   libao:audio_out_float.obj
 0001:00098c70       _float_play                00499c70 f   libao:audio_out_float.obj
 0001:00098cc0       _float_close               00499cc0 f   libao:audio_out_float.obj
 0001:000982f0       _convert                   004992f0 f   libao:float2s16.obj
 0001:000a2ed0       _I_sample                  004a3ed0 f   libmad:layer12.obj
 0001:000a3820       _II_samples                004a4820 f   libmad:layer12.obj
 0001:0009e660       _III_sideinfo              0049f660 f   libmad:layer3.obj
 0001:0009e9f0       _III_decode                0049f9f0 f   libmad:layer3.obj
 0001:0009f230       _III_scalefactors_lsf      004a0230 f   libmad:layer3.obj
 0001:0009f640       _III_scalefactors          004a0640 f   libmad:layer3.obj
 0001:0009f940       _III_huffdecode            004a0940 f   libmad:layer3.obj
 0001:000a0910       _III_exponents             004a1910 f   libmad:layer3.obj
 0001:000a0b50       _III_requantize            004a1b50 f   libmad:layer3.obj
 0001:000a0c90       _III_reorder               004a1c90 f   libmad:layer3.obj
 0001:000a0ee0       _III_stereo                004a1ee0 f   libmad:layer3.obj
 0001:000a1630       _III_aliasreduce           004a2630 f   libmad:layer3.obj
 0001:000a1790       _III_imdct_l               004a2790 f   libmad:layer3.obj
 0001:000a1b40       _imdct36                   004a2b40 f   libmad:layer3.obj
 0001:000a1ca0       _dctIV                     004a2ca0 f   libmad:layer3.obj
 0001:000a1e70       _sdctII                    004a2e70 f   libmad:layer3.obj
 0001:000a20c0       _fastsdct                  004a30c0 f   libmad:layer3.obj
 0001:000a2330       _III_imdct_s               004a3330 f   libmad:layer3.obj
 0001:000a2880       _III_overlap               004a3880 f   libmad:layer3.obj
 0001:000a28f0       _III_overlap_z             004a38f0 f   libmad:layer3.obj
 0001:000a2950       _III_freqinver             004a3950 f   libmad:layer3.obj
 0001:0009d540       _decode_header             0049e540 f   libmad:frame.obj
 0001:0009d870       _free_bitrate              0049e870 f   libmad:frame.obj
 0001:0009adc0       _synth_full                0049bdc0 f   libmad:synth.obj
 0001:0009b4b0       _dct32                     0049c4b0 f   libmad:synth.obj
 0001:0009c900       _synth_half                0049d900 f   libmad:synth.obj
 0001:0009a050       _reduce_timer              0049b050 f   libmad:timer.obj
 0001:0009a0a0       _scale_rational            0049b0a0 f   libmad:timer.obj
 0001:0009a180       _reduce_rational           0049b180 f   libmad:timer.obj
 0001:0009a210       _gcd                       0049b210 f   libmad:timer.obj
 0001:000b4470       _block_copy                004b5470 f   libmpeg2:idct_mmx.obj
 0001:000b4500       _block_add                 004b5500 f   libmpeg2:idct_mmx.obj
 0001:000b4600       _block_add_DC              004b5600 f   libmpeg2:idct_mmx.obj
 0001:000b46c0       _mmxext_idct               004b56c0 f   libmpeg2:idct_mmx.obj
 0001:000b4c30       _mmx_idct                  004b5c30 f   libmpeg2:idct_mmx.obj
 0001:000b5210       _idct_col                  004b6210 f   libmpeg2:idct_mmx.obj
 0001:000b29d0       _MC_avg_o_16_mmx           004b39d0 f   libmpeg2:motion_comp_mmx.obj
 0001:000b2a10       _MC_avg_o_8_mmx            004b3a10 f   libmpeg2:motion_comp_mmx.obj
 0001:000b2a50       _MC_put_o_16_mmx           004b3a50 f   libmpeg2:motion_comp_mmx.obj
 0001:000b2a90       _MC_put_o_8_mmx            004b3a90 f   libmpeg2:motion_comp_mmx.obj
 0001:000b2ac0       _MC_avg_x_16_mmx           004b3ac0 f   libmpeg2:motion_comp_mmx.obj
 0001:000b2b00       _MC_avg_x_8_mmx            004b3b00 f   libmpeg2:motion_comp_mmx.obj
 0001:000b2b40       _MC_put_x_16_mmx           004b3b40 f   libmpeg2:motion_comp_mmx.obj
 0001:000b2b80       _MC_put_x_8_mmx            004b3b80 f   libmpeg2:motion_comp_mmx.obj
 0001:000b2bc0       _MC_avg_xy_16_mmx          004b3bc0 f   libmpeg2:motion_comp_mmx.obj
 0001:000b2c50       _MC_avg_xy_8_mmx           004b3c50 f   libmpeg2:motion_comp_mmx.obj
 0001:000b2cb0       _MC_put_xy_16_mmx          004b3cb0 f   libmpeg2:motion_comp_mmx.obj
 0001:000b2d40       _MC_put_xy_8_mmx           004b3d40 f   libmpeg2:motion_comp_mmx.obj
 0001:000b2da0       _MC_avg_y_16_mmx           004b3da0 f   libmpeg2:motion_comp_mmx.obj
 0001:000b2de0       _MC_avg_y_8_mmx            004b3de0 f   libmpeg2:motion_comp_mmx.obj
 0001:000b2e20       _MC_put_y_16_mmx           004b3e20 f   libmpeg2:motion_comp_mmx.obj
 0001:000b2e60       _MC_put_y_8_mmx            004b3e60 f   libmpeg2:motion_comp_mmx.obj
 0001:000b2ea0       _MC_avg_o_16_mmxext        004b3ea0 f   libmpeg2:motion_comp_mmx.obj
 0001:000b2ee0       _MC_avg_o_8_mmxext         004b3ee0 f   libmpeg2:motion_comp_mmx.obj
 0001:000b2f20       _MC_put_o_16_mmxext        004b3f20 f   libmpeg2:motion_comp_mmx.obj
 0001:000b2f60       _MC_put_o_8_mmxext         004b3f60 f   libmpeg2:motion_comp_mmx.obj
 0001:000b2f90       _MC_avg_x_16_mmxext        004b3f90 f   libmpeg2:motion_comp_mmx.obj
 0001:000b2fd0       _MC_avg_x_8_mmxext         004b3fd0 f   libmpeg2:motion_comp_mmx.obj
 0001:000b3010       _MC_put_x_16_mmxext        004b4010 f   libmpeg2:motion_comp_mmx.obj
 0001:000b3050       _MC_put_x_8_mmxext         004b4050 f   libmpeg2:motion_comp_mmx.obj
 0001:000b3090       _MC_avg_y_16_mmxext        004b4090 f   libmpeg2:motion_comp_mmx.obj
 0001:000b30d0       _MC_avg_y_8_mmxext         004b40d0 f   libmpeg2:motion_comp_mmx.obj
 0001:000b3110       _MC_put_y_16_mmxext        004b4110 f   libmpeg2:motion_comp_mmx.obj
 0001:000b3150       _MC_put_y_8_mmxext         004b4150 f   libmpeg2:motion_comp_mmx.obj
 0001:000b3190       _MC_avg_xy_16_mmxext       004b4190 f   libmpeg2:motion_comp_mmx.obj
 0001:000b31d0       _MC_avg_xy_8_mmxext        004b41d0 f   libmpeg2:motion_comp_mmx.obj
 0001:000b3210       _MC_put_xy_16_mmxext       004b4210 f   libmpeg2:motion_comp_mmx.obj
 0001:000b3250       _MC_put_xy_8_mmxext        004b4250 f   libmpeg2:motion_comp_mmx.obj
 0001:000b3290       _MC_avg_o_16_3dnow         004b4290 f   libmpeg2:motion_comp_mmx.obj
 0001:000b32d0       _MC_avg_o_8_3dnow          004b42d0 f   libmpeg2:motion_comp_mmx.obj
 0001:000b3310       _MC_put_o_16_3dnow         004b4310 f   libmpeg2:motion_comp_mmx.obj
 0001:000b3350       _MC_put_o_8_3dnow          004b4350 f   libmpeg2:motion_comp_mmx.obj
 0001:000b3380       _MC_avg_x_16_3dnow         004b4380 f   libmpeg2:motion_comp_mmx.obj
 0001:000b33c0       _MC_avg_x_8_3dnow          004b43c0 f   libmpeg2:motion_comp_mmx.obj
 0001:000b3400       _MC_put_x_16_3dnow         004b4400 f   libmpeg2:motion_comp_mmx.obj
 0001:000b3450       _MC_put_x_8_3dnow          004b4450 f   libmpeg2:motion_comp_mmx.obj
 0001:000b3490       _MC_avg_y_16_3dnow         004b4490 f   libmpeg2:motion_comp_mmx.obj
 0001:000b34d0       _MC_avg_y_8_3dnow          004b44d0 f   libmpeg2:motion_comp_mmx.obj
 0001:000b3510       _MC_put_y_16_3dnow         004b4510 f   libmpeg2:motion_comp_mmx.obj
 0001:000b3560       _MC_put_y_8_3dnow          004b4560 f   libmpeg2:motion_comp_mmx.obj
 0001:000b35a0       _MC_avg_xy_16_3dnow        004b45a0 f   libmpeg2:motion_comp_mmx.obj
 0001:000b35e0       _MC_avg_xy_8_3dnow         004b45e0 f   libmpeg2:motion_comp_mmx.obj
 0001:000b3620       _MC_put_xy_16_3dnow        004b4620 f   libmpeg2:motion_comp_mmx.obj
 0001:000b3660       _MC_put_xy_8_3dnow         004b4660 f   libmpeg2:motion_comp_mmx.obj
 0001:000b36a0       _mmx_average_4_U8          004b46a0 f   libmpeg2:motion_comp_mmx.obj
 0001:000b3720       _mmx_interp_average_4_U8   004b4720 f   libmpeg2:motion_comp_mmx.obj
 0001:000b37c0       _MC_avg_mmx                004b47c0 f   libmpeg2:motion_comp_mmx.obj
 0001:000b3840       _MC_avg_x_mmx              004b4840 f   libmpeg2:motion_comp_mmx.obj
 0001:000b3900       _MC_put_x_mmx              004b4900 f   libmpeg2:motion_comp_mmx.obj
 0001:000b3980       _MC_avg_y_mmx              004b4980 f   libmpeg2:motion_comp_mmx.obj
 0001:000b3a50       _MC_put_y_mmx              004b4a50 f   libmpeg2:motion_comp_mmx.obj
 0001:000b3ae0       _MC_avg2_16                004b4ae0 f   libmpeg2:motion_comp_mmx.obj
 0001:000b3b60       _MC_put4_8                 004b4b60 f   libmpeg2:motion_comp_mmx.obj
 0001:000b3bf0       _MC_put4_16                004b4bf0 f   libmpeg2:motion_comp_mmx.obj
 0001:000b3d00       _MC_avg4_8                 004b4d00 f   libmpeg2:motion_comp_mmx.obj
 0001:000b3da0       _MC_avg4_16                004b4da0 f   libmpeg2:motion_comp_mmx.obj
 0001:000b2860       _arch_accel                004b3860 f   libmpeg2:cpu_accel.obj
 0001:000b2840       _state_restore_mmx         004b3840 f   libmpeg2:cpu_state.obj
 0001:000b1eb0       _mpeg2_idct_copy_c         004b2eb0 f   libmpeg2:idct.obj
 0001:000b22f0       _mpeg2_idct_add_c          004b32f0 f   libmpeg2:idct.obj
 0001:000b02d0       _MC_put_o_16_c             004b12d0 f   libmpeg2:motion_comp.obj
 0001:000b0350       _MC_put_o_8_c              004b1350 f   libmpeg2:motion_comp.obj
 0001:000b03a0       _MC_avg_o_16_c             004b13a0 f   libmpeg2:motion_comp.obj
 0001:000b04f0       _MC_avg_o_8_c              004b14f0 f   libmpeg2:motion_comp.obj
 0001:000b05b0       _MC_put_x_16_c             004b15b0 f   libmpeg2:motion_comp.obj
 0001:000b0700       _MC_put_x_8_c              004b1700 f   libmpeg2:motion_comp.obj
 0001:000b07c0       _MC_avg_x_16_c             004b17c0 f   libmpeg2:motion_comp.obj
 0001:000b09c0       _MC_avg_x_8_c              004b19c0 f   libmpeg2:motion_comp.obj
 0001:000b0ad0       _MC_put_y_16_c             004b1ad0 f   libmpeg2:motion_comp.obj
 0001:000b0d00       _MC_put_y_8_c              004b1d00 f   libmpeg2:motion_comp.obj
 0001:000b0e20       _MC_avg_y_16_c             004b1e20 f   libmpeg2:motion_comp.obj
 0001:000b1100       _MC_avg_y_8_c              004b2100 f   libmpeg2:motion_comp.obj
 0001:000b1280       _MC_put_xy_16_c            004b2280 f   libmpeg2:motion_comp.obj
 0001:000b15f0       _MC_put_xy_8_c             004b25f0 f   libmpeg2:motion_comp.obj
 0001:000b17b0       _MC_avg_xy_16_c            004b27b0 f   libmpeg2:motion_comp.obj
 0001:000b1bd0       _MC_avg_xy_8_c             004b2bd0 f   libmpeg2:motion_comp.obj
 0001:000a6630       _motion_mp1                004a7630 f   libmpeg2:slice.obj
 0001:000a6a10       _motion_fr_frame_420       004a7a10 f   libmpeg2:slice.obj
 0001:000a6de0       _motion_fr_field_420       004a7de0 f   libmpeg2:slice.obj
 0001:000a75b0       _motion_fr_dmv_420         004a85b0 f   libmpeg2:slice.obj
 0001:000a7d30       _motion_reuse_420          004a8d30 f   libmpeg2:slice.obj
 0001:000a7e50       _motion_zero_420           004a8e50 f   libmpeg2:slice.obj
 0001:000a7ee0       _motion_fi_field_420       004a8ee0 f   libmpeg2:slice.obj
 0001:000a82c0       _motion_fi_16x8_420        004a92c0 f   libmpeg2:slice.obj
 0001:000a8a80       _motion_fi_dmv_420         004a9a80 f   libmpeg2:slice.obj
 0001:000a8ff0       _motion_fr_frame_422       004a9ff0 f   libmpeg2:slice.obj
 0001:000a93a0       _motion_fr_field_422       004aa3a0 f   libmpeg2:slice.obj
 0001:000a9b20       _motion_fr_dmv_422         004aab20 f   libmpeg2:slice.obj
 0001:000aa200       _motion_reuse_422          004ab200 f   libmpeg2:slice.obj
 0001:000aa300       _motion_zero_422           004ab300 f   libmpeg2:slice.obj
 0001:000aa380       _motion_fi_field_422       004ab380 f   libmpeg2:slice.obj
 0001:000aa750       _motion_fi_16x8_422        004ab750 f   libmpeg2:slice.obj
 0001:000aaec0       _motion_fi_dmv_422         004abec0 f   libmpeg2:slice.obj
 0001:000ab3e0       _motion_fr_frame_444       004ac3e0 f   libmpeg2:slice.obj
 0001:000ab750       _motion_fr_field_444       004ac750 f   libmpeg2:slice.obj
 0001:000abe60       _motion_fr_dmv_444         004ace60 f   libmpeg2:slice.obj
 0001:000ac4b0       _motion_reuse_444          004ad4b0 f   libmpeg2:slice.obj
 0001:000ac570       _motion_zero_444           004ad570 f   libmpeg2:slice.obj
 0001:000ac5f0       _motion_fi_field_444       004ad5f0 f   libmpeg2:slice.obj
 0001:000ac990       _motion_fi_16x8_444        004ad990 f   libmpeg2:slice.obj
 0001:000ad0c0       _motion_fi_dmv_444         004ae0c0 f   libmpeg2:slice.obj
 0001:000aed10       _get_quantizer_scale       004afd10 f   libmpeg2:slice.obj
 0001:000aed70       _get_coded_block_pattern   004afd70 f   libmpeg2:slice.obj
 0001:000aede0       _get_luma_dc_dct_diff      004afde0 f   libmpeg2:slice.obj
 0001:000aeef0       _get_chroma_dc_dct_diff    004afef0 f   libmpeg2:slice.obj
 0001:000af000       _get_intra_block_B14       004b0000 f   libmpeg2:slice.obj
 0001:000af260       _get_intra_block_B15       004b0260 f   libmpeg2:slice.obj
 0001:000af4a0       _get_mpeg1_intra_block     004b04a0 f   libmpeg2:slice.obj
 0001:000af6f0       _slice_non_intra_DCT       004b06f0 f   libmpeg2:slice.obj
 0001:000af750       _get_non_intra_block       004b0750 f   libmpeg2:slice.obj
 0001:000afa20       _get_mpeg1_non_intra_block 004b0a20 f   libmpeg2:slice.obj
 0001:000afcf0       _motion_fr_conceal         004b0cf0 f   libmpeg2:slice.obj
 0001:000affb0       _motion_fi_conceal         004b0fb0 f   libmpeg2:slice.obj
 0001:000a4ef0       _sequence_ext              004a5ef0 f   libmpeg2:header.obj
 0001:000a5080       _sequence_display_ext      004a6080 f   libmpeg2:header.obj
 0001:000a5370       _info_user_data            004a6370 f   libmpeg2:header.obj
 0001:000a53a0       _finalize_matrix           004a63a0 f   libmpeg2:header.obj
 0001:000a5480       _copy_matrix               004a6480 f   libmpeg2:header.obj
 0001:000a54d0       _invalid_end_action        004a64d0 f   libmpeg2:header.obj
 0001:000a5820       _picture_coding_ext        004a6820 f   libmpeg2:header.obj
 0001:000a59a0       _picture_display_ext       004a69a0 f   libmpeg2:header.obj
 0001:000a5ec0       _copyright_ext             004a6ec0 f   libmpeg2:header.obj
 0001:000a5ed0       _quant_matrix_ext          004a6ed0 f   libmpeg2:header.obj
 0001:000a61a0       _prescale                  004a71a0 f   libmpeg2:header.obj
 0001:000a62e0       _seek_sequence             004a72e0 f   libmpeg2:header.obj
 0001:000a4460       _seek_chunk                004a5460 f   libmpeg2:decode.obj
 0001:000b9100       _mmxext_rgb16              004ba100 f   libmpeg2convert:rgb_mmx.obj
 0001:000b9130       _mmxext_argb32             004ba130 f   libmpeg2convert:rgb_mmx.obj
 0001:000b9160       _mmx_rgb16                 004ba160 f   libmpeg2convert:rgb_mmx.obj
 0001:000b9190       _mmx_argb32                004ba190 f   libmpeg2convert:rgb_mmx.obj
 0001:000b91c0       _rgb16                     004ba1c0 f   libmpeg2convert:rgb_mmx.obj
 0001:000b9290       _argb32                    004ba290 f   libmpeg2convert:rgb_mmx.obj
 0001:000b9360       _mmx_yuv2rgb               004ba360 f   libmpeg2convert:rgb_mmx.obj
 0001:000b9420       _mmx_unpack_16rgb          004ba420 f   libmpeg2convert:rgb_mmx.obj
 0001:000b9490       _mmx_unpack_32rgb          004ba490 f   libmpeg2convert:rgb_mmx.obj
 0001:000b5350       _rgb_c_32_420              004b6350 f   libmpeg2convert:rgb.obj
 0001:000b56e0       _rgb_c_24_rgb_420          004b66e0 f   libmpeg2convert:rgb.obj
 0001:000b5b50       _rgb_c_24_bgr_420          004b6b50 f   libmpeg2convert:rgb.obj
 0001:000b5fb0       _rgb_c_16_420              004b6fb0 f   libmpeg2convert:rgb.obj
 0001:000b6380       _rgb_c_8_420               004b7380 f   libmpeg2convert:rgb.obj
 0001:000b69a0       _rgb_c_32_422              004b79a0 f   libmpeg2convert:rgb.obj
 0001:000b6be0       _rgb_c_24_rgb_422          004b7be0 f   libmpeg2convert:rgb.obj
 0001:000b6e70       _rgb_c_24_bgr_422          004b7e70 f   libmpeg2convert:rgb.obj
 0001:000b70e0       _rgb_c_16_422              004b80e0 f   libmpeg2convert:rgb.obj
 0001:000b7340       _rgb_c_8_422               004b8340 f   libmpeg2convert:rgb.obj
 0001:000b76f0       _rgb_c_32_444              004b86f0 f   libmpeg2convert:rgb.obj
 0001:000b7990       _rgb_c_24_rgb_444          004b8990 f   libmpeg2convert:rgb.obj
 0001:000b7c90       _rgb_c_24_bgr_444          004b8c90 f   libmpeg2convert:rgb.obj
 0001:000b7f90       _rgb_c_16_444              004b8f90 f   libmpeg2convert:rgb.obj
 0001:000b8250       _rgb_c_8_444               004b9250 f   libmpeg2convert:rgb.obj
 0001:000b86a0       _rgb_internal              004b96a0 f   libmpeg2convert:rgb.obj
 0001:000b87f0       _rgb_start                 004b97f0 f   libmpeg2convert:rgb.obj
 0001:000b88a0       _rgb_c_init                004b98a0 f   libmpeg2convert:rgb.obj
 0001:000d8960       _findenv                   004d9960 f   LIBCMTD:setenv.obj
 0001:000d89e0       _copy_environ              004d99e0 f   LIBCMTD:setenv.obj
 0001:000d8630       _strncnt                   004d9630 f   LIBCMTD:a_cmp.obj
 0001:000d814c       lupe                       004d914c f   LIBCMTD:strnicmp.obj
 0001:000d8164       skip1                      004d9164 f   LIBCMTD:strnicmp.obj
 0001:000d816e       skip2                      004d916e f   LIBCMTD:strnicmp.obj
 0001:000d8175       eject                      004d9175 f   LIBCMTD:strnicmp.obj
 0001:000d817f       differ                     004d917f f   LIBCMTD:strnicmp.obj
 0001:000d8191       notclocale                 004d9191 f   LIBCMTD:strnicmp.obj
 0001:000d81a5       do_lock                    004d91a5 f   LIBCMTD:strnicmp.obj
 0001:000d81be       end_lock                   004d91be f   LIBCMTD:strnicmp.obj
 0001:000d81c4       lupe2                      004d91c4 f   LIBCMTD:strnicmp.obj
 0001:000d81ef       eject2                     004d91ef f   LIBCMTD:strnicmp.obj
 0001:000d81f5       differ2                    004d91f5 f   LIBCMTD:strnicmp.obj
 0001:000d81fe       toend2                     004d91fe f   LIBCMTD:strnicmp.obj
 0001:000d820c       do_unlock                  004d920c f   LIBCMTD:strnicmp.obj
 0001:000d821a       end_unlock                 004d921a f   LIBCMTD:strnicmp.obj
 0001:000d821a       toend                      004d921a f   LIBCMTD:strnicmp.obj
 0001:000d806c       chk_null                   004d906c f   LIBCMTD:stricmp.obj
 0001:000d809e       done                       004d909e f   LIBCMTD:stricmp.obj
 0001:000d80a3       notclocale                 004d90a3 f   LIBCMTD:stricmp.obj
 0001:000d80b7       do_lock                    004d90b7 f   LIBCMTD:stricmp.obj
 0001:000d80cc       end_lock                   004d90cc f   LIBCMTD:stricmp.obj
 0001:000d80d4       chk_null2                  004d90d4 f   LIBCMTD:stricmp.obj
 0001:000d80ff       done2                      004d90ff f   LIBCMTD:stricmp.obj
 0001:000d810f       do_unlock                  004d910f f   LIBCMTD:stricmp.obj
 0001:000d8119       end_unlock                 004d9119 f   LIBCMTD:stricmp.obj
 0001:000d811b       doret                      004d911b f   LIBCMTD:stricmp.obj
 0001:000d6e50       __expandtime               004d7e50 f   LIBCMTD:strftime.obj
 0001:000d7470       __store_str                004d8470 f   LIBCMTD:strftime.obj
 0001:000d74c0       __store_num                004d84c0 f   LIBCMTD:strftime.obj
 0001:000d7570       __store_number             004d8570 f   LIBCMTD:strftime.obj
 0001:000d7620       __store_winword            004d8620 f   LIBCMTD:strftime.obj
 0001:000d5620       _TranslateName             004d6620 f   LIBCMTD:getqloc.obj
 0001:000d56b0       _GetLcidFromLangCountry    004d66b0 f   LIBCMTD:getqloc.obj
 0001:000d5770       _LangCountryEnumProc@4     004d6770 f   LIBCMTD:getqloc.obj
 0001:000d5aa0       _GetLcidFromLanguage       004d6aa0 f   LIBCMTD:getqloc.obj
 0001:000d5b20       _LanguageEnumProc@4        004d6b20 f   LIBCMTD:getqloc.obj
 0001:000d5c40       _GetLcidFromCountry        004d6c40 f   LIBCMTD:getqloc.obj
 0001:000d5c90       _CountryEnumProc@4         004d6c90 f   LIBCMTD:getqloc.obj
 0001:000d5d40       _GetLcidFromDefault        004d6d40 f   LIBCMTD:getqloc.obj
 0001:000d5d70       _ProcessCodePage           004d6d70 f   LIBCMTD:getqloc.obj
 0001:000d5e10       _TestDefaultCountry        004d6e10 f   LIBCMTD:getqloc.obj
 0001:000d5e60       _TestDefaultLanguage       004d6e60 f   LIBCMTD:getqloc.obj
 0001:000d5ef0       _IsThisWindowsNT           004d6ef0 f   LIBCMTD:getqloc.obj
 0001:000d5f40       _crtGetLocaleInfoA@16      004d6f40 f   LIBCMTD:getqloc.obj
 0001:000d60d0       _LcidFromHexString         004d70d0 f   LIBCMTD:getqloc.obj
 0001:000d6150       _GetPrimaryLen             004d7150 f   LIBCMTD:getqloc.obj
 0001:000d53f4       listnext                   004d63f4 f   LIBCMTD:strpbrk.obj
 0001:000d5401       listdone                   004d6401 f   LIBCMTD:strpbrk.obj
 0001:000d5404       dstnext                    004d6404 f   LIBCMTD:strpbrk.obj
 0001:000d5414       dstdone                    004d6414 f   LIBCMTD:strpbrk.obj
 0001:000d53b4       listnext                   004d63b4 f   LIBCMTD:strcspn.obj
 0001:000d53c1       listdone                   004d63c1 f   LIBCMTD:strcspn.obj
 0001:000d53c8       dstnext                    004d63c8 f   LIBCMTD:strcspn.obj
 0001:000d53d6       dstdone                    004d63d6 f   LIBCMTD:strcspn.obj
 0001:000d4cc0       __get_lc_lconv             004d5cc0 f   LIBCMTD:initmon.obj
 0001:000d4ed0       _fix_grouping              004d5ed0 f   LIBCMTD:initmon.obj
 0001:000d4f50       __free_lc_lconv            004d5f50 f   LIBCMTD:initmon.obj
 0001:000d4b10       _fix_grouping              004d5b10 f   LIBCMTD:initnum.obj
 0001:000d3fc0       __get_lc_time              004d4fc0 f   LIBCMTD:inittime.obj
 0001:000d4550       __free_lc_time             004d5550 f   LIBCMTD:inittime.obj
 0001:000d2080       _strncnt                   004d3080 f   LIBCMTD:a_map.obj
 0001:000d1710       __setlocale_set_cat        004d2710 f   LIBCMTD:setlocal.obj
 0001:000d18b0       __setlocale_get_all        004d28b0 f   LIBCMTD:setlocal.obj
 0001:000d06b4       label0                     004d16b4 f   LIBCMTD:adj_fdiv.obj
 0001:000d06ba       label1                     004d16ba f   LIBCMTD:adj_fdiv.obj
 0001:000d06bf       label2                     004d16bf f   LIBCMTD:adj_fdiv.obj
 0001:000d06c5       label3                     004d16c5 f   LIBCMTD:adj_fdiv.obj
 0001:000d06ca       label4                     004d16ca f   LIBCMTD:adj_fdiv.obj
 0001:000d06d0       label5                     004d16d0 f   LIBCMTD:adj_fdiv.obj
 0001:000d06d6       label6                     004d16d6 f   LIBCMTD:adj_fdiv.obj
 0001:000d06dc       label7                     004d16dc f   LIBCMTD:adj_fdiv.obj
 0001:000d06e2       label8                     004d16e2 f   LIBCMTD:adj_fdiv.obj
 0001:000d06fe       label9                     004d16fe f   LIBCMTD:adj_fdiv.obj
 0001:000d0703       label10                    004d1703 f   LIBCMTD:adj_fdiv.obj
 0001:000d0719       label11                    004d1719 f   LIBCMTD:adj_fdiv.obj
 0001:000d071e       label12                    004d171e f   LIBCMTD:adj_fdiv.obj
 0001:000d073a       label13                    004d173a f   LIBCMTD:adj_fdiv.obj
 0001:000d074a       label14                    004d174a f   LIBCMTD:adj_fdiv.obj
 0001:000d075e       label15                    004d175e f   LIBCMTD:adj_fdiv.obj
 0001:000d076e       label16                    004d176e f   LIBCMTD:adj_fdiv.obj
 0001:000d078e       label17                    004d178e f   LIBCMTD:adj_fdiv.obj
 0001:000d0793       label18                    004d1793 f   LIBCMTD:adj_fdiv.obj
 0001:000d07ad       label19                    004d17ad f   LIBCMTD:adj_fdiv.obj
 0001:000d07b2       label20                    004d17b2 f   LIBCMTD:adj_fdiv.obj
 0001:000d07d2       label21                    004d17d2 f   LIBCMTD:adj_fdiv.obj
 0001:000d07e6       label22                    004d17e6 f   LIBCMTD:adj_fdiv.obj
 0001:000d07fe       label23                    004d17fe f   LIBCMTD:adj_fdiv.obj
 0001:000d0812       label24                    004d1812 f   LIBCMTD:adj_fdiv.obj
 0001:000d0832       label25                    004d1832 f   LIBCMTD:adj_fdiv.obj
 0001:000d0837       label26                    004d1837 f   LIBCMTD:adj_fdiv.obj
 0001:000d0851       label27                    004d1851 f   LIBCMTD:adj_fdiv.obj
 0001:000d0856       label28                    004d1856 f   LIBCMTD:adj_fdiv.obj
 0001:000d0876       label29                    004d1876 f   LIBCMTD:adj_fdiv.obj
 0001:000d088a       label30                    004d188a f   LIBCMTD:adj_fdiv.obj
 0001:000d08a2       label31                    004d18a2 f   LIBCMTD:adj_fdiv.obj
 0001:000d08b6       label32                    004d18b6 f   LIBCMTD:adj_fdiv.obj
 0001:000d08d6       label33                    004d18d6 f   LIBCMTD:adj_fdiv.obj
 0001:000d08db       label34                    004d18db f   LIBCMTD:adj_fdiv.obj
 0001:000d08f5       label35                    004d18f5 f   LIBCMTD:adj_fdiv.obj
 0001:000d08fa       label36                    004d18fa f   LIBCMTD:adj_fdiv.obj
 0001:000d091a       label37                    004d191a f   LIBCMTD:adj_fdiv.obj
 0001:000d092e       label38                    004d192e f   LIBCMTD:adj_fdiv.obj
 0001:000d0946       label39                    004d1946 f   LIBCMTD:adj_fdiv.obj
 0001:000d095a       label40                    004d195a f   LIBCMTD:adj_fdiv.obj
 0001:000d097a       label41                    004d197a f   LIBCMTD:adj_fdiv.obj
 0001:000d097f       label42                    004d197f f   LIBCMTD:adj_fdiv.obj
 0001:000d0999       label43                    004d1999 f   LIBCMTD:adj_fdiv.obj
 0001:000d099e       label44                    004d199e f   LIBCMTD:adj_fdiv.obj
 0001:000d09be       label45                    004d19be f   LIBCMTD:adj_fdiv.obj
 0001:000d09d2       label46                    004d19d2 f   LIBCMTD:adj_fdiv.obj
 0001:000d09ea       label47                    004d19ea f   LIBCMTD:adj_fdiv.obj
 0001:000d09fe       label48                    004d19fe f   LIBCMTD:adj_fdiv.obj
 0001:000d0a1e       label49                    004d1a1e f   LIBCMTD:adj_fdiv.obj
 0001:000d0a23       label50                    004d1a23 f   LIBCMTD:adj_fdiv.obj
 0001:000d0a3d       label51                    004d1a3d f   LIBCMTD:adj_fdiv.obj
 0001:000d0a42       label52                    004d1a42 f   LIBCMTD:adj_fdiv.obj
 0001:000d0a62       label53                    004d1a62 f   LIBCMTD:adj_fdiv.obj
 0001:000d0a76       label54                    004d1a76 f   LIBCMTD:adj_fdiv.obj
 0001:000d0a8e       label55                    004d1a8e f   LIBCMTD:adj_fdiv.obj
 0001:000d0aa2       label56                    004d1aa2 f   LIBCMTD:adj_fdiv.obj
 0001:000d0ac2       label57                    004d1ac2 f   LIBCMTD:adj_fdiv.obj
 0001:000d0ac7       label58                    004d1ac7 f   LIBCMTD:adj_fdiv.obj
 0001:000d0ae1       label59                    004d1ae1 f   LIBCMTD:adj_fdiv.obj
 0001:000d0ae6       label60                    004d1ae6 f   LIBCMTD:adj_fdiv.obj
 0001:000d0b06       label61                    004d1b06 f   LIBCMTD:adj_fdiv.obj
 0001:000d0b1a       label62                    004d1b1a f   LIBCMTD:adj_fdiv.obj
 0001:000d0b32       label63                    004d1b32 f   LIBCMTD:adj_fdiv.obj
 0001:000d00ea       okay                       004d10ea f   LIBCMTD:strncmp.obj
 0001:000d00fd       firstbig                   004d10fd f   LIBCMTD:strncmp.obj
 0001:000d00ff       lastbig                    004d10ff f   LIBCMTD:strncmp.obj
 0001:000d0101       toend                      004d1101 f   LIBCMTD:strncmp.obj
 0001:000cfd70       _strtoxl                   004d0d70 f   LIBCMTD:strtol.obj
 0001:000cf890       _getSystemCP               004d0890 f   LIBCMTD:mbctype.obj
 0001:000cf8f0       _CPtoLCID                  004d08f0 f   LIBCMTD:mbctype.obj
 0001:000cf970       _setSBCS                   004d0970 f   LIBCMTD:mbctype.obj
 0001:000cf9f0       _setSBUpLow                004d09f0 f   LIBCMTD:mbctype.obj
 0001:000cf4d0       _x_ismbbtype               004d04d0 f   LIBCMTD:ismbbyte.obj
 0001:000cea70       __tzset_lk                 004cfa70 f   LIBCMTD:tzset.obj
 0001:000cee50       __isindst_lk               004cfe50 f   LIBCMTD:tzset.obj
 0001:000cf150       _cvtdate                   004d0150 f   LIBCMTD:tzset.obj
 0001:000cdd61       L1                         004ced61 f   LIBCMTD:ullrem.obj
 0001:000cdd6f       L3                         004ced6f f   LIBCMTD:ullrem.obj
 0001:000cdd9a       L4                         004ced9a f   LIBCMTD:ullrem.obj
 0001:000cdda2       L5                         004ceda2 f   LIBCMTD:ullrem.obj
 0001:000cddb1       L2                         004cedb1 f   LIBCMTD:ullrem.obj
 0001:000cb410       __abstract_cw              004cc410 f   LIBCMTD:ieee87.obj
 0001:000cb590       __hw_cw                    004cc590 f   LIBCMTD:ieee87.obj
 0001:000cb6f0       __abstract_sw              004cc6f0 f   LIBCMTD:ieee87.obj
 0001:000cae7b       front_misaligned           004cbe7b f   LIBCMTD:strncat.obj
 0001:000cae8a       find_end_of_front_string_loop 004cbe8a f   LIBCMTD:strncat.obj
 0001:000caebb       start_byte_3               004cbebb f   LIBCMTD:strncat.obj
 0001:000caebe       start_byte_2               004cbebe f   LIBCMTD:strncat.obj
 0001:000caec3       start_byte_1               004cbec3 f   LIBCMTD:strncat.obj
 0001:000caec8       start_byte_0               004cbec8 f   LIBCMTD:strncat.obj
 0001:000caecb       copy_start                 004cbecb f   LIBCMTD:strncat.obj
 0001:000caee0       back_misaligned            004cbee0 f   LIBCMTD:strncat.obj
 0001:000caefc       tail_loop_start            004cbefc f   LIBCMTD:strncat.obj
 0001:000caf03       tail_loop                  004cbf03 f   LIBCMTD:strncat.obj
 0001:000caf10       empty_counter              004cbf10 f   LIBCMTD:strncat.obj
 0001:000caf12       finish1                    004cbf12 f   LIBCMTD:strncat.obj
 0001:000caf14       finish                     004cbf14 f   LIBCMTD:strncat.obj
 0001:000caf1a       byte_0                     004cbf1a f   LIBCMTD:strncat.obj
 0001:000caf24       main_loop                  004cbf24 f   LIBCMTD:strncat.obj
 0001:000caf2c       main_loop_entrance         004cbf2c f   LIBCMTD:strncat.obj
 0001:000caf5e       byte_3                     004cbf5e f   LIBCMTD:strncat.obj
 0001:000caf68       byte_2                     004cbf68 f   LIBCMTD:strncat.obj
 0001:000caf78       byte_1                     004cbf78 f   LIBCMTD:strncat.obj
 0001:000cabc0       _xtoa                      004cbbc0 f   LIBCMTD:xtoa.obj
 0001:000cad40       _x64toa@20                 004cbd40 f   LIBCMTD:xtoa.obj
 0001:000ca750       _ctrlevent_capture@4       004cb750 f   LIBCMTD:winsig.obj
 0001:000caa30       _siglookup                 004cba30 f   LIBCMTD:winsig.obj
 0001:000c9de1       fFEXP                      004cade1 f   LIBCMTD:87tran.obj
 0001:000c9f21       _rtforexpinf               004caf21 f   LIBCMTD:87tran.obj
 0001:000c9960       __get_fname                004ca960 f   LIBCMTD:fpexcept.obj
 0001:000c44f0       _parse_cmdline             004c54f0 f   LIBCMTD:stdargv.obj
 0001:000c41a0       _xcptlookup                004c51a0 f   LIBCMTD:winxfltr.obj
 0001:000c2a70       _flsall                    004c3a70 f   LIBCMTD:fflush.obj
 0001:000c25c0       _write_char                004c35c0 f   LIBCMTD:output.obj
 0001:000c2640       _write_multi_char          004c3640 f   LIBCMTD:output.obj
 0001:000c2680       _write_string              004c3680 f   LIBCMTD:output.obj
 0001:000c26d0       _get_int_arg               004c36d0 f   LIBCMTD:output.obj
 0001:000c26f0       _get_int64_arg             004c36f0 f   LIBCMTD:output.obj
 0001:000c2710       _get_short_arg             004c3710 f   LIBCMTD:output.obj
 0001:000c14f0       __hextodec                 004c24f0 f   LIBCMTD:input.obj
 0001:000c1550       __inc                      004c2550 f   LIBCMTD:input.obj
 0001:000c15b0       __un_inc                   004c25b0 f   LIBCMTD:input.obj
 0001:000c15d0       __whiteout                 004c25d0 f   LIBCMTD:input.obj
 0001:000c0040       _$$$00001                  004c1040 f   LIBCMTD:strchr.obj
 0001:000c0068       str_misaligned             004c1068 f   LIBCMTD:strchr.obj
 0001:000c007b       main_loop_start            004c107b f   LIBCMTD:strchr.obj
 0001:000c0086       main_loop                  004c1086 f   LIBCMTD:strchr.obj
 0001:000c00c2       retnull                    004c10c2 f   LIBCMTD:strchr.obj
 0001:000c00c4       retnull_bx                 004c10c4 f   LIBCMTD:strchr.obj
 0001:000c00c8       chr_is_found               004c10c8 f   LIBCMTD:strchr.obj
 0001:000c00f0       byte_3                     004c10f0 f   LIBCMTD:strchr.obj
 0001:000c00f7       byte_2                     004c10f7 f   LIBCMTD:strchr.obj
 0001:000c00fe       byte_1                     004c10fe f   LIBCMTD:strchr.obj
 0001:000c0105       byte_0                     004c1105 f   LIBCMTD:strchr.obj
 0001:000c0040       found_bx                   004c1040 f   LIBCMTD:strchr.obj
 0001:000bfa20       __cftoe2                   004c0a20 f   LIBCMTD:cvt.obj
 0001:000bfc00       __cftof2                   004c0c00 f   LIBCMTD:cvt.obj
 0001:000bfe90       __shift                    004c0e90 f   LIBCMTD:cvt.obj
 0001:000bf3b0       _CrtMessageWindow          004c03b0 f   LIBCMTD:dbgrpt.obj
 0001:000bc7d0       _realloc_help              004bd7d0 f   LIBCMTD:dbgheap.obj
 0001:000bd520       _CheckBytes                004be520 f   LIBCMTD:dbgheap.obj
 0001:000be2f0       __printMemBlockData        004bf2f0 f   LIBCMTD:dbgheap.obj
 0001:000bc1f0       _fast_error_exit           004bd1f0 f   LIBCMTD:wincrt0.obj
 0001:000bc040       MORE32                     004bd040 f   LIBCMTD:ullshr.obj
 0001:000bc04a       RETZERO                    004bd04a f   LIBCMTD:ullshr.obj
 0001:000bbddc       str_misaligned             004bcddc f   LIBCMTD:strlen.obj
 0001:000bbdf0       main_loop                  004bcdf0 f   LIBCMTD:strlen.obj
 0001:000bbe23       byte_3                     004bce23 f   LIBCMTD:strlen.obj
 0001:000bbe2d       byte_2                     004bce2d f   LIBCMTD:strlen.obj
 0001:000bbe37       byte_1                     004bce37 f   LIBCMTD:strlen.obj
 0001:000bbe41       byte_0                     004bce41 f   LIBCMTD:strlen.obj
 0001:000bbcf4       src_misaligned             004bccf4 f   LIBCMTD:strncpy.obj
 0001:000bbd10       tail_loop_start            004bcd10 f   LIBCMTD:strncpy.obj
 0001:000bbd15       copy_tail_loop             004bcd15 f   LIBCMTD:strncpy.obj
 0001:000bbd22       fill_tail_end1             004bcd22 f   LIBCMTD:strncpy.obj
 0001:000bbd2a       align_dest                 004bcd2a f   LIBCMTD:strncpy.obj
 0001:000bbd32       dest_align_loop            004bcd32 f   LIBCMTD:strncpy.obj
 0001:000bbd44       dest_align_loop_end        004bcd44 f   LIBCMTD:strncpy.obj
 0001:000bbd4b       finish_loop                004bcd4b f   LIBCMTD:strncpy.obj
 0001:000bbd4e       fill_tail_zero_bytes       004bcd4e f   LIBCMTD:strncpy.obj
 0001:000bbd53       finish                     004bcd53 f   LIBCMTD:strncpy.obj
 0001:000bbd59       main_loop                  004bcd59 f   LIBCMTD:strncpy.obj
 0001:000bbd61       main_loop_entrance         004bcd61 f   LIBCMTD:strncpy.obj
 0001:000bbd97       byte_2                     004bcd97 f   LIBCMTD:strncpy.obj
 0001:000bbda1       byte_1                     004bcda1 f   LIBCMTD:strncpy.obj
 0001:000bbdab       byte_0                     004bcdab f   LIBCMTD:strncpy.obj
 0001:000bbdaf       fill_with_EOS_dwords       004bcdaf f   LIBCMTD:strncpy.obj
 0001:000bbdb7       fill_dwords_with_EOS       004bcdb7 f   LIBCMTD:strncpy.obj
 0001:000bbdb9       fill_with_EOS_loop         004bcdb9 f   LIBCMTD:strncpy.obj
 0001:000bbdc1       fill_tail                  004bcdc1 f   LIBCMTD:strncpy.obj
 0001:000bbdc6       fill_tail_end              004bcdc6 f   LIBCMTD:strncpy.obj
 0001:000bb800       LeadUp1                    004bc800 f   LIBCMTD:memmove.obj
 0001:000bb82c       LeadUp2                    004bc82c f   LIBCMTD:memmove.obj
 0001:000bb850       LeadUp3                    004bc850 f   LIBCMTD:memmove.obj
 0001:000bb8cf       UnwindUp0                  004bc8cf f   LIBCMTD:memmove.obj
 0001:000bb8bc       UnwindUp1                  004bc8bc f   LIBCMTD:memmove.obj
 0001:000bb8b4       UnwindUp2                  004bc8b4 f   LIBCMTD:memmove.obj
 0001:000bb8ac       UnwindUp3                  004bc8ac f   LIBCMTD:memmove.obj
 0001:000bb8a4       UnwindUp4                  004bc8a4 f   LIBCMTD:memmove.obj
 0001:000bb89c       UnwindUp5                  004bc89c f   LIBCMTD:memmove.obj
 0001:000bb894       UnwindUp6                  004bc894 f   LIBCMTD:memmove.obj
 0001:000bb88c       UnwindUp7                  004bc88c f   LIBCMTD:memmove.obj
 0001:000bb8e8       TrailUp0                   004bc8e8 f   LIBCMTD:memmove.obj
 0001:000bb8f0       TrailUp1                   004bc8f0 f   LIBCMTD:memmove.obj
 0001:000bb8fc       TrailUp2                   004bc8fc f   LIBCMTD:memmove.obj
 0001:000bb910       TrailUp3                   004bc910 f   LIBCMTD:memmove.obj
 0001:000bb988       LeadDown1                  004bc988 f   LIBCMTD:memmove.obj
 0001:000bb9a8       LeadDown2                  004bc9a8 f   LIBCMTD:memmove.obj
 0001:000bb9d0       LeadDown3                  004bc9d0 f   LIBCMTD:memmove.obj
 0001:000bba24       UnwindDown7                004bca24 f   LIBCMTD:memmove.obj
 0001:000bba2c       UnwindDown6                004bca2c f   LIBCMTD:memmove.obj
 0001:000bba34       UnwindDown5                004bca34 f   LIBCMTD:memmove.obj
 0001:000bba3c       UnwindDown4                004bca3c f   LIBCMTD:memmove.obj
 0001:000bba44       UnwindDown3                004bca44 f   LIBCMTD:memmove.obj
 0001:000bba4c       UnwindDown2                004bca4c f   LIBCMTD:memmove.obj
 0001:000bba54       UnwindDown1                004bca54 f   LIBCMTD:memmove.obj
 0001:000bba67       UnwindDown0                004bca67 f   LIBCMTD:memmove.obj
 0001:000bba80       TrailDown0                 004bca80 f   LIBCMTD:memmove.obj
 0001:000bba88       TrailDown1                 004bca88 f   LIBCMTD:memmove.obj
 0001:000bba98       TrailDown2                 004bca98 f   LIBCMTD:memmove.obj
 0001:000bbaac       TrailDown3                 004bcaac f   LIBCMTD:memmove.obj
 0001:000bb7b0       CopyUp                     004bc7b0 f   LIBCMTD:memmove.obj
 0001:000bb7cc       CopyLeadUp                 004bc7cc f   LIBCMTD:memmove.obj
 0001:000bb7e4       ByteCopyUp                 004bc7e4 f   LIBCMTD:memmove.obj
 0001:000bb7ec       CopyUnwindUp               004bc7ec f   LIBCMTD:memmove.obj
 0001:000bb928       CopyDown                   004bc928 f   LIBCMTD:memmove.obj
 0001:000bb950       CopyUnwindDown             004bc950 f   LIBCMTD:memmove.obj
 0001:000bb95c       CopyLeadDown               004bc95c f   LIBCMTD:memmove.obj
 0001:000bb974       ByteCopyDown               004bc974 f   LIBCMTD:memmove.obj
 0001:000bb230       _doexit                    004bc230 f   LIBCMTD:crt0dat.obj
 0001:000bb340       __initterm                 004bc340 f   LIBCMTD:crt0dat.obj
 0001:000bac00       _gu_return                 004bbc00 f   LIBCMTD:exsup.obj
 0001:000bac08       __unwind_handler           004bbc08 f   LIBCMTD:exsup.obj
 0001:000baba2       L1                         004bbba2 f   LIBCMTD:ulldiv.obj
 0001:000babb0       L3                         004bbbb0 f   LIBCMTD:ulldiv.obj
 0001:000babde       L4                         004bbbde f   LIBCMTD:ulldiv.obj
 0001:000babdf       L5                         004bbbdf f   LIBCMTD:ulldiv.obj
 0001:000babe3       L2                         004bbbe3 f   LIBCMTD:ulldiv.obj
 0001:000baafd       main_loop                  004bbafd f   LIBCMTD:memcmp.obj
 0001:000bab1a       done                       004bbb1a f   LIBCMTD:memcmp.obj
 0001:000bab1c       retnull                    004bbb1c f   LIBCMTD:memcmp.obj
 0001:000bab1d       dwords                     004bbb1d f   LIBCMTD:memcmp.obj
 0001:000bab45       difference_in_tail         004bbb45 f   LIBCMTD:memcmp.obj
 0001:000bab4a       not_equal                  004bbb4a f   LIBCMTD:memcmp.obj
 0001:000bab52       tail_loop_start            004bbb52 f   LIBCMTD:memcmp.obj
 0001:000bab79       tail_done                  004bbb79 f   LIBCMTD:memcmp.obj
 0001:000ba890       dodwords                   004bb890 f   LIBCMTD:strcmp.obj
 0001:000ba8c0       doneeq                     004bb8c0 f   LIBCMTD:strcmp.obj
 0001:000ba8c4       donene                     004bb8c4 f   LIBCMTD:strcmp.obj
 0001:000ba8cc       dopartial                  004bb8cc f   LIBCMTD:strcmp.obj
 0001:000ba8e8       doword                     004bb8e8 f   LIBCMTD:strcmp.obj
 0001:000ba7ad       dest_misaligned            004bb7ad f   LIBCMTD:strcat.obj
 0001:000ba7bc       find_end_of_dest_string_loop 004bb7bc f   LIBCMTD:strcat.obj
 0001:000ba7ef       start_byte_3               004bb7ef f   LIBCMTD:strcat.obj
 0001:000ba7f4       start_byte_2               004bb7f4 f   LIBCMTD:strcat.obj
 0001:000ba7f9       start_byte_1               004bb7f9 f   LIBCMTD:strcat.obj
 0001:000ba7fe       start_byte_0               004bb7fe f   LIBCMTD:strcat.obj
 0001:000ba80d       src_misaligned             004bb80d f   LIBCMTD:strcat.obj
 0001:000ba821       main_loop                  004bb821 f   LIBCMTD:strcat.obj
 0001:000ba826       main_loop_entrance         004bb826 f   LIBCMTD:strcat.obj
 0001:000ba85a       byte_3                     004bb85a f   LIBCMTD:strcat.obj
 0001:000ba862       byte_2                     004bb862 f   LIBCMTD:strcat.obj
 0001:000ba86f       byte_1                     004bb86f f   LIBCMTD:strcat.obj
 0001:000ba878       byte_0                     004bb878 f   LIBCMTD:strcat.obj
 0001:000ba801       copy_start                 004bb801 f   LIBCMTD:strcat.obj
 0001:000ba728       findnext                   004bb728 f   LIBCMTD:strstr.obj
 0001:000ba739       loop_start                 004bb739 f   LIBCMTD:strstr.obj
 0001:000ba73c       in_loop                    004bb73c f   LIBCMTD:strstr.obj
 0001:000ba744       not_found                  004bb744 f   LIBCMTD:strstr.obj
 0001:000ba74a       first_char_found           004bb74a f   LIBCMTD:strstr.obj
 0001:000ba751       two_first_chars_equal      004bb751 f   LIBCMTD:strstr.obj
 0001:000ba754       compare_loop               004bb754 f   LIBCMTD:strstr.obj
 0001:000ba777       strchr_call                004bb777 f   LIBCMTD:strstr.obj
 0001:000ba783       match                      004bb783 f   LIBCMTD:strstr.obj
 0001:000ba78a       empty_str2                 004bb78a f   LIBCMTD:strstr.obj
 0001:000ba380       _shortsort                 004bb380 f   LIBCMTD:qsort.obj
 0001:000ba3f0       _swap                      004bb3f0 f   LIBCMTD:qsort.obj
 0001:000ba130       MORE32                     004bb130 f   LIBCMTD:llshl.obj
 0001:000ba13a       RETZERO                    004bb13a f   LIBCMTD:llshl.obj
 0001:000ba0f9       hard                       004bb0f9 f   LIBCMTD:llmul.obj
 0001:000ba020       L1                         004bb020 f   LIBCMTD:llrem.obj
 0001:000ba03b       L2                         004bb03b f   LIBCMTD:llrem.obj
 0001:000ba05a       L3                         004bb05a f   LIBCMTD:llrem.obj
 0001:000ba068       L5                         004bb068 f   LIBCMTD:llrem.obj
 0001:000ba093       L6                         004bb093 f   LIBCMTD:llrem.obj
 0001:000ba09b       L7                         004bb09b f   LIBCMTD:llrem.obj
 0001:000ba0a6       L4                         004bb0a6 f   LIBCMTD:llrem.obj
 0001:000ba0ad       L8                         004bb0ad f   LIBCMTD:llrem.obj
 0001:000b9f71       L1                         004baf71 f   LIBCMTD:lldiv.obj
 0001:000b9f8d       L2                         004baf8d f   LIBCMTD:lldiv.obj
 0001:000b9fa9       L3                         004bafa9 f   LIBCMTD:lldiv.obj
 0001:000b9fb7       L5                         004bafb7 f   LIBCMTD:lldiv.obj
 0001:000b9fe5       L6                         004bafe5 f   LIBCMTD:lldiv.obj
 0001:000b9fe6       L7                         004bafe6 f   LIBCMTD:lldiv.obj
 0001:000b9fea       L4                         004bafea f   LIBCMTD:lldiv.obj
 0001:000b9ff4       L8                         004baff4 f   LIBCMTD:lldiv.obj
 0001:000b9f30       MORE32                     004baf30 f   LIBCMTD:llshr.obj
 0001:000b9f3b       RETSIGN                    004baf3b f   LIBCMTD:llshr.obj
 0001:000b9ee3       adjust_loop                004baee3 f   LIBCMTD:memset.obj
 0001:000b9ee9       dwords                     004baee9 f   LIBCMTD:memset.obj
 0001:000b9f03       main_loop_tail             004baf03 f   LIBCMTD:memset.obj
 0001:000b9f07       tail                       004baf07 f   LIBCMTD:memset.obj
 0001:000b9f0d       finish                     004baf0d f   LIBCMTD:memset.obj
 0001:000b9f13       toend                      004baf13 f   LIBCMTD:memset.obj
 0001:000b9da0       _$$$00001                  004bada0 f   LIBCMTD:chkstk.obj
 0001:000b9dac       probepages                 004badac f   LIBCMTD:chkstk.obj
 0001:000b9dc0       lastpage                   004badc0 f   LIBCMTD:chkstk.obj
 0001:000b9ad0       LeadUp1                    004baad0 f   LIBCMTD:memcpy.obj
 0001:000b9afc       LeadUp2                    004baafc f   LIBCMTD:memcpy.obj
 0001:000b9b20       LeadUp3                    004bab20 f   LIBCMTD:memcpy.obj
 0001:000b9b9f       UnwindUp0                  004bab9f f   LIBCMTD:memcpy.obj
 0001:000b9b8c       UnwindUp1                  004bab8c f   LIBCMTD:memcpy.obj
 0001:000b9b84       UnwindUp2                  004bab84 f   LIBCMTD:memcpy.obj
 0001:000b9b7c       UnwindUp3                  004bab7c f   LIBCMTD:memcpy.obj
 0001:000b9b74       UnwindUp4                  004bab74 f   LIBCMTD:memcpy.obj
 0001:000b9b6c       UnwindUp5                  004bab6c f   LIBCMTD:memcpy.obj
 0001:000b9b64       UnwindUp6                  004bab64 f   LIBCMTD:memcpy.obj
 0001:000b9b5c       UnwindUp7                  004bab5c f   LIBCMTD:memcpy.obj
 0001:000b9bb8       TrailUp0                   004babb8 f   LIBCMTD:memcpy.obj
 0001:000b9bc0       TrailUp1                   004babc0 f   LIBCMTD:memcpy.obj
 0001:000b9bcc       TrailUp2                   004babcc f   LIBCMTD:memcpy.obj
 0001:000b9be0       TrailUp3                   004babe0 f   LIBCMTD:memcpy.obj
 0001:000b9c58       LeadDown1                  004bac58 f   LIBCMTD:memcpy.obj
 0001:000b9c78       LeadDown2                  004bac78 f   LIBCMTD:memcpy.obj
 0001:000b9ca0       LeadDown3                  004baca0 f   LIBCMTD:memcpy.obj
 0001:000b9cf4       UnwindDown7                004bacf4 f   LIBCMTD:memcpy.obj
 0001:000b9cfc       UnwindDown6                004bacfc f   LIBCMTD:memcpy.obj
 0001:000b9d04       UnwindDown5                004bad04 f   LIBCMTD:memcpy.obj
 0001:000b9d0c       UnwindDown4                004bad0c f   LIBCMTD:memcpy.obj
 0001:000b9d14       UnwindDown3                004bad14 f   LIBCMTD:memcpy.obj
 0001:000b9d1c       UnwindDown2                004bad1c f   LIBCMTD:memcpy.obj
 0001:000b9d24       UnwindDown1                004bad24 f   LIBCMTD:memcpy.obj
 0001:000b9d37       UnwindDown0                004bad37 f   LIBCMTD:memcpy.obj
 0001:000b9d50       TrailDown0                 004bad50 f   LIBCMTD:memcpy.obj
 0001:000b9d58       TrailDown1                 004bad58 f   LIBCMTD:memcpy.obj
 0001:000b9d68       TrailDown2                 004bad68 f   LIBCMTD:memcpy.obj
 0001:000b9d7c       TrailDown3                 004bad7c f   LIBCMTD:memcpy.obj
 0001:000b9a80       CopyUp                     004baa80 f   LIBCMTD:memcpy.obj
 0001:000b9a9c       CopyLeadUp                 004baa9c f   LIBCMTD:memcpy.obj
 0001:000b9ab4       ByteCopyUp                 004baab4 f   LIBCMTD:memcpy.obj
 0001:000b9abc       CopyUnwindUp               004baabc f   LIBCMTD:memcpy.obj
 0001:000b9bf8       CopyDown                   004babf8 f   LIBCMTD:memcpy.obj
 0001:000b9c20       CopyUnwindDown             004bac20 f   LIBCMTD:memcpy.obj
 0001:000b9c2c       CopyLeadDown               004bac2c f   LIBCMTD:memcpy.obj
 0001:000b9c44       ByteCopyDown               004bac44 f   LIBCMTD:memcpy.obj

FIXUPS: bb63b fffffb71 2a 8e 19 15a fffffa40 5 a ffffffcc 1f295 20 31 16
FIXUPS: da0fc fffffe8b 20 31 16 e fffe1de9 31 c f 4c 27 f f 27 fffffe52
FIXUPS: bbd48 11 2f 25 fffffe4f fffffe00 2a 45 4b fffffe86 2a 33 1a fffffdcc
FIXUPS: bb6aa 3f 11 fffffd60 85 69 33 8c fae 2c 44 2c fffffd45 2a 1e c
FIXUPS: bc401 13 c fffffd6d 12 1d 20 1e 20 1b 77 12 13 19 b 31 10 fffffbe3
FIXUPS: bbf31 f af 5a 4f 79 fee 10 a 5 5 16 39 c 17 10 28 9 27 9 fffffdfc
FIXUPS: bce54 11 fffffc81 29 fffffb81 2e 2a 2e 14 22 f 23 fffffd03 35 18
FIXUPS: bc574 10 27c8 1b f3 41 5a 128 21 a1 20 31 28 4f 3a 31 18 45 18
FIXUPS: bf2a4 1b 98 69 2a 34 39 16 7c 2a 28 ffffdb94 e 8 b 12f4 62 13 5a
FIXUPS: be4e0 a2 6a f 51 2b 28 28 28 ac 2b 32 2b 39 20 49 33 30 9c 5c 8f
FIXUPS: bead2 1c 59 a1 15 54 78 fffff0f1 20 3c 17 18 2f 1c 50 1d 1f 62
FIXUPS: bdfb2 3b 2b 3b 45 2b c 41 6b 56 36 c 2b 1c 46 1c 16 13 1f 62 51
FIXUPS: bd626 1e 1b 34 3e 52 43 25 1b 51 21 1b 1c 6b 28 32 4f 18 1f 5b
FIXUPS: bda5b 25 25 b3 19 59 5f 54 86 43 25 1b 19ad 31 10 fffffea3 12 2a
FIXUPS: bf663 1b 2a 10 fffffeaf 12 2a 10 1b 2a 10 ffffdc2d 36 27 34 1f
FIXUPS: bd300 1e 30 2f 1c 69 28 5f 54 21 253c f 38 3b 2c 1b 6c fffffdb8
FIXUPS: bf939 3a 10 29 2a 10 fffffec0 1b d 18 14 f fffffe88 2b 28 16 1d
FIXUPS: bf840 25 fffffe62 12 18 16 10 56f 17 27 16 16 14 c 1d 16 15 16
FIXUPS: bfd82 11 14 16 14 f e 1e 20 16 15 16 14 16 14 19 19 a 1c fffffb0b
FIXUPS: bfa26 788 16 2b 14 2e 18 18 7a 63 34 47 1e d 2f 15 11 1d 21 14
FIXUPS: c04b1 19d 18 19 19 a fffff52f 1e d 19 16 14 2c 12ee fffff845 28
FIXUPS: c0965 20 3a 2f 1a 48 60 ff 27 16 94 35 68 12 34 33 48 3c 36 1c
FIXUPS: c0e86 18 17 fffff8c5 ffffff54 fffff95b 10b 2a 18 1aa3 24 5a 46
FIXUPS: c1d0c c1 24 e5 39 76 4a 3d 76 6c 62 20 77 27 70 46 31 35 44 35
FIXUPS: c23bf 147 8a 32 24 f ffffe9ad 36 1770 3e 54 4d 28 ffffe8e7 2d 47
FIXUPS: c11f4 9 19 a4 1aa 1d 118 1de 32 97 1f 58 a8 28 33 43 64 46 41 12
FIXUPS: c1b29 4d 23 10 ddd 34 24 cb 67 133 18 21 34 30 a8 e2 142 ba 31
FIXUPS: c30b5 2a 1b 11d 25 122 1e 30 75 32 22 26 170 55 53 ffffef7d 108
FIXUPS: c3e33 b 10 3e b fffffa76 e c f 22 28 78 6e 21 68 33 40 25 f fffffce7
FIXUPS: c38b7 fffffeab b 14 c f 1e 1b c 10 29 2d 131a 2a a7 fffffb34 2a
FIXUPS: c47ba 227 fffffc7f 5c 41 1f fffffb7c 13 e8 29a fffffa73 21 7e c8
FIXUPS: c423a fffffd26 60 13 a 34 a fffffbc7 b 14 14 f 6d 163f 36 28 1f
FIXUPS: c5376 26 17 12 1c fffffe2d 41 fffffd98 13 ffffff81 45 fffffc85
FIXUPS: c4c6f 2e 37 81 2a 21 62 1a 1a 1a 1a 1a 1d e fffffc21 60 16a2 fffffda2
FIXUPS: c5f90 77 3a 59 15 17 1d 14 13 14 1a 19 fffffa58 b6 7f 24 62 38
FIXUPS: c5dfd 18 28 fffffbd7 4a 94 2b fffff903 56 1e 13 22 1312 5d 58 1b
FIXUPS: c68e2 1b 40 14 59 14 34 24 6b fffff9bf 13 2f 22 6d 1b 36 1e 1d
FIXUPS: c622f 2a 29 58 13 1b 51 16 1b fffffe2d 2ec8 a3 102 119 ffffd8f9
FIXUPS: c6c45 20 16 f 20 28 b 37 fffffdd6 13 19 18 32 1b 1d 18 fffffa94
FIXUPS: c665b 2f 13 30 18 3f c 13 70 10 384c 11 182 1d8 1ac 2b 33 1b6 f4
FIXUPS: ca855 36 44 c 10 16 c 32 d fffff460 fffffefe 5e 7 ffffd0c4 23 3c
FIXUPS: c7521 192 19 de0 7e5 236 11a 209a 11 4c fffffd38 12 1d 5 55 3c
FIXUPS: caedc 2f b2 15 fffffae8 1c3 17 fffff167 a 14 52 a 14 2a 2c c 3a
FIXUPS: c9f33 11 2f 44 c 3e 18a6 28 16 1d a 96 f2 10 fffffa62 a a ffffff2b
FIXUPS: cb476 21 1f d 21 10 fffffc5a 18 c f 3f 3e bf 8e 70 fffffc57 b 14
FIXUPS: cb045 f 10d8 2a 44 4b fffffdd2 50 c c 5b 72 fffffaa2 18 11b 21
FIXUPS: cbd2d 5d 17 b5 fffff701 43 9 82 24 27 2a 17 58 50 44 1d 16 c4 15cc
FIXUPS: cce70 13 16 26 1e 41 93 20 68 82 10 30 10 30 10 fffff6ae 1c 13
FIXUPS: cc895 a7 fffff9d5 21 21 24 2a 19 c fffffe60 2a 44 4b 1ee9 24 13
FIXUPS: ce249 de 3e fffff585 14d eb 1c8 8c 152 6d 238 13 fffff3f7 1d fffffec2
FIXUPS: cd26f 28 29 ffffff78 17 fffff815 41 8c 14 26f 19 1c 13 2a 2490
FIXUPS: cf2fb 2f fffff91e 21 13 50 5e fffffe04 37 fffffe19 18 10 f 39 5f
FIXUPS: ce790 82 2a fffffb5b 4d 40 40 43 4d 40 43 50 50 4d 65 60 1194 23
FIXUPS: cf8fd 11 c 18 15 c 5d fffffa12 17 2e 2d a 16 fffff97d 82 2f 83
FIXUPS: cef82 11 b8 b d6 b 65 b 7c 30 e b 18 a23 3b 5b 52 6c 2c c d b0
FIXUPS: cff43 66 53 25 23 fffff460 b6 b 5e b a9 b c8 e b 43 c 34 c 38 65
FIXUPS: cf8a0 11 122c 35 35 1e8 fffff62d 20 20 23 20 20 20 1d 20 20 2d
FIXUPS: cfa1f 11 14 12 8 7 1b 2b 17 150 e 15 18 c 18 17 a 17c5 c8 1d 27
FIXUPS: d11a1 72 13 24 17 fffffb01 48 141 52 35 d1 7f fffff487 c 18 15
FIXUPS: d0587 7 114 43 7 10a 4a 7 15 5 7 e 1ee7 c 47 1b 40 50 31 4c 4e
FIXUPS: d2940 25 2a 9b 19 1b 26 2e 1b 14 19 19 11 67 27 40 2a 45 2e 33
FIXUPS: d2d0c 25 2b 3ec 35 35 13a c 10 c 27 6c fffffa5e 98 f6 fffff3ac
FIXUPS: d2382 8c 48 51 19 2f 2d 39 21 5a 38 47 17 31 11 1a 22 10 43 1dd0
FIXUPS: d4524 c 25 13 14 fffff8b6 b 14 14 f 137 b 23 2c5 fffff8aa 70 4f
FIXUPS: d3de6 fffff71c 43 33 24 bd 2d 9b 32 43 c 10 c fffff969 1b88 2b
FIXUPS: d4d11 1d 2b 13 b7 fffff8c6 1c 13 6d a7 fffffd6b c d 3e 29 19 2c
FIXUPS: d4312 14 10 f 24 37 1c 1f 49 11 71 17 a 1249 11 11 11 11 11 11
FIXUPS: d578a 14 14 14 14 14 14 14 14 14 14 fffff0ae 21 2b 28 1e 2c 38
FIXUPS: d4a0c 22 23 ac 4e 23 125 7d7 22 22 22 22 22 25 2f 11 11 11 11 11
FIXUPS: d55cd 11 11 11 11 11 11 11 11 11 11 11 11 11 11 11 11 11 11 fffff97f
FIXUPS: d509d 1c 1f 1f 1f 1f 1f 1f 1f 1f 1f 1f 1f 1f 1f 1f 1f 1f 1f 1f
FIXUPS: d5306 1f 1f 1f 1f 1f 1f 22 22 22 22 b70 11 11 fffff8b9 1d 1d 17
FIXUPS: d58fa 11 11 46 13 14 5b 11 10 34 30 16 3b fffff448 1f 10 e 1e 11
FIXUPS: d4f93 11 5e 1f 1f 1f 12c6 e 2b 11 fffff840 1f 10 e 4c 11 4f 11
FIXUPS: d5cf6 1f 1f 1f 1f 17 17 1f 1f 1f 1f 1f 1f 1f 1f 1f bd 11 11 11
FIXUPS: d6a57 54 2f 51 55 1b 52 12 4b 51 52 10 93 3d 33 a3 1a 11 198 ffffefca
FIXUPS: d604f 19 19 19 108 65 a6 22 17 e 15 e 1099 43 ffffff4b fffffeb4
FIXUPS: d7206 10 f c6 fffff145 29 34 35 3e 7 1c 7 1f c7 51 5a 1d 39 6a
FIXUPS: d67d0 5a 62 28 2b 83 59 16 74 16fe 1c 29 41 84 3a 24 31 36 50 a
FIXUPS: d838d 154 31c 20 1f0 ffffea14 2b 28 2c 3a 26 1c 5e 25 28 31 43
FIXUPS: d7663 31 16 14 454 9 48 9 2e 9 2e 9 2c 9 2c 9 2c 9 3d 38 a1 8d
FIXUPS: d7e99 23 23 23 3a 51 24 51 2a 28 45 2d 2d 28 b50 14 1b 43 6f ffffe9bd
FIXUPS: d771e 1b 50 9 2e 9 71 15 1b 51 9 2e 9 6e 15 37 15 1e 14 1c 1c 1c
FIXUPS: d7a6b 36 3a 9 1e07 c 19 42 3c a7 19 28 c 21 fffff822 19 d9 13f
FIXUPS: d9594 fffffc1d 25 a 31 fffffeb0 24 a 23 fffffdca 1b 76 be fffffb61
FIXUPS: d8bbf 2c 32 20 fffccf3a c 6 13b0f 5a 22 17 77d 30 30 30 30 30 30
FIXUPS: b9ff8 30 1fe0e f 58 28 29 fffffe68 fffffe5e fffffae0 45 29 3a 40
FIXUPS: d97ba 33 4b 59 fffcd53d 5e a b 67 197 1b 14 1b aa 57 d2 91 16 10
FIXUPS: a506c 5 1b4 549 b 1c 14c 152 14 6 6 6f 25 20 c 32 18 cb 8 9 1b
FIXUPS: a6233 96 4c 12 ba 31 cd 10 6 ef 13 140 3d6 95 ad 65 e e e 11 e
FIXUPS: a6d22 e e 44 e f 26 882f f 85 2e 15 19 1a 20 60 15 19 1a 2a 1d
FIXUPS: af823 57 15 19 1a 16 16 1b 1f 1c 1c 21 21 d5f 22 ffff54c7 8 9 951b
FIXUPS: af125 58 2d 1c f 3e 2d 1c f 3e 2d 1c f 45 2d 1c f 3c 2d 1c f 3d
FIXUPS: af49c 1c f 3d 2d 1c f 3d 2d fffff607 f 3d 2d 1c f 40 2d 1c f 60
FIXUPS: aed96 1c f 4a 2d 1c f aa 2d 1c f 3a 2d 1c f 3a 2d 1c f 44 2d fffec1f7
FIXUPS: 9b337 14 1a 140 1a 25 bd 58 10 38 114 1c 1d3 3d 1e 27 11 10 17f6f
FIXUPS: b39a5 fffff468 1d ffffb834 402 a 82 33 1c f 3a 2d fffefd4b 38 37
FIXUPS: 9e9f5 5e 47 3c 3b 25 27 ffffcfc0 42 221 2b e8 60c 1534 61a ffffcde6
FIXUPS: 9ade9 229 1e 10 81 10 23 76 3b 26 2e ac 10 3c05 12 fffff1f1 23
FIXUPS: 9e0f0 3f 1d 14b c 3d 2e 10 67 3f 171 41 11 24 48 37 2d 18 76 78
FIXUPS: 9e781 24 1e 17 24 24 24 19 27b7 82 67 111 10c cd 51 164 191 186
FIXUPS: a1904 31c 59 243 13 8e2 37e 38 12a e6 e3 ba f9 a2 ffffbc28 11 42
FIXUPS: 9ed69 1a 61 10 5c 104c 69 40 16 ed 40 23 72 40 23 64 23 21 1e0
FIXUPS: a05b4 68 10 aa 3b a5 6b 6b 6b 22 10 69 27 43 28a 1b5 82 67 ffffe5a8
FIXUPS: 9f508 68 79 3b 28 79 17 42 73 14 15 21 4c 16 6a 51 38 3a 19 14
FIXUPS: 9f9b4 2d 18 1af 59 3f 4c ba 30 23 c3 3edb b4 d5 31 8f 1bc 57 72
FIXUPS: a4244 11 a3 b9 28 142 14d 19c 53 77 ae ffffa7b8 3c 8d 58 6d 65
FIXUPS: 9f338 38 24 12 b2 3f 1f ffffa27e 79 20 4d 23 50 4d 23 44 20 4d
FIXUPS: 999d1 24 24 30 4d 23 24 24 24 20 23 b155 e1 31 31 44 42 ffffec63
FIXUPS: a3b6e 7e ae ffff6251 b7 23 1a 3c 18 22 10 26 10 fffffc04 12 fffff5f3
FIXUPS: 992c6 1f a3 23 24 24 23 52 23 24 24 24 23 11b 25 36 23 44 28 eeb
FIXUPS: 9a620 21 27 80 1d 14 16 10 2c 10 fffff950 10 30 64 cf 16 16 11
FIXUPS: 9a296 27 7b 1d 1d 17 16 10 7c 10 fffffa20 10 30 ffffba48 c 10 4eac
FIXUPS: 9a7bb 33 63 11d 18 a2 33 80 28 18 44 18 24 29 18 19 3b 3e 18 d
FIXUPS: 9acbb 10 fffff7a0 10 32 64 cc 17 ffffa4f7 45 4b 50 4b 17 82 10
FIXUPS: 94d03 1a9 35 e 18 16 11 7d 189 91 a1 61 66 51 33 45 21b 8a 79 4d
FIXUPS: 9579c 3a 1c a3 ffffe895 1a 23 31 2c 23 1c 1e 1e 26 31 43 5c 2d
FIXUPS: 9437e 3a 1a 78 74 4d e 12 21 57 87 43 22e 50 2c 94 95 2f ffffee93
FIXUPS: 93933 27 16 63 31 1d 30 58 14 11 97 93 20 3d 14 b9 3b 59 5a 2b
FIXUPS: 93e5e 62 87 3b 9d 4f 1c 26 30 1c 16 2c2f 10 ffffc50d 1d 21 59 13
FIXUPS: 93522 e 14 2a 25 1b 2a db e 12 e 12 e 12 1e e 12 e 12 e 12 11 22
FIXUPS: 9383f 10 2bbf 5a 27 41 27 1e 24 34 11 11 17 10 2b7 f f 17 10 12e
FIXUPS: 969ef f 1c8 97 11 11 17 10 27 11 11 17 11 11 163f 11 11 16 11 20
FIXUPS: 983e1 16 11 16 11 13 13 20 25 12 ffffd538 1e0 135 19 3aa 7c 57
FIXUPS: 961d3 44 44 44 59 27 5c 29 43 1387 27 20 15 34 15 27 15 34 20 15
FIXUPS: 978e2 15 34 34 20 15 20 25 15 20 25 25 15 20 12 20 20 22 10 82f
FIXUPS: 98356 fff68f2a 47 4c 15e 53 16 13 12f 6c 86 16 36 25 1c 22 22 25
FIXUPS: 1855 2b 16 12 96d41 10 86 10 6b 4a d6 4a ffffee8b 1f 27 fff6a867
FIXUPS: 1fb3 8c 39 3c 36 21 1c 22 22 25 51 2b 16 12 2c d 4c d 3d d ffffecf9
FIXUPS: 1050 3b 6f 22 21 2a 20 1a 25 59 32a3 10 ffffde57 ad b7 6e 2a 10
FIXUPS: 18d9 40 29 17 2e b 2e 16 2e 13 15 97 8a c7 56 38 1c 3e 113 5b 1f
FIXUPS: 1ed0 3b 6f 1789 11e 52 b3 8f 17 19 17 19 22 2b 33c 1ad 156 e e
FIXUPS: 40d0 11 ee 11 52 11 34 11 49 11 94 47 11 5f 36 49 ffffed87 e e
FIXUPS: 3264 8 e 15 8 e 10 e a 10 30 11 1f 16 15 11 19 4a 16 10 4c 43 b2
FIXUPS: 3560 e2 18 15 f 5a fffff974 10 e e e e e e 10 e e e e e e 10 18
FIXUPS: 3151 8 e 15 8 e 10 e 1d 15 8 e 15 8 e fffffad1 35 36 10 e 11 e
FIXUPS: 2daa e e e e e e e e 16 e 10 10 16 e 10 10 10 1a 16 71 43 1f 79
FIXUPS: 303c fffffa95 15 8 e 15 8 e 10 e 10 34 17 1a 14 e 15 8 e 15 8 e
FIXUPS: 2c42 e 10 e 11 e e e e 10 1a 1e71 15 21 15 15 15 21 15 15 23 17
FIXUPS: 4c61 15 25 c 25 24 15 15 25 15 15 15 15 15 15 19 ffffd7a1 6b ad
FIXUPS: 269f 424 1bd3 2b 10 2e 10 3c 16 1f 2a 33 3d 65 86 28 17 17 35 19
FIXUPS: 49c2 1d 17 17 17 19 30 21 26 17 15 21 15 27 532b 65 1d 1b 31 29
FIXUPS: 9f73 88 2f 17f 8d 87 d0 1d 1d 25 10e 22 20 23 19 1a 24 10 142 c
FIXUPS: a723 59 1d8 ffff9c70 64 46 52ba 29 14 79 23 56 1c 82 1d 1d 1d 1d
FIXUPS: 9b86 1d 1d 22 20 20 20 24 30 4f 2d 29 22 9 20 38 38 16 1a 26 fffff74e
FIXUPS: 95b7 1d 1d 2f 1d 20 1d 1d 1d 1d 1d 1d 9 5d 25 1d 1d 1d 22 16 1a
FIXUPS: 9848 c c c 1f 28 15 1d 12 1a fffff81b 13 2c 24 16 1a 10 a8 b 11
FIXUPS: 92be 36 13 36 10 36 17 1c 40 24 1f 24 20 20 9 29 1d 1d 1d 1d 1d
FIXUPS: 957d fffff704 3d 38 38 1d 2e 25 1d 1d 1d 1d 1d 16 1a 28 15 1d 12
FIXUPS: 8ee5 17 29 14 3f 4e 2a 1c 2a 1c 1a 1a 45 1e fffff6e0 1d 22 22 22
FIXUPS: 886e 22 22 22 1d 1d 1d 2f 21 2f 21 9 20 20 9 23 20 1d 1d 1d 1d
FIXUPS: 8af1 1d 9 b4 3f 3c fffff2b7 13c 27 24 24 24 24 176 34 27 24 24
FIXUPS: 832d 24 19 2a 27 27 27 27 8c 27 24 24 24 24 10 1a1 29 1c 17 1c
FIXUPS: 796b 1d 1d 21 1d 1d 1d 1d 1d 1d 9 23 20 16 1a 28 15 1d 12 1a 17
FIXUPS: 7bb6 14 c0 21 16 1a d 11 2f 1ad 14 fffff459 1d 83 1c 1b 25 83 13
FIXUPS: 74f7 f4 13 26 81 16 10 1e 99 47 1c 19 20 20 1c 9 20 1d 1d 1d 1d
FIXUPS: 7914 1d 1d fffff5bb 20 b1 3f 3c 1d 20 28 1d 1d 1d 1d 1d 1d 9 23
FIXUPS: 71aa 1a 9 c c c 2b 15 1d 12 1a 17 29 14 1b 3d fffff7bb 32 24 16
FIXUPS: 6b67 10 12 51 42 2b 1c 3f 1d 1d 1d 20 1c 22 1c 20 9 25 26 1d 1d
FIXUPS: 6e3e 1d 1d 1d 1d 1d 1d fffff523 1d 1d 1d 1d 1d 1d 9 23 20 20 16
FIXUPS: 6559 9 c c c 1f 28 15 1d 12 1a 17 29 14 aa 2f 1d 9a 39 283 fffff1ad
FIXUPS: 5c8e 1a 13 10 9e 51 57 2b 1c 2f 26 2b 1d 1d 20 22 9 20 1d 1d 1d
FIXUPS: 5ff1 1d 1d 19a 3f 3c 1d 132 2f 30 fffff283 20 1d 2a 1d 1e 1d 1d
FIXUPS: 576a 1d 1d 1d 1d 9 20 1d 1d 1d 1d 28 15 1a c 1a 17 29 14 3a 15
FIXUPS: 5c15 13 2c fffff338 2e 1b 27 29 7 18 166 26 d 1c 3d 1c 1d 70 56
FIXUPS: 538d 1a 28 15 61 1b 26 22 10 7f 2b 1c 2d 9 94 20 62f7 25 25 51
FIXUPS: ba0f 22 1d 1d 1d 1d 18 10 19 1a 9 26 15 22 22 e 1a 57 17 23 28
FIXUPS: bc7b ffff91bc 57 2d 18 1a 36 6549 3e 1d 1f 1f 5 15 3f 2e 16 28
FIXUPS: b5fb 20 14 1b 9 16 8 10 4a 5a 1b 1a 13 7f 6 2b 11 a7 e 32 25 fffff622
FIXUPS: afa6 11 11 1f 21 21 2a 13 34 5c 40 26 15 72 17 13 13 1c 34 e 16
FIXUPS: b2bf a2 2b 21 18 15 31 14 22 14 5d1e 16 10 24 16 12 33 1e 1c ffff977e
FIXUPS: a9e0 10 e e e e b6 3b 1f 13 42 18d ad e 13 e 16 13 45 11 19 7b
FIXUPS: 10e1d 10 23 10 23 10 23 10 23 10 23 10 23 10 23 10 23 10 23 10
FIXUPS: 1101b 10 23 10 20 10 19 b 1b 2b 12 35 fffff917 1f 13 a 20 21 95
FIXUPS: 10b7e c 14 47 16 15 1e 24 10 23 10 23 10 23 10 23 10 23 10 23 10
FIXUPS: 10db7 10 23 10 fffff830 51 b 1a 1d b 1c 26 c 1e 2c 42 2f b 19 b
FIXUPS: 10819 b 13 36 2f 62 10 40 d 18 b 35 22 44 13 23 fffff6e7 b1 2f
FIXUPS: 10233 19 29 1d 1b 16 d 2b 3a b 19 b 13 da b 28 1d b 22 b 11 7e
FIXUPS: 1059d b 2c b 1c 14 b fffff5ee 16 d 30 d 19 1d 20 24 42 11 1d 11
FIXUPS: fd80 11 1d 16 2e 7a 25 23 1f 1b 16 d 19 1d 1f 10 41 132 1d fffff6af
FIXUPS: f7d7 23 22 23 22 20 22 2e d 1b d 13 52 23 14 2c b 17 32 14 b 10
FIXUPS: faa9 16 5a 1b 1a 16 38 d 23 fffff859 14 22 16 d 14 22 16 d 14 22
FIXUPS: f523 d 14 22 16 d 38 3a d 14 46 d 14 1e 22 23 22 23 22 23 22 fffff8e9
FIXUPS: f096 21 18 b 34 17 b 10 77 16 d 13 42 30 24 d 45 22 16 d 14 22
FIXUPS: f366 d 14 22 16 d 14 22 16 fffff8b9 1b 37 e 14 b 20 37 e 14 b 20
FIXUPS: ee12 b 14 23 b 11 65 59 21 b 19 b 10 40 b 19 17 1f 1f 11 fffff723
FIXUPS: e79b 33 c 1e d 3d b 1c b 99 b 22 163 14 b 48 14 b 11 85 1a 9 14
FIXUPS: ebfb 1f 14 b 13 49 b 16 fffff7a0 14 b 1d 1f 14 b 19 b 10 4e b 22
FIXUPS: e58b 1e 2b 14 b 23 2b 14 b 23 2b 14 b 23 2b 14 b 16 20 fffff994
FIXUPS: e123 16 d 37 34 1d 25 16 d 1d 34 1d 16 d 17 b 19 b 13 3e b 11 1b
FIXUPS: e396 14 b 20 21 14 b 20 fffff94b 13 41 b 11 1b 30 19 29 16 d 1c
FIXUPS: dec7 20 74 1b c f f 11 22 f 2d 16 d 2d 16 d 20 1f 16 d fffff7bb
FIXUPS: d8bd 20 b 2b b 6d b 2d b 16 20 b 19 20 b 28 65 4a b 5a 17 2a b
FIXUPS: dc51 b 34 38 41 6 43 23 fffff7c2 30 1d 16 14 b 1c b 20 30 1f 16
FIXUPS: d679 b 1c b 20 30 1f 16 14 b 19 b 19 b 10 77 16 d 13 40 fffff8bc
FIXUPS: d17a b 2e 45 14 b 36 d 20 2e 45 14 b 20 2a b 2e 45 14 b 19 b 13
FIXUPS: d485 b 16 20 b 17 11 1c fffff7b9 b 11 37 31 31 31 31 25 a 10 52
FIXUPS: ce81 54 16 a 6f 20 20 39 20 1d 1d 16 d 46 19 d 16 2b b 23 fffff690
FIXUPS: c7d0 2a b 2a b 11 1b 49 24 49 24 49 4c 59 21 b 19 b 10 48 b 5f
FIXUPS: cb69 2c 2c 29 29 29 23 b 10 fffff5e1 b 96 3d 37 14 b 32 d 13 3d
FIXUPS: c429 20 18 b 19 b 33 d 19 3d 1c 1d 18 83 14 113 19 d 1c b 13 fffff5c7
FIXUPS: bd69 21 21 21 21 21 21 21 21 21 21 21 21 21 1e 1e 1e 1e 2e 28 28
FIXUPS: c027 124 37 2b 1b 16 d 1c b 1d eed2 38 24 2e b 35 70 1e bd 29 1e
FIXUPS: 1b3b0 2f 69 3a 3d 85 21 14 ffff5e93 31 69 3b a1 3b 21 164 21 ffffa557
FIXUPS: bccd 49 11 ee01 36 19 5a 33 19 5a 3e 19 5a 33 19 5a 36 68 50 20
FIXUPS: 1af03 24 16 14 2d 1a 16 28 31 1c 16 28 31 16 28 fffff129 69 15
FIXUPS: 1a292 24 3b 8 5 17 2e 1c a 15 19 52 22 63 44 63 4d 25 66 3c 50
FIXUPS: 1a6c9 25 25b 43 79 73 38 5b fffff2b4 2c b6 e 22 8 3e 23 17 13 1d
FIXUPS: 19f9c 1b 1b 1b 1b 1b 1b 1b 1b 1b 1b 1b 1b 1b 1b 1b 1b 1b 1b 1b
FIXUPS: 1a1c6 fffff5de 28 23 18 1e 22 27 22 44 10 1aa 13 43 2c 1b 16 c
FIXUPS: 19b67 1b 27 27 20 24 20 2b 2c 2c 2c 2c 2c 2c 2c fffff4a2 27 18
FIXUPS: 192aa 9 73 79 5 17 27 10 46 24 64 1c 10 71 38 2c 15 10 1a 48 2c
FIXUPS: 19694 3f 1f 6 18 17 f 50 fffff2b0 30 6d 21 2a 24 1b 3f 30 19 32
FIXUPS: 18c34 45 30 3c 16 98 5e c 35 1a 63 c2 28 137 28 16 36 51 26 3b
FIXUPS: 1921b fffff02b 4c 8d a6 5b 9 10 45 1e 23 31 29 20 c5 d8 1d 23 73
FIXUPS: 187b0 3b 2c 13 27 19 21 54 2c 20 2e 16 16 36 fffff38c c 13 4a 21
FIXUPS: 17de9 10 22 1d 18 12 5a 10 17 38 1a 1b 48 1e 16 3e 25 25 25 14
FIXUPS: 180e1 1f 7f 10 6d 19 17 fffff4e5 2c 1f 25 15 a8 3c 35 29 35 29
FIXUPS: 1796b 29 35 1c 2d 69 1a 10 31 1a 3e 17 12 90 21 18 10 1a 44 26
FIXUPS: 17cd3 fffff37e 1f 13 41 24 9d 1a bd e 1d 73 1d 15 39 26 9 2e 38
FIXUPS: 17426 34 16 62 38 1d 1f 7b 38 1d 1f 49 1f 55 fffff2c8 3e 1c 10
FIXUPS: 16a4e 47 18 10 2a 23 6a c 35 1a 63 49 28 79 27 5d 26 3b 25 9 13
FIXUPS: 16e57 6f 79 9 15 b0 27 fffff40e 1c e 28 23 35 12 27 28 28 2c 1f
FIXUPS: 165dc e 10 5c 10 3e 17 18 1b 4b 90 42 1b 1b 1a ce 28 18 10 2b fffff477
FIXUPS: 15e2b 1a 3b 2c 36 4b 2d 10 39 1d 23 18 10 1b e f d6 33 5e 1d 2c
FIXUPS: 16212 2b 28 1b 1d 1d b3 29 10 57 fffff3d5 53 c 1a 3d c 1a ee 69
FIXUPS: 15a48 3d 14 61 75 25 e 15 10 1a 3b 12 28 e 3c 36 6 18 f 87 2c 2c
FIXUPS: 15e03 fffff321 43 17 d 67 10 10 4a 10 10 4a 10 10 4a 10 10 4a 13
FIXUPS: 153bd 19 6b d 8e bf 17 17 36 15 8c 21 eb c fffff449 1f 34 1b 1f
FIXUPS: 14ca7 16 1f 79 1f 16 27 60 22 16 27 5e 1f 19 1a 1f 3a 23 1b 62
FIXUPS: 1502c 13 17 10 41 2b 45 fffff4e5 34 44 14 1e 1c ce f 16 30 30 30
FIXUPS: 14872 2d 3c 19 19 24 1d 1b 36 3e 1f 86 14 21 1f 16 2c 4a 1f 53
FIXUPS: 140ac 1f 6e 16 3b 1e 1e b2 3c 1f 1f 21 2a 2b 24 28 2b 2b 1b 1d
FIXUPS: 14461 16 27 1f 19 54 16 2e 1f 19 18 28 fffff444 23 1a 34 14 54
FIXUPS: 13b24 21 41 23 97 166 28 28 11 14 1e 1c 2c 2a 1f 1f 30 1f 19 29
FIXUPS: 13f98 1e 21 4c 4c 16 ffffef93 19 29 1e 48 21 21 11 14 7f fa 1f
FIXUPS: 1336b 22 16 2d 32 32 16 27 1f 7a da 7a 23 41 62 34 b4 39 156 39
FIXUPS: 127f4 21 21 11 14 39 82 ed 78 4d 67 1f 1f 1f 19 16 32 1f 1f 45
FIXUPS: 12c98 26 45 40 28 26 4b 9c 4c 82 73 40 fffff0d2 14 4f 27 37 20
FIXUPS: 121c0 11 14 29 1f 21 31 1f 3c 1f 19 16 32 4d 1f 32 35 23 31 19
FIXUPS: 124c7 23 1b 274 20 1e fffff3b4 46 6a 76 59 30 34 28 26 34 29 27
FIXUPS: 11e2d 1c 2d 36 16 2e 4a 17 16 1e 1a 1f 15 9 2a 1d 17 14 49 1d 1d957
FIXUPS: 2fa9a 28 23 21 2d 1a 8e 1a 2b 1f c9 37 21 50 8b 6c 62 4e 64 8b
FIXUPS: 30063 1b 23 1f fffe1839 4a 18 b5 3d 6a 62 1d5df 19 27 b8 28 23
FIXUPS: 2f24f 70 bb 1c d 86 19 3d 1d cc 25 23 e7 28 54 24 22 34 1d a0 25
FIXUPS: 2f892 d2 26 39 23 fffff0d0 1f 1b 1a 16 1a 1f 1b 1d 16 1a 1f 1b
FIXUPS: 2ec18 16 1f 24 1d 38 24 4c 10 118 73 65 21 21 a9 38 38 35 19 fffff491
FIXUPS: 2e5e6 1d 1d 1d 1a 1a 1a 1a d 81 1a 1a 1a d 75 1a 1a 1a d 75 1a
FIXUPS: 2e907 1a d ec 1a 13 13 16 16 16 fffff670 1a 1a d 69 1a 1a 1a d
FIXUPS: 2e27f 2a 2a 1a 10 13 2e d 5b 1a 1a 1a d 55 1d 1d 1d 1d 1d 1a 2e
FIXUPS: 2e549 1a fffff5c8 1a 1a d 76 1a 1a 1a d 6e 1d 1d 1d 1d 1d 1d 1a
FIXUPS: 2dd8d 1a 1a d 175 1a 10 13 13 3e 7d 28 1a 10 52 fffff23c 23 28
FIXUPS: 2d39c 82 92 23 b7 28 23 24 4f 170 d c4 d 6c d 57 1d 1a 1a 1a 1a
FIXUPS: 2d9f8 6e 1d 1d 1d 1d 1d 1a fffff275 1d 1d 1d 1d 1d 1d 1d 1d 1d
FIXUPS: 2cea8 1d 1d 1d 1d 1d 1d 1d 1d 1d 1d 1d 1a 1a 1a 1a 4e 1a 11c 21
FIXUPS: 2d23b 87 fffff5a9 20 20 20 20 1d 1d 1d 1d 31 1d 4a 1d 1d 1d 68
FIXUPS: 2cae1 15 26 1a a2 1a 1f 4e 1d 1d 1d 1d 1a 1a 1a 1a fffff2e4 23
FIXUPS: 2c0ae 23 cd 23 24 ef 4a 23 28 7c 4a 28 23 16 34 54 1a a0 59 4f
FIXUPS: 2c6ae 1d 57 19 3d 53 20 20 20 20 fffff018 36 6f 6f 6f 4f 1d 4d
FIXUPS: 2bac2 a9 28 23 21 7d 5c 28 23 19 46 68 1a 1a 1a 31 2e 1a 2e 1a
FIXUPS: 2bf27 20 2e 1a ffffef2c a1 23 5f 23 b4 28 23 e 4f 24 79 41 28 23
FIXUPS: 2b297 4f a4 96 28 23 e 11d 23 b4 28 23 e 54 a7 36 36 ffffee75 38
FIXUPS: 2a712 38 1b 1d 23 9b 26 32 28 23 26 27 25 25 a3 1d 25 1a 61 25
FIXUPS: 2ab55 28 23 1a 2d 1a c0 113 23 a1 fffff1aa 19 1f 53 4c c 19 1f
FIXUPS: 2a238 66 5a 1d 2a b b 2e b 2e 51 5a 30 c 19 1f 53 4c c 19 1f 49
FIXUPS: 2a628 42 fffff08a 2a 2a 24 7a 23 41 6d 6c 4c 2a cc 29 38 2b 24
FIXUPS: 29b7b 4f 36 1f 30 32 a2 92 a5 71 6c 2f 1f 45 3c 30 ffffefab a2
FIXUPS: 290ab 23 21 2d 1f 1a 45 1a 3f 6b 1d 28 2c 2c 24 d 1d a7 9 30 c
FIXUPS: 29481 39 44 33 22 65 5b 24 4e ffffec6b 1a d 572 66 be 9d 28 23
FIXUPS: 28aa5 98 26 26 6a 26 41 28 37 1d 23 8f 26 28 26 26 26 26 26 6e
FIXUPS: 28f61 26 35 ffffeada 56 10 33 5a 1f 7c 23 10 45 23 25 10 31d 1d
FIXUPS: 2804b 1d 1d 1a 1a 20 1a d d7 3a 1d 1d 1d 1d 1d 1a 1a fffff0d6 26
FIXUPS: 27401 26 1bd 41 23 75 29 27 23 95 21 43 27 23 3e c 12 12 12 3f
FIXUPS: 27944 12 12 3c 23 2f 25 12 1e 28 fffff50f 3f 12 12 12 6b 27 2c
FIXUPS: 270d2 28 29 c 12 12 12 12 15 12 20 23 31 c 12 12 12 3f 12 12 12
FIXUPS: 27304 5a 23 fffff6f2 12 12 12 12 12 63 12 30 1d 27 1f 142 27 5a
FIXUPS: 26dbb 15 26 26 26 31 c 12 12 12 12 1c 18 20 23 26 c fffff6c4 12
FIXUPS: 26658 12 59 23 16 12 12 12 12 68 23 31 c 12 26 12 12 49 20 16 12
FIXUPS: 26942 20 5a 28 26 27 c 12 12 fffff857 12 12 12 12 12 12 1b 1b 1b
FIXUPS: 26390 15 12 10 10 20 23 2e 23 2e 23 2e 23 2e 23 28 26 27 c 12 1f
FIXUPS: 26622 fffff86e 12 3b 22 1d b 12 12 12 3b 6f 23 2c 33 12 12 2a 22
FIXUPS: 26116 3d 23 31 c 12 12 12 12 12 12 43 23 27 fffff7cf 1e 26 27 c
FIXUPS: 25b04 12 12 42 4c 42 14 42 4a 19 21 28 27 c 12 12 12 12 12 12 12
FIXUPS: 25de7 23 27 29 12 12 fffff7dd c 12 1f 12 12 12 3b 29 3b 61 23 4b
FIXUPS: 25862 21 2e 23 27 c 12 12 12 12 3c 23 27 c 12 12 12 3b 1d fffff726
FIXUPS: 251b9 2b 28 2c 1a 2f 1a 2f 62 23 58 c 12 1f 12 12 12 3b 5a 23 43
FIXUPS: 25521 12 1f 12 12 12 12 12 51 23 fffff6ca 12 12 12 12 12 12 12
FIXUPS: 24d7a 3b 52 52 52 52 51 20 23 27 c 12 1f 12 12 12 12 12 12 12 a1
FIXUPS: 2513a 27 10 fffff79b 23 e 1b 2e 23 16 12 12 3c 23 16 12 12 3c 23
FIXUPS: 24af1 12 12 12 43 23 32 26 28 26 28 26 27 c 12 12 fffff801 29 3b
FIXUPS: 245aa 23 2c c 12 12 12 35 23 28 26 27 c 12 12 12 12 12 25 20 23
FIXUPS: 2480c 12 12 12 35 23 32 12 fffff7d5 20 20 20 20 20 20 20 4e 27
FIXUPS: 2421d 52 23 27 c 12 1f 12 12 3c 23 3b c 12 12 2e 23 27 c 12 12
FIXUPS: 2449e fffff6d4 12 3e 63 23 27 c 12 12 1c c 3b 29 3b 53 23 27 c
FIXUPS: 23e21 1f 12 3a 1d 9 12 12 46 23 f4 20 20 20 fffff5ea 2c 23 54 c
FIXUPS: 2373e 2e 12 2b 6f 12 12 3c 39 2e 25 3e c 12 3f 12 12 12 55 20 1d
FIXUPS: 23a84 1d 1d 59 23 2c fffff72d 12 12 12 12 12 12 12 12 12 43 23
FIXUPS: 233c7 23 2c 23 14 20 12 12 12 12 12 12 12 1b 12 1b 12 12 a7 58
FIXUPS: 22ed2 12 12 3c 23 6c 23 19 c 12 12 12 12 12 35 23 14 c 12 12 12
FIXUPS: 2313f 23 19 22 23 11 22 23 3a 23 14 fffff88f 12 12 12 40 12 22
FIXUPS: 22bdd 2c 23 55 23 1f 47 24 21 21 21 14 c 12 12 12 12 12 12 3c 23
FIXUPS: 22e90 c 12 12 fffff821 12 12 12 a4 23 14 c 12 12 12 12 3c 23 14
FIXUPS: 228cf 12 12 12 12 33 36 23 2c 23 28 1f 1b 35 23 42 16 fffff759
FIXUPS: 22280 2d 23 11 22 23 14 c 12 12 12 12 12 12 12 12 12 da 23 83 23
FIXUPS: 225d3 20 1d 1d 1d 1d 25 23 14 c fffff662 1a 1e 12d 1d 1d 1d 1d
FIXUPS: 21f27 1a 1a 1a 1a d 3d 83 19 22 23 1b 28 23 11 22 23 11 22 23 11
FIXUPS: 221ff 23 19 fffff73c 22 22 22 22 24 13 20 20 1c f f 41 1d 1d 1d
FIXUPS: 21b65 1a 1a 1a 1a 37 1a 1a 1a 1a 26 1a 28 12 12 12 fffff82b 12
FIXUPS: 21559 32 1a 15 60 46 17 b 1b 28 46 17 1a d 43 27 27 27 27 27 13
FIXUPS: 21882 15 3b f c f f 28 22 fffff817 12 39 1f 50 e 19 18 1f 1f 33
FIXUPS: 212ee 21 2e 1a 15 46 f c 12 12 12 33 f f 13 12 1b 12 4d b 2e fffff7ed
FIXUPS: 20d25 12 42 12 2d 3c 1d 46 1a 15 33 12 f 19 f 12 29 60 1a 28 3d
FIXUPS: 21029 68 f c 12 12 12 33 12 33 ffffea54 3b c f 51 1c 28 1a 15 5f1
FIXUPS: 202c5 12 25 12 12 12 12 32 2d 47 10 7df c 12 3e 12 12 12 2c 20
FIXUPS: 20cd1 15 ffffe8c9 21 1d 3a 1d 1d 1d 38 10 9c 1d 1d 1d 1a 1a 1a
FIXUPS: 1f821 d f8 1a 2c 26 1a 2c 41 2a 37 1d 36 21 1a 85 fffff61d 2c 2c
FIXUPS: 1f225 d 37 c f f f f f f f f 66 18 58 1a 1a 24 18 41 20 20 20 20
FIXUPS: 1f514 20 1d 1d 1d fffff693 2c 2c 2c 2c 2c 2c 2c 2c 2c 2c 2c 2c
FIXUPS: 1ee5a 2c 2c 2c 2c 2c 2c 2c 2c 2c 2c 2c 2c 2c 2c 2c 2f 2f 2f fffff2b1
FIXUPS: 1e45f 33 33 30 30 2b 31 23 1a d 2ba 29 2c 2c 2c 2c 2c 2c 2c 2c
FIXUPS: 1ea3a 2c 2c 2c 2c 2c 2c 2c 2c 2c 2c fffff366 1d 1d 1d 1d 1d 1d
FIXUPS: 1e023 1d 1d 1d 1d 1d 1d 1d 1d 1d 1d 1d 2e 2b 35 2b 35 35 35 3a
FIXUPS: 1e327 2e 35 35 3a fffff7bf 1d 1d 1d 1d 1d 1d 1d 1d 1d 1d 1d 1d
FIXUPS: 1dd31 1d 1d 1d 1d 1d 1d 1d 1d 1d 1d 1d 1d 1d 1d 1d 1d 1d 1d fffff8dd
FIXUPS: 1d835 1d 1d 1d 1d 1d 1d 1d 1d 1d 1d 1d 1d 1d 1d 1d 1d 1d 1d 1d
FIXUPS: 1da79 1d 1d 1d 1d 1d 1d 1d 1d 1d 1d fffff7e8 1a d 88 1a 1a 1a 15
FIXUPS: 1d4f6 1a 1a 1a d 55 1d 1d 1d 1d 1a 1a 1a 1a d 84 1d 1d 1d 1d 1d
FIXUPS: 1d7c1 1d 1d fffff1f2 1d 1d 1d 1a 33 21 d a4 c f 19 3e2 18d 1d 1d
FIXUPS: 1d15a 1a 1a 1a d 71 1a 1a 1a d 5d 1d 1d 1d 1a 1a fffff126 1d 1d
FIXUPS: 1c4e6 1d 1d 1d 1d 1d 31 26 1a d 1d1 1d 1d 1d 1d 1d 1d 1d 1d 1d
FIXUPS: 1c8e8 1d 1d 1d 1d 1d 1d 1d 1d fffff72b 1d 1d 1d 26 20 12 20 12
FIXUPS: 1c1fc 12 20 1d 1d 1d 1d 1d 1d 1d 1d 1d 1d 1d 1d 1d 1d 1d 1d 1d
FIXUPS: 1c438 1d 1d fffff7e0 1a 1a 1a d 69 1a 1a 1a d 5b 1a 23 1a 20 1a
FIXUPS: 1be7d 1a d 79 1a 1a 1a 2f 1d 2e 1a 1a 1a d 81 1d 1467d f 1f 28
FIXUPS: 307cb 41 1c 22 22 25 51 14 12 fffeb097 1d 1d 1d 1d 1d 1d 1a 1a
FIXUPS: 1ba9b 21 d 8d 1d 1a 1a 1a 21 d 1455c 16 14 1d 1d 19 19 19 4b 3b
FIXUPS: 302ac 56 2f 1d 4d 5d 99 19 2c 16 13 13 65 22 13 25 51 2b 16 1c
FIXUPS: 306de 2e 2512 1d 37 1b d 140 8a 33 128 46 9c 21 e 16 77 35 15 23
FIXUPS: 331f2 1b 27 1e 28 45 45 3c 36 16 15 10 6a f ffffed82 c 16 11 3a
FIXUPS: 3223a 5a 1d e 54 41 1ef 14 f9 29 64 ef cc 11 11 14 c1 4b 74 f 3b
FIXUPS: 32b36 23 1e d 4b 1d fffff21a 1c 2b c 1c 2d 21 c 16 2b c 38 c 16
FIXUPS: 31fae c 16 38 c 13 38 c 13 38 c 13 38 13 1e c 2b c fffff6da 10
FIXUPS: 318e8 22 35 c 62 2f 18 6e 9 2a 26 18 14f c 26 c 33 2b c 19 2f c
FIXUPS: 31d49 c 11 19 2b c 19 2b fffff5b6 33 c 33 c 33 c 33 c 33 c 33 c
FIXUPS: 31571 1a 17 21 3a 21 33 17 13 1c 84 3a c c 31 37 24 2f 1f fffff545
FIXUPS: 30e01 16 58 1d 5f 2f c 23 50 38 38 38 38 38 38 38 38 38 38 38 38
FIXUPS: 3126c 3c c 33 c 33 c 33 c 33 276f 22 13 13 32 16 25 51 32 13 13
FIXUPS: 33ca9 28 51 1c ffffcc17 1a 1b 16 10 66 24 d 6a 2e 11 1f 1f 40 c
FIXUPS: 30d11 6c 3471 14 1c fffff255 14 28 a 19 1e f 13 a5 3b 16 19 d 8
FIXUPS: 33648 17 7e 3a 53 b1 47 55 60 31 31 a7 59 66 f d4f 22 22 25 51
FIXUPS: 34902 15 fffff4bc 14 1d 1d 19 19 19 28 3b 2c 56 26 14 41 59 7e
FIXUPS: 340b9 2c 16 13 13 13 22 22 25 b1d9 f f f f 13 ffff4e90 17 17 32
FIXUPS: 342e8 14 15 18 63 3b 61 19 e 65 51 3b 3a 37 25 34 25 5f 2b 70 5f
FIXUPS: 34827 a5d0 a9 11 47 31 17 17 17 17 41 17 17 17 1a ef 6e 17 17 29
FIXUPS: 3f1f0 50 87 1c c f f f f f f f f fffff23e 25 9 25 1be 39 12 12
FIXUPS: 3e825 d1 4c 6a 83 37 b4 75 c f f f f f f f 23 3b 36 5c 50 16 2c
FIXUPS: 3edc2 ffffec5c f f f 34 31 37 3d 41 4a 51 3d 8e 15d 2d 215 42 71
FIXUPS: 3e142 47 ac 57 3f 5f 9b 57 c3 4c c 12 15 22 ffffecbf f f f f 2a
FIXUPS: 3d2b4 f f f f 64 62 1db 1a 59 59 59 30 1d 57 46 12f 31 2a 4b 52
FIXUPS: 3d9d3 f f f f fffff4d7 12 12 1b 14 12 12 12 12 1b 3b e 12 12 2c
FIXUPS: 3d047 12 12 12 12 1b 14 73 12 12 12 12 12 12 12 31 53 ffffeaa6
FIXUPS: 3bcfd 16 1a a2 cd 51 2d 47 30 9f 48b da 24c 6b 6e 37 ff 82 d1 6b
FIXUPS: 3cc4b 11c 9d 42 c 12 12 12 12 1b 1f ffffe825 12 12 12 12 12 12
FIXUPS: 3b791 12 12 12 12 12 12 1f 36 28 c 5a 3c 38 c 12 12 6b 4c 4b c
FIXUPS: 3bae1 4b 3a 9a fffff199 12 12 12 12 12 12 12 12 12 12 12 12 12
FIXUPS: 3ae95 10f 86 2a7 7e 2c 38 4e 61 3d 5a 58 12 50 4b 6b 70 14 ffffef35
FIXUPS: 3a64b 26 18a c0 52 38 2b 22 5c 38 4a 55 2c 16 12 12 12 12 12 12
FIXUPS: 3ab85 12 12 12 12 12 ad 9f 38 12 12 ffffe72a 62 6c 8e 37 70 133
FIXUPS: 3982d 39 39 2f 20b 53 96 30 2f 36 46 4b 36 d3 1cc 26 b0 16 98 dc
FIXUPS: 3a46c 33 2e 54 2d ffffebaa 12 12 12 12 12 12 12 12 12 3c 3b 33
FIXUPS: 39253 f f f f f f f f f 14 f f f f 27 2d 31 59 fffff197 133 179
FIXUPS: 38923 16 b4 1a 59 59 59 30 1d 57 b1 37 39 ca 95 87 44 6b 6b 4e
FIXUPS: 39037 c 29 12 12 f 2c f f ffffee0d 38 18 44 12 12 12 155 a1 7b
FIXUPS: 382d8 3c 16 43 16 12 c 12 12 12 12 12 12 12 12 12 12 12 2f 18 2f
FIXUPS: 384fe ffffefdd 16 102 56 13e 11f 237 35 3b 75 52 67 53 40 49 c
FIXUPS: 37d75 12 12 12 12 12 12 12 12 12 3d 2c 2c 14 12 12 ffffeeca f1
FIXUPS: 36eab f f f f f f f f f f f f a1 78 39 56 53 e f 19 f f f f2 ad
FIXUPS: 3739f 6a 67 28 fffff2e2 1a 15 2f 16 1a 15 2f 5f 4a 5a 1e 58 1a
FIXUPS: 369f4 2f 2c 21 2b 25 1a 15 2f 16 1a 15 2f 5f 4a 5c 3a b0 ffffebbc
FIXUPS: 359c2 5e 1e 15 2f 1e 5f 37 10 13 4c 24 e8 187 a9 24 78 ce 77 35d
FIXUPS: 36441 34 76 22 34 d9 76 9 32 21 5f ffffec53 66 2d 58 21 2b 87 4a
FIXUPS: 355fb 3a ad 15 12 4c 24 1e c f f f f 2a 74 f f f f f f f f f fffff3e6
FIXUPS: 34d31 74 12 12 12 12 12 12 12 33 12 12 12 12 12 12 23 18 39 84
FIXUPS: 34fcc 1f 12 17 53 1b9 9 32 21 49 7c b367 12 ffff42cf 24 c f f f
FIXUPS: 349f5 2a 24 f f f f f f f f f 39 77 1a 3a 17 6f 24 1e c 12 12 12
FIXUPS: 4021d 20 18 16 20 17 d 1d 1d 3c 31 6a 29 16 29 16 65 29 c 3b c
FIXUPS: 4053c 25 1d 13 31 2e 13 20 16 34 27 fffff6fa 37 6 2c f 47 1c 1d
FIXUPS: 3fea6 13 17 23 2f 38 23 2f 23 2d d 64 b 2c 12 19 14 42 1c 1a 1d
FIXUPS: 401dc 17 d fffff4be 2c 14 21 54 3a 14 2c 14 2c 14 3a 14 b9 2c 14
FIXUPS: 3f9b1 14 2f 14 10 9a e7 3d 1f 44 2f 26 21 88 19 1d 1913 6e cb 16
FIXUPS: 41809 c0 136 c f f 22 f f f f f 144 10 ffffd881 55 14 10 51 2f
FIXUPS: 3f578 1d 7b 14 3f 14 7 2c 186e 15 29 2e 15 6b 20 20 20 60 20 20
FIXUPS: 41124 af 28 20 1d 3f 20 1b 45 20 1b 4f 12 1b ca 19 19 19 19 20
FIXUPS: 8efb3 5 15 fffb2d39 30 37 15 1d 6d ffffeb89 42 f 131 9 26 21 50
FIXUPS: 40bde 25 74 4c 21 26 27 1b 85 15 13 76 52 24 19 4dc94 39 16 5e
FIXUPS: 8ec5b 1c 10 5f f 4d 25 16 19 22 16 16 4b 11 5 2a d 8 5 2d 21 d
FIXUPS: 8ef26 36 1b 26 9 8 fffff7f6 58 15 10 41 17 1a 23 f 2d 3f 32 e 5
FIXUPS: 8e989 5 19 10 5 19 3d 17 38 3d 15 a 5 1b 1a d 53 1b fffff586 25
FIXUPS: 8e142 25 14 16 60 8f 14 3a 25 24 43 1b 5 29 29 1b d 6a 19 2b 12
FIXUPS: 8e525 27 1b 2e 72 e8 48 37 1b fffff2ee 33 6d 23 24 58 23 24 2a
FIXUPS: 8dc3b 34 2d 28 134 1c 23 1c 23 1c 23 1c 1c 55 38 1e 16 3a 25 41
FIXUPS: 8e086 1e 16 fffff433 43 14 35 2d 2a 22 23 e 14 34 2d 16 14 34 2d
FIXUPS: 8d739 23 24 2a 85 1f 31 1e 31 3b 31 4b 31 31 3b 31 fffff391 27
FIXUPS: 8ce78 33 16 23 24 54 11 23 62 c5 40 45 2f 35 11 33 16 6f 31 3f
FIXUPS: 8d2f7 3d 3f 1e 31 3f 26 3e 31 24 fffff1c3 2d 23 72 27 e 13 1b 37
FIXUPS: 8c80c 1d 13e 7b 33 34 31 2f 3b 32 23 24 58 37 23 26 2a 31 29 1d
FIXUPS: 8cd07 29 39 fffff2b9 101 1c 10 60 31 3f 1e 3d 3f 1e 31 3f 26 3e
FIXUPS: 8c3dc 24 33 34 14 34 2d 16 23 14 34 3c 20 29 24 33 38 fffff3a5
FIXUPS: 8ba3f 14 3e 25 25 25 150 4d 1b 29 4b 1c 1a 1a 1a 1a 1a 1a 1a 3b
FIXUPS: 8bea5 1d 1b 15 d 41 33 13 36 29 13 fffff1b2 26 16 16 51 48 17 161
FIXUPS: 8b488 26 1fe 1a 1a 1a 1a 1a 1a 1a 1a b 21 1e c 37 18 71 5d 5f 5d
FIXUPS: 8b9c5 1d 1d fffff180 2c 14 1a 14 45 16 1d 1b 22 3b 15 123 71 21
FIXUPS: 8aee8 16 1f 17 19 25 56 18 76 25 22 16 2e 29 24 14 5f fffff44c
FIXUPS: 8a5fe 16 14 9c 3a 18 43 11 29 2e 77 16 18 2a 19 30 32 83 3e 16
FIXUPS: 8aa31 64 5 17 1d 18 29 8 5 f 33 fffff5cb 1a 23 f 109 2d 22 9 c
FIXUPS: 8a2ee c c 31 e 1c e 1c e 1c e 1c e 9 17 41 e 14 16 29 60 45 65
FIXUPS: 89a79 21 21 21 21 21 21 21 21 21 21 21 21 21 21 21 34 31 e 11 11
FIXUPS: 89d31 31 11 b 31 b 13 2df 15 10 41 fffff53e c 21 21 21 c 21 21
FIXUPS: 8972e 21 c 38 1e 7c 12 26 13 6 27 4c 6 1f 1e 22 1e 30 21 11 22
FIXUPS: 89a16 21 21 fffff7ed 1e c 1e c 1e c 1e c 1e c 20 20 20 20 29 24
FIXUPS: 89403 1f 1f 1f 1d 1d 1f 80 5e a e 34 1e 8 29 fffff7df 4d 52 3e
FIXUPS: 88f23 29 21 4f 43 21 2d 37 e e 11 34 31 19 9 1c 9 1c 9 1c 9 1c
FIXUPS: 891cc 1c 9 1e c 1e fffff5c9 20 34 38 1e 1e 23 3d 27 34 1d 40 23
FIXUPS: 88a3b 2d 23 30 56 18 24 61 16 89 35 e 40 93 25 16 28 c 22 fffff67b
FIXUPS: 8847d 11 21 23 1e 21 34 31 31 31 10 13 26 1e 23 26 2c 26 d 1e 5
FIXUPS: 88713 c c 11 21 10 13 11 20 34 fffff506 12 290 34 e 34 31 31 31
FIXUPS: 880f3 e 34 27 2b 37 82 1b 31 10 13 21 21 d 28 37 d 28 37 21 21
FIXUPS: 8841c 27 fffff318 13 21 b8 34 3d 26 38 30 2a 1b 1b 62 1c 30 30
FIXUPS: 87aa0 30 30 1c 30 30 1c 30 30 24 15 28 21 15 21 26 fffff4f7 26
FIXUPS: 87203 4e 145 36 14 4c 25 21 24 25 21 2a 25 21 1b 25 21 13 2c 15
FIXUPS: 8762c 13 25 1e 41 13 23 1e 1e 13 fffff3da 12 12 12 12 12 138 1e
FIXUPS: 86ceb c2 90 2b 16 20 61 1d 1e 19 25 1e 19 18 10 48 25 21 2c 4e
FIXUPS: 870ff 15 4c 59 ffffef27 4a e 4b e 30 e 23 2c 1d 65 28 16 6f 2e
FIXUPS: 8655f 3d 37 28 186 e 10 51 52 c3 c 12 25 17c c 12 12 fffff29f 13
FIXUPS: 85dbc 14 9 29 1a 16 27 e 3a e 34 e 26 e 12 30 a 2a 13 16 27 16
FIXUPS: 86025 12 e c 11 2c 21 1b fffff7cc 1a 1c 1a 27 21 e 1a 9d 36 71
FIXUPS: 85ab0 5b 59 16 26 20 20 16 16 1d 35 e 8 30 11 19 15 26 1d 3d 1a
FIXUPS: 851de 19 11 1f 16 21 b c 1a eb 29 21 29 ca 35 35 c 63 16 2f 3c
FIXUPS: 8563f 8c 1a 68 23 2b 24 23 2b 29 29 fffff183 9 e c e 20 20 20 15
FIXUPS: 84b28 aa aa 37 34 34 50 47 1e 103 43 2c 5a 4a 27 b4 c 6d 2b 27
FIXUPS: 851a9 13 f fffff06d 1b b 17 24 2e 11 16 141 19 34 12 31 27 21 87
FIXUPS: 845c0 99 50 3d 19 16 a5 97 e 83 e 4d 38 1d 15 28 fffff37b 2a 2a
FIXUPS: 83de1 37 3d 1c 24 26 1c 27 13 18 18 3d 37 6f 17 15 1b 1b 1b 54
FIXUPS: 8412e 32 1b 1b 1b 1b 1b 1b 1b fffff4fc e 23 4b 7e 41 2b 16 6a e
FIXUPS: 8393e 1a 15 17d 26 3b 17 34 23 11 14 18 6 76 8 5 9 e 20 32 f 15
FIXUPS: 82dee 27 32 63 21 26 20 24 84 31 42 31 44 13 6e 28 1c 24 52 18
FIXUPS: 83218 21 17 17 f ae 97 b0 e0 e 78 e1 ffffed67 1d 2b e6 13 1c d
FIXUPS: 825e5 5d 13 150 20 1d 1d 1d 1d 57 85 8c 1d 42 29 36 29 10 7f 24
FIXUPS: 82b51 28 165 ce 2c fffff141 1d 2c 1d 1f 18 10 34 15 73 30 2b 1d
FIXUPS: 82142 16 33 27 21 18 10 4c 4d e 49 1c 2b 15 2c 15 b 31 15 fffff4e2
FIXUPS: 818d3 10 1f 62 31 2d 28 31 15 1a 26 34 c0 26 1f 17 12 a5 43 35
FIXUPS: 81d18 35 29 35 29 35 29 35 29 35 1c fffff557 17 12 71 23 23 24
FIXUPS: 8155f 23 26 e 26 e 15 10 5f 28 28 18 34 28 15 1a 1d 1b e 18 1b
FIXUPS: 817e8 17 f 87 fffff58f 1c 8b 24 e 1a 37 8e e 28 28 7b 28 28 79
FIXUPS: 811a6 28 d 9a 27 1c 26 e 15 10 5b 3e 1c 18 17 1a 1b fffff297 24
FIXUPS: 8076a 46 29 1f 21 2d 1f 10 33 16 5b 1c 17 20 25 96 4b 32 34 21
FIXUPS: 80b2b 24 13 40 5f 51 e3 84 2e 2f fffff37d 1d 39 1d 39 19 30 1b
FIXUPS: 802ce 19 30 1b 2b 19 30 1b 2b 19 34 19 34 16 34 13 1a f c9 21 1d
FIXUPS: 80647 4d 19 fffff4c7 23 26 26 1e 10 17 10 c5 34 28 28 1a 32 18
FIXUPS: 7fe09 24 24 28 28 21 146 1b 27 1b 27 1b 2b 15 1d 39 1d fffff284
FIXUPS: 7f3ec 2a e d 3b 82 5a 41 41 46 2a e 7e 5a 41 41 46 2a e d 1ba 27
FIXUPS: 7fa32 24 24 24 24 24 24 24 23 fffff31f 51 7c 40 1b 13 1c 10 b2
FIXUPS: 7f099 3b 6c f 15 12 6f 1c e 1c e 21 18 10 1a 3c 2c 17 f 4c e 22
FIXUPS: 7f3b4 fffff4b7 15a 64 10 63 2c e 10 54 2c 16 2c e 3d 59 2e 25 69
FIXUPS: 7ed20 1a 19 18 1a 19 18 1a 19 18 1a 16 18 1a fffff0cf 28 28 28
FIXUPS: 7dfd2 28 28 9 c 2b 28 28 28 28 28 28 31 d 48 d 94 24 25 13 149
FIXUPS: 7e466 1e 82 33 16 23 48 fffff381 6d 29 73 33 52 29 d 57 26 d 71
FIXUPS: 7dc20 26 d 34 2b 28 28 28 28 28 28 28 28 28 28 28 28 28 28 28 fffff3a1
FIXUPS: 7d2e1 47 e d 4e 26 16 30 54 20 55 48 10 2f 49 29 2e 55 33 5a 3a
FIXUPS: 7d76f 16 1a 28 7b 1d 39 57 21 18 fffff452 1c 2f 39 2f 1c d b6 1b
FIXUPS: 7cf5f 19 15 1d 25 35 16 2a 15 26 55 1c 1c 80 39 1f 1a 21 15 13
FIXUPS: 7d25e 1a 21 fffff5d3 1e 1d 22 63 23 1a 22 39 3d 25 25 25 25 25
FIXUPS: 7cadf 25 25 25 25 25 25 25 49 5 29 16 33 32 33 2b 1c fffff61e e
FIXUPS: 7c398 e 31 e 33 e 3c e 11 49 e 30 e 19 4e 5e 22 10 36 1e 4f 10
FIXUPS: 7c6fb 3c 28 28 28 2d 29 16 fffff464 13 256 2a 39 10 4f 54 1b 25
FIXUPS: 7c04e 8f 38 2a 23 18 17 20 17 23 13 2b 4c 1a 21 e 21 e 21 e 21
FIXUPS: 7c34b fffff438 1b 1b 1b 1b 1b 1b 1b d 57 1f 12 e8 1a 1a 28 17 13
FIXUPS: 7ba50 37 3e 10 10 47 10 10 15 1a d 9a e 20 fffff7af 1d 1d 1d 1d
FIXUPS: 7b490 1d 1d 1d 1d 1d 26 20 1b 1b 1b 1b 1b 1b 1b 1b 1b 1b 1b 1b
FIXUPS: 7b6c6 1b 1b 1b 1b 1b 1b fffff7e9 1a 38 46 b9 2f 1d 1b 25 12 3c
FIXUPS: 7b196 16 10 45 11 1d 1d 1d 1d 1d 1d 1d 1d 1d 1d 1d 1d 1d 1d 1d
FIXUPS: 7b3e2 fffff589 ae 20 20 20 2e 1d 31 1d 1d 1d 1d 76 1a 1f 10 41
FIXUPS: 7ad08 43 35 29 35 1c 28 69 1a 10 1c 1a 28 e 22 fffff4f5 41 3e 4d
FIXUPS: 7a533 27 27 27 27 27 24 11 10 6e 2b d 71 23 23 23 24 21 18 10 1a
FIXUPS: 7a894 28 28 28 18 21 17 fffff4a5 17 f 69 10 41 26 1a 23 f 7b 17
FIXUPS: 79fff 23 f 4c 1d 27 21 1d 1c 74 33 d 43 86 d 4e 41 41 41 41 fffff514
FIXUPS: 79925 2b 18 24 28 51 22 30 15 2b 60 2b 10 88 24 24 26 24 18 10
FIXUPS: 79c89 6 1a 15 12 71 21 18 10 38 1e fffff5d8 9 4e 15 26 23 27 12
FIXUPS: 794f0 18 10 1a 4b 28 31 26 23 18 2d 28 2e 15 17 f d1 1a 1f 1a 1a
FIXUPS: 79882 1d 4f fffff5a2 52 18 26 1f 57 e 1d e d 54 e 2c e 2c e d 51
FIXUPS: 7913c 21 d 5b 31 d 3f 24 6a 2c 27 25 18 10 fffff4c8 1f 2e ae 29
FIXUPS: 7899c e 23 19 21 59 d 1c 3a 2a 16 18 2b 1f 4a 88 22 20 41 38 2c
FIXUPS: 78d61 45 21 27 34 1b fffff3d0 22 ad 26 29 12 43 56 29 98 43 35
FIXUPS: 78538 35 1c 9 18 10 3a 24 1a 74 1c 2f 1d 19 31 34 2f 1f 1e 27 fffff462
FIXUPS: 77cb0 43 10 72 e e 49 2e 1a 3a 18 24 26 1d 34 3b 18 10 3b 18 10
FIXUPS: 7808e 1d 54 26 1d 1d 18 10 32 26 fffff54b 1d 18 10 1a b1 18 10
FIXUPS: 77884 18 10 22 18 10 21 2b 23 1a 31 18 10 55 18 10 7b 18 10 77
FIXUPS: 77bbe 3a 22 23 fffff2c3 4a 52 e 37 3e e 27 12 3a 60 51 12 99 107
FIXUPS: 77320 44 1d 3a 1d 1d 10 114 84 1c e 2f 1c 63 1a 48 23 fffff2fb
FIXUPS: 76a0d 1a 1c 13 a2 20 39 35 29 35 1c d 25 13 1f 10 83 16 1c 22 13
FIXUPS: 76d73 10 1c e 26 1a 1a 44 40 43 fffff67d 21 18 10 1a 3f 28 21 17
FIXUPS: 7665c 36 1a e 1a e 1a e 1a d 4e 1b 20 39 c 14 2c 2e 43 2d 89 d
FIXUPS: 769cd fffff5c8 54 15 17 b 12 143 29 2d 1b 15 10 4d 1c 6 1a 12 7b
FIXUPS: 76347 19 1b 15 10 1a 42 31 18 28 21 17 f 71 fffff5dd 15 10 1a 55
FIXUPS: 75b9f 1b 1d e 1b e 6e 17 1e e 18 10 12 85 2f d 51 d 16 33 2c 1f
FIXUPS: 75ebc 76 21 18 10 fffff6ef 46 28 28 28 21 17 f 74 24 26 26 e 24
FIXUPS: 758a9 15 10 1a 4f 24 28 24 24 21 17 1a 1b e f 75 e 1c fffff5dc
FIXUPS: 75134 25 2c 1a 2e 16 83 4b c 3f 3c 1d c 32 16 88 c 31 16 1a 32
FIXUPS: 754f1 21 10 73 26 26 26 21 18 10 fffff674 25 e 22 5 5 d 49 e 3a
FIXUPS: 74dcf 36 1a 14 27 e 7d 43 e 22 a 8 5 9 10 65 e e 10 5f 2c 1a fffff7b4
FIXUPS: 7488c 15 1d 1a 15 1d 1a 15 1d 1a d 40 5c 2e 28 1d 30 52 e 48 e
FIXUPS: 74b84 45 e 3a e 36 c 1a 14 27 fffff752 1c 38 1c 1c 1c 35 e 77 1f
FIXUPS: 745a5 1c 1c 1c d 51 2b 28 28 28 44 17 1d 1a 15 1d 1a 1a 1a 1a 1a
FIXUPS: 74855 fffff7fc 2a 2f d 4a e c c 10 30 1d 1a 1a 1a 1a 1a 1a 1a 1a
FIXUPS: 7426e 1a 1a 1a 1a 1a 1a 1a 38 1c 1c 1c 3c fffff66a 1a 29 23 17
FIXUPS: 73ae6 13 3f 17 13 19 9 45 29 27 27 1c 54 60 34 d1 21 1c cd 21 1c
FIXUPS: 73f7c 21 1c 1b 30 10 fffff50d 1d 1d 1d 1d 1d 15 10 3e 17 12 12e
FIXUPS: 7378b 13 18 10 1c e 1c 4b 15 26 12 4c 1d 1d 30 9 5d 3f 1e f fffff6a2
FIXUPS: 730f6 25 1d 1f 39 1f 1f 1e 23 1f 25 25 25 25 25 25 25 27 27 27
FIXUPS: 733cd 27 16 1a 23 25 1f 22 1d 1d 1d fffff4cf 80 39 21 36 18 23
FIXUPS: 72b80 26 1d 82 15 1a 1d 15 20 29 1a 11 35 26 10 16 42 2c 1f 15
FIXUPS: 72ec2 2b 12 189 27 fffff0ef 5f 2e 10 4b 10 14a e 26 e 2b 1f d 20
FIXUPS: 7258e 1f 23 6a 38 f7 24 24 24 24 9 18 10 22 32 1a 45 21 fffff1a5
FIXUPS: 71ad8 12 4b 6f 3b 25 24 36 35 12 4b 40 2c 24 5b 2f 31 25 27 58
FIXUPS: 71f04 27 38 3a 2f 4a 4f 22 27 52 3a fffff1d7 2f 2f 66 2c 24 34
FIXUPS: 71488 31 2c 24 c9 32 51 2c 24 58 37 1d 2f b4 3b 22 24 36 35 12
FIXUPS: 7197d 6f 3b 22 24 fffff166 53 76 2c 1d 1d 4f a6 1d 80 58 6b 39
FIXUPS: 70fa0 4b 2e 22 27 92 22 c 12 12 1c 19 1f 1d 24 2e 2e 2c 24 ffffeec4
FIXUPS: 70181 19 20 1d 1d 4a 38 38 d1 5c 2e 10 4b 77 63 22 2b 25 22 5d
FIXUPS: 706c5 10f 6c 2e 10 4b 123 69 4f c9 56 ffffea08 a9 4e 2b 37 2c ec
FIXUPS: 6f8c3 5b 42 2b 9d 4a 9e 1b 1b 27 27 89 83 d6 45 f3 3a 32 5e 6d
FIXUPS: 70034 22 1d 81 3a ffffed3f e 16 10 a1 17 15 15 3c 1c 69 34 13 34
FIXUPS: 6f149 13 48 30 4c 1d 2a 79 18 16 48 3e 19 10 1c 2a 186 22 fffff164
FIXUPS: 6e738 1d 1b 1b 14 11 16 1b 2f b 10 136 e 74 e 4d e 75 e 9e e 16
FIXUPS: 6eba1 c0 e 74 e 4d e 75 e ffffeddf 47 1a 16 13 a4 a1 1d 10 203
FIXUPS: 6dfca 2f 6a 20 1b 143 1d 2f 40 20 1b 64 1a 1a 22f 1d 2f 40 20 4a
FIXUPS: 6e6af 4a ffffee63 e 2a e 42 e 29 1b 2e d 59 c 31 b 16 110 24 ae
FIXUPS: 6d93f 80 13 4a 10 28 28 88 13 34 1a 16 13 16 fffff052 3f 12 29
FIXUPS: 6cca2 17 13 13 1c 16 d 43 25 19 2e 37 9 c 1a 10b 41 1d 27 e 1d8
FIXUPS: 6d39d 3d 5a 5 53 8 83 ffffed60 37 81 1d 25 10 3b 24 13 16 28 10
FIXUPS: 6c452 16 11 11 11 13 83 6e 35 28 b 1d 16 5 10 39f 165 11 16 10
FIXUPS: 6bae2 26 13 11 11 33 14 33 14 20 23 14 20 23 14 37 34 1d 2b 14
FIXUPS: 6bd64 3a 19 2f 14 29 1d6 9c 83 66 70 5b fffff35d 62 19 36 a 17
FIXUPS: 6b6b4 11 57 11 17 47 13 d6 11 17 39 6d 10 1a 13 17 91 1b e 11 11
FIXUPS: 6ba83 11 13 13 13 fffff2d5 28 23 24 54 a1 16 7a 1d 20 98 c c 8e
FIXUPS: 6b134 87 92 23 a9 38 38 35 19 19 19 23 23 1f a5 34 28 23 fffff0a5
FIXUPS: 6a647 31 7c 7b 3c 79 7b 3c 30 10 11 13 39 a 26 14 11 1c e 17 27
FIXUPS: 6aa88 6c 21 47 59 91 49 23 1f 62 fffff3c1 2b 14 28 17 3b 17 13
FIXUPS: 6a1eb 5a 14 39 14 39 14 39 14 1e 12 13 11 16 11 13 153 6f 31 28
FIXUPS: 6a5f4 16 12 16 fffff3a1 14 33 14 33 14 33 14 33 14 33 14 33 14
FIXUPS: 69bc4 14 11 11 38 14 33 14 3e 17 13 11 3b 3a 17 1d 306 2b fffff41f
FIXUPS: 69513 33 14 11 23 33 14 33 14 33 14 33 14 33 14 33 14 84 2e 14
FIXUPS: 6982c 14 69 1d 18 10 21 17 27 16 3d fffff674 3e 14 3e 14 2e 14
FIXUPS: 69138 14 87 32 14 33 14 61 1d 18 10 21 17 11 16 16 35 33 14 33
FIXUPS: 6943e 33 14 33 14 fffff629 14 61 1d 18 10 21 17 11 16 11 16 2b
FIXUPS: 68c98 14 33 14 60 8c 3d 14 3f 14 3e 14 44 14 37 14 36 14 3e fffff51c
FIXUPS: 68565 14 41 14 2e 14 41 14 2e 14 41 14 2e 14 41 14 7d e4 4f 16
FIXUPS: 68987 14 2e 14 2e 14 11 34 18 32 14 fffff5a3 14 2e 14 41 14 2e
FIXUPS: 68152 41 14 2e 14 41 14 2e 14 41 14 2e 14 41 14 41 14 16 29 29
FIXUPS: 68452 36 2e 14 3e fffff664 2e 14 41 14 49 14 41 14 2e 14 41 14
FIXUPS: 67d62 29 29 29 29 29 29 29 36 2e 14 3e 14 2e 14 41 14 2e 14 fffff5fe
FIXUPS: 67636 2e 14 5c 1d 18 10 21 17 11 43 6d 2b 29 29 36 2e 14 3e 14
FIXUPS: 679ae 3b 41 14 2e 14 41 14 2e 14 41 fffff56b 5c 1d 18 10 21 17
FIXUPS: 671ad 43 16 16 37 38 14 33 14 11 56 49 14 3e 14 3e 14 3e 14 3e
FIXUPS: 674f2 3f 14 69 46 fffff51b 2e 14 2e 14 5c 1d 18 10 21 17 11 99
FIXUPS: 66d61 14 4b 14 e3 4f 16 2e 14 2e 14 2e 14 11 34 18 2e 14 2e fffff521
FIXUPS: 665e4 2e 14 11 18 44 14 45 14 8a 1d 1b 10 21 17 11 16 11 16 81
FIXUPS: 6690c 14 11 4e 13 3c 14 3c 14 2e 14 fffff5ea 38 14 11 47 30 c 30
FIXUPS: 6617a 2b 14 2e 14 2e 14 3b 14 3b 14 3b 14 3b 14 3b 14 3b 14 41
FIXUPS: 6646c 7a a6 16 fffff5eb 17 27 16 16 1b 38 14 33 14 68 49 14 68
FIXUPS: 65e00 14 11 3c 14 3d 14 76 1d 1b 10 21 17 11 11 16 23 33 fffff519
FIXUPS: 65575 15 12 15 4d 14 4b 14 14 6e 56 14 57 14 b0 1d 1b 10 21 17
FIXUPS: 65955 23 b5 2e 14 2e 14 73 1d 1b 10 fffff398 18 58 14 59 14 ae
FIXUPS: 650c0 1b 10 21 17 11 16 5b 2e 14 58 14 4b 14 6e 3b 14 14 15 16
FIXUPS: 654c1 14 52 15 12 fffff391 3c 14 37 14 3c 14 3c 14 6b c 42 c 2e
FIXUPS: 64b21 2e 14 5d 14 4b 14 4b 14 4b 14 8c dc 16 2e 14 2e 14 fffff508
FIXUPS: 6440f 33 14 11 11 33 14 38 14 33 14 8d 1d 36 1e 23 33 14 31 14
FIXUPS: 64710 11 38 14 38 14 33 14 78 17 3c fffff713 2b 14 30 14 31 14
FIXUPS: 64104 14 31 14 13 29 58 11 11 11 11 a 26 14 11 11 11 33 14 33 14
FIXUPS: 6436d 14 33 14 fffff6fe 2e 14 14 110 14 18 2e 14 23 2e 14 19 2e
FIXUPS: 63d5a 19 2e 14 19 2e 14 19 2e 14 2a 1d 2b 14 50 14 14 58 fffff65d
FIXUPS: 63632 1e 17 2b 14 2b 14 13 2b 14 13 2b 14 13 2b 14 7d 2e 10 17
FIXUPS: 6394b 36 33 1d 2b 14 2e 14 19 2e 14 fffff18c 29 1d 1d9 3a 1d 63
FIXUPS: 62f31 12 1f 12 fa 38 13 b8 22 93 46 1d 36 14 18 c4 14 27 14 24
FIXUPS: 63436 24 14 16e 1a ffffec4c 36 1f 91 36 36 36 36 6f 6f 6f 4f 1d
FIXUPS: 625cb 1d 34 1f 82 50 29 1d 9c 5a 31 30 1d 1a0 4e 31 3e 1d a8 fffff205
FIXUPS: 61e0d 21 1f f1 1a 1d 62 1f 13 1f 11 1f 11 1f 11 1f 11 1f 11 1f
FIXUPS: 62129 1f 13 1f 13 1f 13 1f 13 1f 13 fffff6e4 1a 1a 38 33 33 33
FIXUPS: 61a3f 33 36 36 36 36 36 31 37 11 11 53 c 10 17 13 13 69 1f 9 1f
FIXUPS: 61d85 1f 9 1f fffff61f 3c 4e 21 63 17 17 10 65 e 1c e 2b 2a 2a
FIXUPS: 6167d 2a 2a 2a 2d 33 33 33 33 52 17 17 17 17 17 1a 1a fffff4e3
FIXUPS: 60df2 24 14 27 38 34 1d 16 28 16 27 8c 33 17 2c 16 2f 24 82 af
FIXUPS: 61208 2a 14 2a 28 1a 2c 48 21 61 14 fffff5e9 27 29 18 18 1b 1b
FIXUPS: 60a75 2b 1b 1b 3a 14 21 16 26 2a 14 24 16 29 21 36 14 27 16 2c
FIXUPS: 60d17 36 14 2a 16 fffff604 1b 54 13 23 76 78 39 13 26 76 78 39
FIXUPS: 606e4 29 10 68 1a 22 21 27 e 20 2c 13 4a 18 27 40 1a 14 24 fffff181
FIXUPS: 5fb32 2e 16 3f 2e e 38 2c 2f 1f 1d 1d 29 1d 2b 1f 1a 2e 16 10 5c
FIXUPS: 5fe54 23a 2f 33 b0 27 38 59 27 118 fffff0c4 e 38 2c 20 2e 16 46
FIXUPS: 5f5a5 e 38 2c 20 2e 16 15b 2e e 38 2c 4f 1a 2e 16 1a 3b e 7e 2e
FIXUPS: 5fa40 46 4c fffff457 32 e 42 28 e 2c 23 1a 25 13 8c 28 e 2c 23
FIXUPS: 5f1ab 4c 17 25 13 3b 47 28 e 41 25 23 1a 25 13 54 fffff46a 1d 9
FIXUPS: 5e8d9 19 17 1a 27 19 9f 1c 17 3d 11 24 19 f4 1c 17 23 8 9 19 17
FIXUPS: 5ec66 13 1b3 33 12 32 23 29 ffffed75 1b 19 17 1b 1b 8c 18 19 17
FIXUPS: 5de4e 24 26 17 1db 55 55 52 1fd 1c 29 28 142 71 64 31 63 46 23
FIXUPS: 5e72d 10f 3f ffffef81 19 17 3c 9 1f 34 9 29 7 16 77 1c 17 34 9
FIXUPS: 5da16 19 17 3c 9 1c 19 17 3c 9 27 19 93 27 1c 17 fffff678 17 c
FIXUPS: 5d2f7 4e 32 e 185 19 17 34 9 1c 19 17 34 9 d 16 17 34 9 3d 19 17
FIXUPS: 5d720 9 1c 19 17 34 9 fffff1ee 10 1c7 25 5b 7d 1e f5 20 22 1a 1e
FIXUPS: 5cee4 20 22 16 1c 17 2b 13 49 32 e 68 a4 1f 17 c 52 1d 2a 85 fffff292
FIXUPS: 5c582 34 1d 48 1d 1c 19 1b 3b 23 20 26 1a 14 1d 9e 15 17 17 13
FIXUPS: 5c87e 13 13 10 3e e 17 2e 13 2c 13 fffff2ac 20 2f 13 1eb 55 20
FIXUPS: 5bf22 28 20 1d 1b 2e 13 3c 24 21 17 74 b4 4c 46 46 2e 43 9d 4c
FIXUPS: 5c41b 46 2e 43 2e fffff1a0 5d 9e 1a 18 73 22 1a 2a e 20 2c 13 3c
FIXUPS: 5b9d9 17 10 3c 16 23 25 17 10 92 1e 1e 1e 16 22 18 17 21 fffff2e2
FIXUPS: 5af2a 1ad c6 5 10 33 10 20 20 20 20 20 20 24 24 19 6d 38 1f 38
FIXUPS: 5b431 3a 8b 1d 1d 1d 22 2f 1d 15 35 ffffecf3 61 61 61 61 207 189
FIXUPS: 5a89a 17 c9 53 57 e 45 e 2e e 20 27 e 50 13 9d 2a 22 38 31 2d 1d
FIXUPS: 5ad1a 10a 68 ffffe936 22 1a 18 3a 18 1b 1d 21 12 143 27 d7 72 1a
FIXUPS: 59c03 3b a3 f3 27 36 8e 47 95 5f 5f 5f 5f 5f 5f 61 61 ffffeaae
FIXUPS: 58da6 6e 25 12 2c 14 d 51 1b d 4e 25 1d 13 10 10a 43 3b 10 53 a6
FIXUPS: 5928e 2a6 65 19 17 f 1d f a2 103 ffffec1c 10 28 d 11 83 35 25 13
FIXUPS: 5859f 3d 23 61 ac 80 80 c4 31 19 92 42 20 23 51 20 57 1d 48 19
FIXUPS: 58c08 8c 23 ffffef74 ad 1b 5f 5c 43 44 48 31 23 44 41 21 3c 25
FIXUPS: 57ff9 3c 21 13 10 a0 28 7e 34 38 35 2e 39 35 2e 39 4f ffffd062
FIXUPS: 5545e ff 141 173 9 c 1d e 9b b0 dd c2 11 8a 16 5 1cd6 12 79 c 1e
FIXUPS: 57992 56 9d 39 92 3a 3a 1d 15 14 ffffc90c 11c 95 78 62 57 9 1b
FIXUPS: 5482f 53 cc 69 d1 9b 81 13d 53 4c 12f d9 96 42 33 68 9b e 21 e
FIXUPS: 552b5 3b 3f 18 ffffe698 c 13 87 fb 16 27 8d 61 a5 86 5e 78 3f 6a
FIXUPS: 53f84 41 75 78 78 50 42 66 99 69 27 7d d ca 3a 5 28 ffffeb01 18
FIXUPS: 53055 26 6c 25 33 d a7 9 1d a 16 18 128 79 20 3f 13 9 13 96 24
FIXUPS: 53564 21d 40 31 c 12a 42 42 16 ffffeb08 133 39 39 39 39 39 36 36
FIXUPS: 527c4 43 44 58 b 1d f9 e3 39 b8 20f c 28 16 3f 48 a1 4d 28 25 e
FIXUPS: 52fe6 e ffffe387 8 23 bd ec 8 28 c3 cb 37 164 50 64 1d 382 22 b9
FIXUPS: 51e5e 64 ec 8f b 1d 95 d7 16 8f b 1d 175 8f b ffffdf4b 42 3f 20
FIXUPS: 504af b4 13f 51 42 27 159 36 cb 20 16 fe 63 6d 51 ac 107 7e 22d
FIXUPS: 510b8 26 4e 7b 2a 38 2a 46 30 ffffe878 46f e e e e 18 e e 18 32
FIXUPS: 50054 e e e e e e e 30 1b 8 29 1a c 18 2f 39 17 19 22 100 ffffedaf
FIXUPS: 4f138 2f 3a 2c 2a 2b c 24 19 e8 7c 55 1b 6e 34 31 31 d bc 79 17
FIXUPS: 4f6f2 29 10 160 4c 28 4e 69 89 ac ffffef9f e 1e e 1c e b 35 41
FIXUPS: 4eb9e 1b 14 7e 4e 13 2a e 1c e 1e e 1c e b 41 2f 1e 20 1e 17b 1a
FIXUPS: 4f0be fffff47b 20 e 5 4a 27 55 30 1e 83 32 11 3d 1f 23 23 23 29
FIXUPS: 4e853 23 2b 16 3c 25 1c 10 83 17 18 10 5a e fffff575 f 34 57 6c
FIXUPS: 4e115 12 47 57 4a 22 3b 22 39 25 25 21 e 1c e b 59 e 21 e 21 e
FIXUPS: 4e499 e 2e e 48 fffff697 34 18 10 17 17 f 74 e 1c e b 59 e 21 e
FIXUPS: 4ddc9 e 21 e 51 21 18 22 11 2b e 48 e 20 e 48 fffff756 1e 3d 2c
FIXUPS: 4d7b4 6f 23 26 e 26 e 21 15 10 1a 4f 31 10 18 1a 1a 21 e 1e e f
FIXUPS: 4dac3 36 1c 1a 42 24 fffff522 e 13 e 13 e 13 44 15 48 1e 13 a 18
FIXUPS: 4d383 51 59 f 3b 4f 38 38 38 29 3b d 8c 1c 15 10 17 41 fffff5d0
FIXUPS: 4ccf4 e 48 f3 20 13 2c 25 3b 20 16 20 50 e e e e e e e e e 10 e
FIXUPS: 4d04f e e e 11 e 11 fffff77b 8 17 22 e 5b 21 20 e e 11 60 21 20
FIXUPS: 4c9eb e 11 60 39 2a 28 e e 28 3d 13 13 13 45 20 20 92 fffff463
FIXUPS: 4c158 3dc e e e e 10 8 f 10 e e e e e e 8 f 1a e 2b 77 58 e 8 f
FIXUPS: 4c76f e 1c 18 65 fffff2c0 46 195 142 e e e e e e e e e e e e e
FIXUPS: 4beb7 e e 8 f 10 e 10 15 13 a 18 103 51 3b ffffeb4a e 26 e 18 10
FIXUPS: 4acbf 31 24 20 22 18 21 12 196 31 16 79 45 22 12 1b 14 30 3a 23
FIXUPS: 4b6d0 10d 47 10 39 220 ffffec92 63 3d 25 22 36 43 21 2e c 28 1a
FIXUPS: 4a93f 24 53 1e 1a 1d 38 e 2c e 15 85 2b 1d 32 e 26 e 26 e fffff334
FIXUPS: 49f6c 15 10 86 20 22 118 5b 1f 32 e 1d 29 c2 35 d1 35 66 1c 24
FIXUPS: 4a53a 4c 39 18 10 3c 46 27 2e 39 18 fffff165 ad 50 1d 19 29 1d
FIXUPS: 49a13 2e 42 48 50 26 2e 42 2e 18 2e 26 15 26 21 78 47 6d 1e 58
FIXUPS: 49e67 59 32 32 15 fffff420 e 1c e 1c e 1c e 1c e 3b 2a e 1c e 1a
FIXUPS: 494e2 1c e 1c e 1c e 13 a0 d5 50 26 2e 7a 1d 1d fffff773 26 e 26
FIXUPS: 4901b 26 e 26 e 26 e 26 21 23 24 28 1c 3e 1c e 26 42 2e e 1c e
FIXUPS: 492db e 1c e 1c e fffff65c 1d 31 25 15 4f 52 18 26 10 19 3a 3f
FIXUPS: 48c07 26 1d 28 21 1c 1b 15 51 60 18 26 10 c3 63 23 24 24 28 fffff4c2
FIXUPS: 484bc 15 10 41 17 1a 23 f 49 1a 22 10 8a 24 1d 23 21 18 10 1a 83
FIXUPS: 48803 17 1f 15 4d 28 31 15 21 49 fffff07d 122 1b 55 1b 2b 33 15
FIXUPS: 47c39 2e 31 31 31 31 31 56 1b 55 1b 25 26 cb 10 2bc 5e 40 5e 5
FIXUPS: 48392 5e 28 34 ffffee6f d 4e 69 34 31 24 1b 50 d 9c 25 17 18 d
FIXUPS: 475c4 65 19 17 f 1d f 65 25 66 2e 10 11b c 3b 3d 19 ffffec9d 12
FIXUPS: 46658 46 2a9 15 200 6e 7e 46 17 17 13 3f 3a 31 16 13 152 b9 8e
FIXUPS: 470a9 7e 46 17 17 13 3f 34 2e 16 13 ffffef7b 16 13 44 12 2f 18
FIXUPS: 462f3 f f f 27 86 f f 27 3d f f f f f f f bb f f f 3b f f f fffff57b
FIXUPS: 45bc2 68 2e 2e 16 13 90 15 21 f f f f f f 1f 19 15 f f e8 8e 6e
FIXUPS: 4609c 46 17 17 13 3f 35 2e ffffedc3 6e 7e 46 17 17 13 3f 40 2e
FIXUPS: 451be 13 114 6e 7e 46 17 17 13 3f 40 2e 16 13 1cf 8c 287 6e 7e
FIXUPS: 45b42 17 17 ffffe85b 23 bf 60 f2 58 219 74 45 1b 45 1b 45 1b 45
FIXUPS: 44a64 45 1b 45 1b 45 18 45 1f 99 4b 1b c 20 1b 16 5c ffffe865 42
FIXUPS: 4366c 42 28 42 28 42 28 42 28 42 28 42 2fe 1f 1f 1f ad 107 b 10
FIXUPS: 43e53 23 10 46 12 2d6 3c 36 f 124 ffffe996 25 42 1f 23 1a 23 2a
FIXUPS: 42e1c 1d 10b 39 8d ae 9c 70 53 45 36 97 5d 42 28 42 28 42 28 42
FIXUPS: 4352e 42 28 42 fffff0d7 28 37 28 37 28 37 28 37 28 37 18 10 5a
FIXUPS: 4291e 4f 5b 4d 16 1e 6e 43 2b 1b 1a 1f 21 3a 2f 3a 23 4d fffff3f2
FIXUPS: 420d9 16 50 26 39 25 26 39 2e 29 29 37 29 37 29 2f 50 37 28 37
FIXUPS: 4249f 37 28 37 28 37 28 37 28 37 28 5073e 31 43 d 73 2e 4e 9 24
FIXUPS: 92f61 3f 28 85 4b 1d c 5f cc c 10 fffaec9e 13 1e d 43 70 2a 2c
FIXUPS: 42008 3d 1a 1f 5005b 27 1c 1e9 8f 9c 3a 40 24 d 11b c1 10e 59 e7
FIXUPS: 92965 1a 24 d 138 c1 76 43 24 d 48 e 20 27 e 25 13 ffffe9c7 68
FIXUPS: 917c6 21 1e 7d 13 d 6d 16 13 19 20 d 40 1a c5 13 d 28b 2c 1d c
FIXUPS: 91dc4 17 73 51 33 d4 9 24 10 fffff064 89 1d 64 1d 22 1d 5f 1d 1d
FIXUPS: 9126d 1d 34 1d 1d 34 1d 1d 1b 21 21 2a 7b 1c 3b 15 c 44 143 20
FIXUPS: 9169e 79 fffff2d6 3f c 72 75 26 17 f 1d f 40 89 17 65 20 4f 16
FIXUPS: 90d96 16 30 16 21 16 35 1b 92 42 16 28 3c 1d 28 fffff445 1a 188
FIXUPS: 9061f 1e 10 36 16 10 d 31 16 10 d 4c 12 27 12 20 42 12 13 3c 1d
FIXUPS: 908b7 1d 1d 23 d d 95 1a ffffeb7e 55 15 15 e 2a d 19 194 66 e4
FIXUPS: 8f95e 66 e2 48 48 66 119 8c e5 48 48 66 3b4 40 11 2f 14 14 61 34
FIXUPS: 90434 ffffebd3 3b 43 15 1e 1f 12 3d 1a 1e 15 15 f 13 10 3d 25 20
FIXUPS: 8f265 d 3c 20 29 d a5 17 19 17 4c e 13 e1
